(dp1
S'output'
p2
S"<type 'exceptions.SyntaxError'> invalid syntax (default.py, line 19)"
p3
sS'layer'
p4
S'/Users/emir/Documents/beardcode/web2py/applications/fayol/controllers/default.py'
p5
sS'code'
p6
S"# -*- coding: utf-8 -*-\n\n\ndef index():\n\tform = FORM(\n\t\t\t\tFIELDSET(\n\t\t\t\t\t\tINPUT(_id='usr', _type='text', _placeholder='Usuario', _required='required'),\n\t\t\t\t\t\tINPUT(_id='pwd', _type='password', _placeholder='Contrase\xc3\xb1a', _required='required')\n\t\t\t\t,_id='inputs'),\n\t\t\t\tFIELDSET(\n\t\t\t\t\t\tINPUT(_type='submit', _id='submit', _value='Entrar')\n\t\t\t\t,_id='actions')\n\t\t\t,_method='POST')\n\n\t#if form.accepts(request,session):\n\t#\tresponse.flash = 'form accepted'\n\treturn dict(form=form)\n\ndef process_form()\n\treturn dict()\n\n\n\nresponse._vars=response._caller(index)\n"
p7
sS'snapshot'
p8
(dp9
S'exception'
p10
(dp11
S'__getslice__'
p12
S"<method-wrapper '__getslice__' of exceptions.SyntaxError object>"
p13
sS'text'
p14
S"'def process_form()\\n'"
p15
sS'__str__'
p16
S"<method-wrapper '__str__' of exceptions.SyntaxError object>"
p17
sS'__reduce__'
p18
S'<built-in method __reduce__ of exceptions.SyntaxError object>'
p19
sS'__dict__'
p20
S'{}'
p21
sS'__sizeof__'
p22
S'<built-in method __sizeof__ of exceptions.SyntaxError object>'
p23
sS'__init__'
p24
S"<method-wrapper '__init__' of exceptions.SyntaxError object>"
p25
sS'__setattr__'
p26
S"<method-wrapper '__setattr__' of exceptions.SyntaxError object>"
p27
sS'__reduce_ex__'
p28
S'<built-in method __reduce_ex__ of exceptions.SyntaxError object>'
p29
sS'__new__'
p30
S'<built-in method __new__ of type object>'
p31
sS'__format__'
p32
S'<built-in method __format__ of exceptions.SyntaxError object>'
p33
sS'__class__'
p34
S"<type 'exceptions.SyntaxError'>"
p35
sS'filename'
p36
S"'/Users/emir/Documents/beardcode/web2py/applications/fayol/controllers/default.py'"
p37
sS'lineno'
p38
S'19'
p39
sS'msg'
p40
S"'invalid syntax'"
p41
sS'__doc__'
p42
S"'Invalid syntax.'"
p43
sS'__getitem__'
p44
S"<method-wrapper '__getitem__' of exceptions.SyntaxError object>"
p45
sS'__setstate__'
p46
S'<built-in method __setstate__ of exceptions.SyntaxError object>'
p47
sS'__getattribute__'
p48
S"<method-wrapper '__getattribute__' of exceptions.SyntaxError object>"
p49
sS'print_file_and_line'
p50
S'None'
p51
sS'args'
p52
S"('invalid syntax', ('/Users/emir/Documents/beardcode/web2py/applications/fayol/controllers/default.py', 19, 19, 'def process_form()\\n'))"
p53
sS'__subclasshook__'
p54
S'<built-in method __subclasshook__ of type object>'
p55
sS'offset'
p56
S'19'
p57
sS'__unicode__'
p58
S'<built-in method __unicode__ of exceptions.SyntaxError object>'
p59
sS'__delattr__'
p60
S"<method-wrapper '__delattr__' of exceptions.SyntaxError object>"
p61
sS'__repr__'
p62
S"<method-wrapper '__repr__' of exceptions.SyntaxError object>"
p63
sS'__hash__'
p64
S"<method-wrapper '__hash__' of exceptions.SyntaxError object>"
p65
ssS'evalue'
p66
S'invalid syntax (default.py, line 19)'
p67
sS'request'
p68
ccopy_reg
_reconstructor
p69
(cgluon.html
BEAUTIFY
p70
c__builtin__
object
p71
NtRp72
(dp73
S'attributes'
p74
(dp75
sS'components'
p76
(lp77
g69
(cgluon.html
TABLE
p78
g71
NtRp79
(dp80
g74
(dp81
S'level'
p82
I5
ssS'parent'
p83
Nsg76
(lp84
g69
(cgluon.html
TR
p85
g71
NtRp86
(dp87
g74
(dp88
sg83
g79
sg76
(lp89
g69
(cgluon.html
TD
p90
g71
NtRp91
(dp92
g74
(dp93
S'_style'
p94
S'font-weight:bold;vertical-align:top'
p95
ssg83
g86
sg76
(lp96
S'ajax'
p97
asbag69
(g90
g71
NtRp98
(dp99
g74
(dp100
S'_valign'
p101
S'top'
p102
ssg83
g86
sg76
(lp103
S':'
asbag69
(g90
g71
NtRp104
(dp105
g74
(dp106
sg83
g86
sg76
(lp107
g69
(g70
g71
NtRp108
(dp109
g74
(dp110
g82
I5
ssg83
g104
sg76
(lp111
S'False'
p112
asbasbasbag69
(g85
g71
NtRp113
(dp114
g74
(dp115
sg83
g79
sg76
(lp116
g69
(g90
g71
NtRp117
(dp118
g74
(dp119
g94
g95
ssg83
g113
sg76
(lp120
S'application'
p121
asbag69
(g90
g71
NtRp122
(dp123
g74
(dp124
g101
g102
ssg83
g113
sg76
(lp125
S':'
asbag69
(g90
g71
NtRp126
(dp127
g74
(dp128
sg83
g113
sg76
(lp129
g69
(g70
g71
NtRp130
(dp131
g74
(dp132
g82
I5
ssg83
g126
sg76
(lp133
S'fayol'
p134
asbasbasbag69
(g85
g71
NtRp135
(dp136
g74
(dp137
sg83
g79
sg76
(lp138
g69
(g90
g71
NtRp139
(dp140
g74
(dp141
g94
g95
ssg83
g135
sg76
(lp142
g52
asbag69
(g90
g71
NtRp143
(dp144
g74
(dp145
g101
g102
ssg83
g135
sg76
(lp146
S':'
asbag69
(g90
g71
NtRp147
(dp148
g74
(dp149
sg83
g135
sg76
(lp150
g69
(g70
g71
NtRp151
(dp152
g74
(dp153
g82
I5
ssg83
g147
sg76
(lp154
g69
(g78
g71
NtRp155
(dp156
g74
(dp157
g82
I4
ssg83
Nsg76
(lp158
sbasbasbasbag69
(g85
g71
NtRp159
(dp160
g74
(dp161
sg83
g79
sg76
(lp162
g69
(g90
g71
NtRp163
(dp164
g74
(dp165
g94
g95
ssg83
g159
sg76
(lp166
S'body'
p167
asbag69
(g90
g71
NtRp168
(dp169
g74
(dp170
g101
g102
ssg83
g159
sg76
(lp171
S':'
asbag69
(g90
g71
NtRp172
(dp173
g74
(dp174
sg83
g159
sg76
(lp175
g69
(g70
g71
NtRp176
(dp177
g74
(dp178
g82
I5
ssg83
g172
sg76
(lp179
S'<cStringIO.StringO object at 0x1043f1ea0>'
p180
asbasbasbag69
(g85
g71
NtRp181
(dp182
g74
(dp183
sg83
g79
sg76
(lp184
g69
(g90
g71
NtRp185
(dp186
g74
(dp187
g94
g95
ssg83
g181
sg76
(lp188
S'client'
p189
asbag69
(g90
g71
NtRp190
(dp191
g74
(dp192
g101
g102
ssg83
g181
sg76
(lp193
S':'
asbag69
(g90
g71
NtRp194
(dp195
g74
(dp196
sg83
g181
sg76
(lp197
g69
(g70
g71
NtRp198
(dp199
g74
(dp200
g82
I5
ssg83
g194
sg76
(lp201
S'127.0.0.1'
p202
asbasbasbag69
(g85
g71
NtRp203
(dp204
g74
(dp205
sg83
g79
sg76
(lp206
g69
(g90
g71
NtRp207
(dp208
g74
(dp209
g94
g95
ssg83
g203
sg76
(lp210
S'controller'
p211
asbag69
(g90
g71
NtRp212
(dp213
g74
(dp214
g101
g102
ssg83
g203
sg76
(lp215
S':'
asbag69
(g90
g71
NtRp216
(dp217
g74
(dp218
sg83
g203
sg76
(lp219
g69
(g70
g71
NtRp220
(dp221
g74
(dp222
g82
I5
ssg83
g216
sg76
(lp223
S'default'
p224
asbasbasbag69
(g85
g71
NtRp225
(dp226
g74
(dp227
sg83
g79
sg76
(lp228
g69
(g90
g71
NtRp229
(dp230
g74
(dp231
g94
g95
ssg83
g225
sg76
(lp232
S'cookies'
p233
asbag69
(g90
g71
NtRp234
(dp235
g74
(dp236
g101
g102
ssg83
g225
sg76
(lp237
S':'
asbag69
(g90
g71
NtRp238
(dp239
g74
(dp240
sg83
g225
sg76
(lp241
g69
(g70
g71
NtRp242
(dp243
g74
(dp244
g82
I5
ssg83
g238
sg76
(lp245
g69
(g78
g71
NtRp246
(dp247
g74
(dp248
g82
I4
ssg83
Nsg76
(lp249
g69
(g85
g71
NtRp250
(dp251
g74
(dp252
sg83
g246
sg76
(lp253
g69
(g90
g71
NtRp254
(dp255
g74
(dp256
g94
g95
ssg83
g250
sg76
(lp257
S'session_id_admin'
p258
asbag69
(g90
g71
NtRp259
(dp260
g74
(dp261
g101
g102
ssg83
g250
sg76
(lp262
S':'
asbag69
(g90
g71
NtRp263
(dp264
g74
(dp265
sg83
g250
sg76
(lp266
g69
(g70
g71
NtRp267
(dp268
g74
(dp269
g82
I4
ssg83
g263
sg76
(lp270
g69
(g78
g71
NtRp271
(dp272
g74
(dp273
g82
I3
ssg83
Nsg76
(lp274
g69
(g85
g71
NtRp275
(dp276
g74
(dp277
sg83
g271
sg76
(lp278
g69
(g90
g71
NtRp279
(dp280
g74
(dp281
g94
g95
ssg83
g275
sg76
(lp282
S'comment'
p283
asbag69
(g90
g71
NtRp284
(dp285
g74
(dp286
g101
g102
ssg83
g275
sg76
(lp287
S':'
asbag69
(g90
g71
NtRp288
(dp289
g74
(dp290
sg83
g275
sg76
(lp291
g69
(g70
g71
NtRp292
(dp293
g74
(dp294
g82
I3
ssg83
g288
sg76
(lp295
S''
asbasbasbag69
(g85
g71
NtRp296
(dp297
g74
(dp298
sg83
g271
sg76
(lp299
g69
(g90
g71
NtRp300
(dp301
g74
(dp302
g94
g95
ssg83
g296
sg76
(lp303
S'domain'
p304
asbag69
(g90
g71
NtRp305
(dp306
g74
(dp307
g101
g102
ssg83
g296
sg76
(lp308
S':'
asbag69
(g90
g71
NtRp309
(dp310
g74
(dp311
sg83
g296
sg76
(lp312
g69
(g70
g71
NtRp313
(dp314
g74
(dp315
g82
I3
ssg83
g309
sg76
(lp316
S''
asbasbasbag69
(g85
g71
NtRp317
(dp318
g74
(dp319
sg83
g271
sg76
(lp320
g69
(g90
g71
NtRp321
(dp322
g74
(dp323
g94
g95
ssg83
g317
sg76
(lp324
S'expires'
p325
asbag69
(g90
g71
NtRp326
(dp327
g74
(dp328
g101
g102
ssg83
g317
sg76
(lp329
S':'
asbag69
(g90
g71
NtRp330
(dp331
g74
(dp332
sg83
g317
sg76
(lp333
g69
(g70
g71
NtRp334
(dp335
g74
(dp336
g82
I3
ssg83
g330
sg76
(lp337
S''
asbasbasbag69
(g85
g71
NtRp338
(dp339
g74
(dp340
sg83
g271
sg76
(lp341
g69
(g90
g71
NtRp342
(dp343
g74
(dp344
g94
g95
ssg83
g338
sg76
(lp345
S'httponly'
p346
asbag69
(g90
g71
NtRp347
(dp348
g74
(dp349
g101
g102
ssg83
g338
sg76
(lp350
S':'
asbag69
(g90
g71
NtRp351
(dp352
g74
(dp353
sg83
g338
sg76
(lp354
g69
(g70
g71
NtRp355
(dp356
g74
(dp357
g82
I3
ssg83
g351
sg76
(lp358
S''
asbasbasbag69
(g85
g71
NtRp359
(dp360
g74
(dp361
sg83
g271
sg76
(lp362
g69
(g90
g71
NtRp363
(dp364
g74
(dp365
g94
g95
ssg83
g359
sg76
(lp366
S'max-age'
p367
asbag69
(g90
g71
NtRp368
(dp369
g74
(dp370
g101
g102
ssg83
g359
sg76
(lp371
S':'
asbag69
(g90
g71
NtRp372
(dp373
g74
(dp374
sg83
g359
sg76
(lp375
g69
(g70
g71
NtRp376
(dp377
g74
(dp378
g82
I3
ssg83
g372
sg76
(lp379
S''
asbasbasbag69
(g85
g71
NtRp380
(dp381
g74
(dp382
sg83
g271
sg76
(lp383
g69
(g90
g71
NtRp384
(dp385
g74
(dp386
g94
g95
ssg83
g380
sg76
(lp387
S'path'
p388
asbag69
(g90
g71
NtRp389
(dp390
g74
(dp391
g101
g102
ssg83
g380
sg76
(lp392
S':'
asbag69
(g90
g71
NtRp393
(dp394
g74
(dp395
sg83
g380
sg76
(lp396
g69
(g70
g71
NtRp397
(dp398
g74
(dp399
g82
I3
ssg83
g393
sg76
(lp400
S''
asbasbasbag69
(g85
g71
NtRp401
(dp402
g74
(dp403
sg83
g271
sg76
(lp404
g69
(g90
g71
NtRp405
(dp406
g74
(dp407
g94
g95
ssg83
g401
sg76
(lp408
S'secure'
p409
asbag69
(g90
g71
NtRp410
(dp411
g74
(dp412
g101
g102
ssg83
g401
sg76
(lp413
S':'
asbag69
(g90
g71
NtRp414
(dp415
g74
(dp416
sg83
g401
sg76
(lp417
g69
(g70
g71
NtRp418
(dp419
g74
(dp420
g82
I3
ssg83
g414
sg76
(lp421
S''
asbasbasbag69
(g85
g71
NtRp422
(dp423
g74
(dp424
sg83
g271
sg76
(lp425
g69
(g90
g71
NtRp426
(dp427
g74
(dp428
g94
g95
ssg83
g422
sg76
(lp429
S'version'
p430
asbag69
(g90
g71
NtRp431
(dp432
g74
(dp433
g101
g102
ssg83
g422
sg76
(lp434
S':'
asbag69
(g90
g71
NtRp435
(dp436
g74
(dp437
sg83
g422
sg76
(lp438
g69
(g70
g71
NtRp439
(dp440
g74
(dp441
g82
I3
ssg83
g435
sg76
(lp442
S''
asbasbasbasbasbasbasbag69
(g85
g71
NtRp443
(dp444
g74
(dp445
sg83
g246
sg76
(lp446
g69
(g90
g71
NtRp447
(dp448
g74
(dp449
g94
g95
ssg83
g443
sg76
(lp450
S'session_id_contador'
p451
asbag69
(g90
g71
NtRp452
(dp453
g74
(dp454
g101
g102
ssg83
g443
sg76
(lp455
S':'
asbag69
(g90
g71
NtRp456
(dp457
g74
(dp458
sg83
g443
sg76
(lp459
g69
(g70
g71
NtRp460
(dp461
g74
(dp462
g82
I4
ssg83
g456
sg76
(lp463
g69
(g78
g71
NtRp464
(dp465
g74
(dp466
g82
I3
ssg83
Nsg76
(lp467
g69
(g85
g71
NtRp468
(dp469
g74
(dp470
sg83
g464
sg76
(lp471
g69
(g90
g71
NtRp472
(dp473
g74
(dp474
g94
g95
ssg83
g468
sg76
(lp475
g283
asbag69
(g90
g71
NtRp476
(dp477
g74
(dp478
g101
g102
ssg83
g468
sg76
(lp479
S':'
asbag69
(g90
g71
NtRp480
(dp481
g74
(dp482
sg83
g468
sg76
(lp483
g69
(g70
g71
NtRp484
(dp485
g74
(dp486
g82
I3
ssg83
g480
sg76
(lp487
S''
asbasbasbag69
(g85
g71
NtRp488
(dp489
g74
(dp490
sg83
g464
sg76
(lp491
g69
(g90
g71
NtRp492
(dp493
g74
(dp494
g94
g95
ssg83
g488
sg76
(lp495
g304
asbag69
(g90
g71
NtRp496
(dp497
g74
(dp498
g101
g102
ssg83
g488
sg76
(lp499
S':'
asbag69
(g90
g71
NtRp500
(dp501
g74
(dp502
sg83
g488
sg76
(lp503
g69
(g70
g71
NtRp504
(dp505
g74
(dp506
g82
I3
ssg83
g500
sg76
(lp507
S''
asbasbasbag69
(g85
g71
NtRp508
(dp509
g74
(dp510
sg83
g464
sg76
(lp511
g69
(g90
g71
NtRp512
(dp513
g74
(dp514
g94
g95
ssg83
g508
sg76
(lp515
g325
asbag69
(g90
g71
NtRp516
(dp517
g74
(dp518
g101
g102
ssg83
g508
sg76
(lp519
S':'
asbag69
(g90
g71
NtRp520
(dp521
g74
(dp522
sg83
g508
sg76
(lp523
g69
(g70
g71
NtRp524
(dp525
g74
(dp526
g82
I3
ssg83
g520
sg76
(lp527
S''
asbasbasbag69
(g85
g71
NtRp528
(dp529
g74
(dp530
sg83
g464
sg76
(lp531
g69
(g90
g71
NtRp532
(dp533
g74
(dp534
g94
g95
ssg83
g528
sg76
(lp535
g346
asbag69
(g90
g71
NtRp536
(dp537
g74
(dp538
g101
g102
ssg83
g528
sg76
(lp539
S':'
asbag69
(g90
g71
NtRp540
(dp541
g74
(dp542
sg83
g528
sg76
(lp543
g69
(g70
g71
NtRp544
(dp545
g74
(dp546
g82
I3
ssg83
g540
sg76
(lp547
S''
asbasbasbag69
(g85
g71
NtRp548
(dp549
g74
(dp550
sg83
g464
sg76
(lp551
g69
(g90
g71
NtRp552
(dp553
g74
(dp554
g94
g95
ssg83
g548
sg76
(lp555
g367
asbag69
(g90
g71
NtRp556
(dp557
g74
(dp558
g101
g102
ssg83
g548
sg76
(lp559
S':'
asbag69
(g90
g71
NtRp560
(dp561
g74
(dp562
sg83
g548
sg76
(lp563
g69
(g70
g71
NtRp564
(dp565
g74
(dp566
g82
I3
ssg83
g560
sg76
(lp567
S''
asbasbasbag69
(g85
g71
NtRp568
(dp569
g74
(dp570
sg83
g464
sg76
(lp571
g69
(g90
g71
NtRp572
(dp573
g74
(dp574
g94
g95
ssg83
g568
sg76
(lp575
g388
asbag69
(g90
g71
NtRp576
(dp577
g74
(dp578
g101
g102
ssg83
g568
sg76
(lp579
S':'
asbag69
(g90
g71
NtRp580
(dp581
g74
(dp582
sg83
g568
sg76
(lp583
g69
(g70
g71
NtRp584
(dp585
g74
(dp586
g82
I3
ssg83
g580
sg76
(lp587
S''
asbasbasbag69
(g85
g71
NtRp588
(dp589
g74
(dp590
sg83
g464
sg76
(lp591
g69
(g90
g71
NtRp592
(dp593
g74
(dp594
g94
g95
ssg83
g588
sg76
(lp595
g409
asbag69
(g90
g71
NtRp596
(dp597
g74
(dp598
g101
g102
ssg83
g588
sg76
(lp599
S':'
asbag69
(g90
g71
NtRp600
(dp601
g74
(dp602
sg83
g588
sg76
(lp603
g69
(g70
g71
NtRp604
(dp605
g74
(dp606
g82
I3
ssg83
g600
sg76
(lp607
S''
asbasbasbag69
(g85
g71
NtRp608
(dp609
g74
(dp610
sg83
g464
sg76
(lp611
g69
(g90
g71
NtRp612
(dp613
g74
(dp614
g94
g95
ssg83
g608
sg76
(lp615
g430
asbag69
(g90
g71
NtRp616
(dp617
g74
(dp618
g101
g102
ssg83
g608
sg76
(lp619
S':'
asbag69
(g90
g71
NtRp620
(dp621
g74
(dp622
sg83
g608
sg76
(lp623
g69
(g70
g71
NtRp624
(dp625
g74
(dp626
g82
I3
ssg83
g620
sg76
(lp627
S''
asbasbasbasbasbasbasbag69
(g85
g71
NtRp628
(dp629
g74
(dp630
sg83
g246
sg76
(lp631
g69
(g90
g71
NtRp632
(dp633
g74
(dp634
g94
g95
ssg83
g628
sg76
(lp635
S'session_id_fayol'
p636
asbag69
(g90
g71
NtRp637
(dp638
g74
(dp639
g101
g102
ssg83
g628
sg76
(lp640
S':'
asbag69
(g90
g71
NtRp641
(dp642
g74
(dp643
sg83
g628
sg76
(lp644
g69
(g70
g71
NtRp645
(dp646
g74
(dp647
g82
I4
ssg83
g641
sg76
(lp648
g69
(g78
g71
NtRp649
(dp650
g74
(dp651
g82
I3
ssg83
Nsg76
(lp652
g69
(g85
g71
NtRp653
(dp654
g74
(dp655
sg83
g649
sg76
(lp656
g69
(g90
g71
NtRp657
(dp658
g74
(dp659
g94
g95
ssg83
g653
sg76
(lp660
g283
asbag69
(g90
g71
NtRp661
(dp662
g74
(dp663
g101
g102
ssg83
g653
sg76
(lp664
S':'
asbag69
(g90
g71
NtRp665
(dp666
g74
(dp667
sg83
g653
sg76
(lp668
g69
(g70
g71
NtRp669
(dp670
g74
(dp671
g82
I3
ssg83
g665
sg76
(lp672
S''
asbasbasbag69
(g85
g71
NtRp673
(dp674
g74
(dp675
sg83
g649
sg76
(lp676
g69
(g90
g71
NtRp677
(dp678
g74
(dp679
g94
g95
ssg83
g673
sg76
(lp680
g304
asbag69
(g90
g71
NtRp681
(dp682
g74
(dp683
g101
g102
ssg83
g673
sg76
(lp684
S':'
asbag69
(g90
g71
NtRp685
(dp686
g74
(dp687
sg83
g673
sg76
(lp688
g69
(g70
g71
NtRp689
(dp690
g74
(dp691
g82
I3
ssg83
g685
sg76
(lp692
S''
asbasbasbag69
(g85
g71
NtRp693
(dp694
g74
(dp695
sg83
g649
sg76
(lp696
g69
(g90
g71
NtRp697
(dp698
g74
(dp699
g94
g95
ssg83
g693
sg76
(lp700
g325
asbag69
(g90
g71
NtRp701
(dp702
g74
(dp703
g101
g102
ssg83
g693
sg76
(lp704
S':'
asbag69
(g90
g71
NtRp705
(dp706
g74
(dp707
sg83
g693
sg76
(lp708
g69
(g70
g71
NtRp709
(dp710
g74
(dp711
g82
I3
ssg83
g705
sg76
(lp712
S''
asbasbasbag69
(g85
g71
NtRp713
(dp714
g74
(dp715
sg83
g649
sg76
(lp716
g69
(g90
g71
NtRp717
(dp718
g74
(dp719
g94
g95
ssg83
g713
sg76
(lp720
g346
asbag69
(g90
g71
NtRp721
(dp722
g74
(dp723
g101
g102
ssg83
g713
sg76
(lp724
S':'
asbag69
(g90
g71
NtRp725
(dp726
g74
(dp727
sg83
g713
sg76
(lp728
g69
(g70
g71
NtRp729
(dp730
g74
(dp731
g82
I3
ssg83
g725
sg76
(lp732
S''
asbasbasbag69
(g85
g71
NtRp733
(dp734
g74
(dp735
sg83
g649
sg76
(lp736
g69
(g90
g71
NtRp737
(dp738
g74
(dp739
g94
g95
ssg83
g733
sg76
(lp740
g367
asbag69
(g90
g71
NtRp741
(dp742
g74
(dp743
g101
g102
ssg83
g733
sg76
(lp744
S':'
asbag69
(g90
g71
NtRp745
(dp746
g74
(dp747
sg83
g733
sg76
(lp748
g69
(g70
g71
NtRp749
(dp750
g74
(dp751
g82
I3
ssg83
g745
sg76
(lp752
S''
asbasbasbag69
(g85
g71
NtRp753
(dp754
g74
(dp755
sg83
g649
sg76
(lp756
g69
(g90
g71
NtRp757
(dp758
g74
(dp759
g94
g95
ssg83
g753
sg76
(lp760
g388
asbag69
(g90
g71
NtRp761
(dp762
g74
(dp763
g101
g102
ssg83
g753
sg76
(lp764
S':'
asbag69
(g90
g71
NtRp765
(dp766
g74
(dp767
sg83
g753
sg76
(lp768
g69
(g70
g71
NtRp769
(dp770
g74
(dp771
g82
I3
ssg83
g765
sg76
(lp772
S''
asbasbasbag69
(g85
g71
NtRp773
(dp774
g74
(dp775
sg83
g649
sg76
(lp776
g69
(g90
g71
NtRp777
(dp778
g74
(dp779
g94
g95
ssg83
g773
sg76
(lp780
g409
asbag69
(g90
g71
NtRp781
(dp782
g74
(dp783
g101
g102
ssg83
g773
sg76
(lp784
S':'
asbag69
(g90
g71
NtRp785
(dp786
g74
(dp787
sg83
g773
sg76
(lp788
g69
(g70
g71
NtRp789
(dp790
g74
(dp791
g82
I3
ssg83
g785
sg76
(lp792
S''
asbasbasbag69
(g85
g71
NtRp793
(dp794
g74
(dp795
sg83
g649
sg76
(lp796
g69
(g90
g71
NtRp797
(dp798
g74
(dp799
g94
g95
ssg83
g793
sg76
(lp800
g430
asbag69
(g90
g71
NtRp801
(dp802
g74
(dp803
g101
g102
ssg83
g793
sg76
(lp804
S':'
asbag69
(g90
g71
NtRp805
(dp806
g74
(dp807
sg83
g793
sg76
(lp808
g69
(g70
g71
NtRp809
(dp810
g74
(dp811
g82
I3
ssg83
g805
sg76
(lp812
S''
asbasbasbasbasbasbasbag69
(g85
g71
NtRp813
(dp814
g74
(dp815
sg83
g246
sg76
(lp816
g69
(g90
g71
NtRp817
(dp818
g74
(dp819
g94
g95
ssg83
g813
sg76
(lp820
S'session_id_nombres'
p821
asbag69
(g90
g71
NtRp822
(dp823
g74
(dp824
g101
g102
ssg83
g813
sg76
(lp825
S':'
asbag69
(g90
g71
NtRp826
(dp827
g74
(dp828
sg83
g813
sg76
(lp829
g69
(g70
g71
NtRp830
(dp831
g74
(dp832
g82
I4
ssg83
g826
sg76
(lp833
g69
(g78
g71
NtRp834
(dp835
g74
(dp836
g82
I3
ssg83
Nsg76
(lp837
g69
(g85
g71
NtRp838
(dp839
g74
(dp840
sg83
g834
sg76
(lp841
g69
(g90
g71
NtRp842
(dp843
g74
(dp844
g94
g95
ssg83
g838
sg76
(lp845
g283
asbag69
(g90
g71
NtRp846
(dp847
g74
(dp848
g101
g102
ssg83
g838
sg76
(lp849
S':'
asbag69
(g90
g71
NtRp850
(dp851
g74
(dp852
sg83
g838
sg76
(lp853
g69
(g70
g71
NtRp854
(dp855
g74
(dp856
g82
I3
ssg83
g850
sg76
(lp857
S''
asbasbasbag69
(g85
g71
NtRp858
(dp859
g74
(dp860
sg83
g834
sg76
(lp861
g69
(g90
g71
NtRp862
(dp863
g74
(dp864
g94
g95
ssg83
g858
sg76
(lp865
g304
asbag69
(g90
g71
NtRp866
(dp867
g74
(dp868
g101
g102
ssg83
g858
sg76
(lp869
S':'
asbag69
(g90
g71
NtRp870
(dp871
g74
(dp872
sg83
g858
sg76
(lp873
g69
(g70
g71
NtRp874
(dp875
g74
(dp876
g82
I3
ssg83
g870
sg76
(lp877
S''
asbasbasbag69
(g85
g71
NtRp878
(dp879
g74
(dp880
sg83
g834
sg76
(lp881
g69
(g90
g71
NtRp882
(dp883
g74
(dp884
g94
g95
ssg83
g878
sg76
(lp885
g325
asbag69
(g90
g71
NtRp886
(dp887
g74
(dp888
g101
g102
ssg83
g878
sg76
(lp889
S':'
asbag69
(g90
g71
NtRp890
(dp891
g74
(dp892
sg83
g878
sg76
(lp893
g69
(g70
g71
NtRp894
(dp895
g74
(dp896
g82
I3
ssg83
g890
sg76
(lp897
S''
asbasbasbag69
(g85
g71
NtRp898
(dp899
g74
(dp900
sg83
g834
sg76
(lp901
g69
(g90
g71
NtRp902
(dp903
g74
(dp904
g94
g95
ssg83
g898
sg76
(lp905
g346
asbag69
(g90
g71
NtRp906
(dp907
g74
(dp908
g101
g102
ssg83
g898
sg76
(lp909
S':'
asbag69
(g90
g71
NtRp910
(dp911
g74
(dp912
sg83
g898
sg76
(lp913
g69
(g70
g71
NtRp914
(dp915
g74
(dp916
g82
I3
ssg83
g910
sg76
(lp917
S''
asbasbasbag69
(g85
g71
NtRp918
(dp919
g74
(dp920
sg83
g834
sg76
(lp921
g69
(g90
g71
NtRp922
(dp923
g74
(dp924
g94
g95
ssg83
g918
sg76
(lp925
g367
asbag69
(g90
g71
NtRp926
(dp927
g74
(dp928
g101
g102
ssg83
g918
sg76
(lp929
S':'
asbag69
(g90
g71
NtRp930
(dp931
g74
(dp932
sg83
g918
sg76
(lp933
g69
(g70
g71
NtRp934
(dp935
g74
(dp936
g82
I3
ssg83
g930
sg76
(lp937
S''
asbasbasbag69
(g85
g71
NtRp938
(dp939
g74
(dp940
sg83
g834
sg76
(lp941
g69
(g90
g71
NtRp942
(dp943
g74
(dp944
g94
g95
ssg83
g938
sg76
(lp945
g388
asbag69
(g90
g71
NtRp946
(dp947
g74
(dp948
g101
g102
ssg83
g938
sg76
(lp949
S':'
asbag69
(g90
g71
NtRp950
(dp951
g74
(dp952
sg83
g938
sg76
(lp953
g69
(g70
g71
NtRp954
(dp955
g74
(dp956
g82
I3
ssg83
g950
sg76
(lp957
S''
asbasbasbag69
(g85
g71
NtRp958
(dp959
g74
(dp960
sg83
g834
sg76
(lp961
g69
(g90
g71
NtRp962
(dp963
g74
(dp964
g94
g95
ssg83
g958
sg76
(lp965
g409
asbag69
(g90
g71
NtRp966
(dp967
g74
(dp968
g101
g102
ssg83
g958
sg76
(lp969
S':'
asbag69
(g90
g71
NtRp970
(dp971
g74
(dp972
sg83
g958
sg76
(lp973
g69
(g70
g71
NtRp974
(dp975
g74
(dp976
g82
I3
ssg83
g970
sg76
(lp977
S''
asbasbasbag69
(g85
g71
NtRp978
(dp979
g74
(dp980
sg83
g834
sg76
(lp981
g69
(g90
g71
NtRp982
(dp983
g74
(dp984
g94
g95
ssg83
g978
sg76
(lp985
g430
asbag69
(g90
g71
NtRp986
(dp987
g74
(dp988
g101
g102
ssg83
g978
sg76
(lp989
S':'
asbag69
(g90
g71
NtRp990
(dp991
g74
(dp992
sg83
g978
sg76
(lp993
g69
(g70
g71
NtRp994
(dp995
g74
(dp996
g82
I3
ssg83
g990
sg76
(lp997
S''
asbasbasbasbasbasbasbag69
(g85
g71
NtRp998
(dp999
g74
(dp1000
sg83
g246
sg76
(lp1001
g69
(g90
g71
NtRp1002
(dp1003
g74
(dp1004
g94
g95
ssg83
g998
sg76
(lp1005
S'session_id_randomwords'
p1006
asbag69
(g90
g71
NtRp1007
(dp1008
g74
(dp1009
g101
g102
ssg83
g998
sg76
(lp1010
S':'
asbag69
(g90
g71
NtRp1011
(dp1012
g74
(dp1013
sg83
g998
sg76
(lp1014
g69
(g70
g71
NtRp1015
(dp1016
g74
(dp1017
g82
I4
ssg83
g1011
sg76
(lp1018
g69
(g78
g71
NtRp1019
(dp1020
g74
(dp1021
g82
I3
ssg83
Nsg76
(lp1022
g69
(g85
g71
NtRp1023
(dp1024
g74
(dp1025
sg83
g1019
sg76
(lp1026
g69
(g90
g71
NtRp1027
(dp1028
g74
(dp1029
g94
g95
ssg83
g1023
sg76
(lp1030
g283
asbag69
(g90
g71
NtRp1031
(dp1032
g74
(dp1033
g101
g102
ssg83
g1023
sg76
(lp1034
S':'
asbag69
(g90
g71
NtRp1035
(dp1036
g74
(dp1037
sg83
g1023
sg76
(lp1038
g69
(g70
g71
NtRp1039
(dp1040
g74
(dp1041
g82
I3
ssg83
g1035
sg76
(lp1042
S''
asbasbasbag69
(g85
g71
NtRp1043
(dp1044
g74
(dp1045
sg83
g1019
sg76
(lp1046
g69
(g90
g71
NtRp1047
(dp1048
g74
(dp1049
g94
g95
ssg83
g1043
sg76
(lp1050
g304
asbag69
(g90
g71
NtRp1051
(dp1052
g74
(dp1053
g101
g102
ssg83
g1043
sg76
(lp1054
S':'
asbag69
(g90
g71
NtRp1055
(dp1056
g74
(dp1057
sg83
g1043
sg76
(lp1058
g69
(g70
g71
NtRp1059
(dp1060
g74
(dp1061
g82
I3
ssg83
g1055
sg76
(lp1062
S''
asbasbasbag69
(g85
g71
NtRp1063
(dp1064
g74
(dp1065
sg83
g1019
sg76
(lp1066
g69
(g90
g71
NtRp1067
(dp1068
g74
(dp1069
g94
g95
ssg83
g1063
sg76
(lp1070
g325
asbag69
(g90
g71
NtRp1071
(dp1072
g74
(dp1073
g101
g102
ssg83
g1063
sg76
(lp1074
S':'
asbag69
(g90
g71
NtRp1075
(dp1076
g74
(dp1077
sg83
g1063
sg76
(lp1078
g69
(g70
g71
NtRp1079
(dp1080
g74
(dp1081
g82
I3
ssg83
g1075
sg76
(lp1082
S''
asbasbasbag69
(g85
g71
NtRp1083
(dp1084
g74
(dp1085
sg83
g1019
sg76
(lp1086
g69
(g90
g71
NtRp1087
(dp1088
g74
(dp1089
g94
g95
ssg83
g1083
sg76
(lp1090
g346
asbag69
(g90
g71
NtRp1091
(dp1092
g74
(dp1093
g101
g102
ssg83
g1083
sg76
(lp1094
S':'
asbag69
(g90
g71
NtRp1095
(dp1096
g74
(dp1097
sg83
g1083
sg76
(lp1098
g69
(g70
g71
NtRp1099
(dp1100
g74
(dp1101
g82
I3
ssg83
g1095
sg76
(lp1102
S''
asbasbasbag69
(g85
g71
NtRp1103
(dp1104
g74
(dp1105
sg83
g1019
sg76
(lp1106
g69
(g90
g71
NtRp1107
(dp1108
g74
(dp1109
g94
g95
ssg83
g1103
sg76
(lp1110
g367
asbag69
(g90
g71
NtRp1111
(dp1112
g74
(dp1113
g101
g102
ssg83
g1103
sg76
(lp1114
S':'
asbag69
(g90
g71
NtRp1115
(dp1116
g74
(dp1117
sg83
g1103
sg76
(lp1118
g69
(g70
g71
NtRp1119
(dp1120
g74
(dp1121
g82
I3
ssg83
g1115
sg76
(lp1122
S''
asbasbasbag69
(g85
g71
NtRp1123
(dp1124
g74
(dp1125
sg83
g1019
sg76
(lp1126
g69
(g90
g71
NtRp1127
(dp1128
g74
(dp1129
g94
g95
ssg83
g1123
sg76
(lp1130
g388
asbag69
(g90
g71
NtRp1131
(dp1132
g74
(dp1133
g101
g102
ssg83
g1123
sg76
(lp1134
S':'
asbag69
(g90
g71
NtRp1135
(dp1136
g74
(dp1137
sg83
g1123
sg76
(lp1138
g69
(g70
g71
NtRp1139
(dp1140
g74
(dp1141
g82
I3
ssg83
g1135
sg76
(lp1142
S''
asbasbasbag69
(g85
g71
NtRp1143
(dp1144
g74
(dp1145
sg83
g1019
sg76
(lp1146
g69
(g90
g71
NtRp1147
(dp1148
g74
(dp1149
g94
g95
ssg83
g1143
sg76
(lp1150
g409
asbag69
(g90
g71
NtRp1151
(dp1152
g74
(dp1153
g101
g102
ssg83
g1143
sg76
(lp1154
S':'
asbag69
(g90
g71
NtRp1155
(dp1156
g74
(dp1157
sg83
g1143
sg76
(lp1158
g69
(g70
g71
NtRp1159
(dp1160
g74
(dp1161
g82
I3
ssg83
g1155
sg76
(lp1162
S''
asbasbasbag69
(g85
g71
NtRp1163
(dp1164
g74
(dp1165
sg83
g1019
sg76
(lp1166
g69
(g90
g71
NtRp1167
(dp1168
g74
(dp1169
g94
g95
ssg83
g1163
sg76
(lp1170
g430
asbag69
(g90
g71
NtRp1171
(dp1172
g74
(dp1173
g101
g102
ssg83
g1163
sg76
(lp1174
S':'
asbag69
(g90
g71
NtRp1175
(dp1176
g74
(dp1177
sg83
g1163
sg76
(lp1178
g69
(g70
g71
NtRp1179
(dp1180
g74
(dp1181
g82
I3
ssg83
g1175
sg76
(lp1182
S''
asbasbasbasbasbasbasbag69
(g85
g71
NtRp1183
(dp1184
g74
(dp1185
sg83
g246
sg76
(lp1186
g69
(g90
g71
NtRp1187
(dp1188
g74
(dp1189
g94
g95
ssg83
g1183
sg76
(lp1190
S'session_id_welcome'
p1191
asbag69
(g90
g71
NtRp1192
(dp1193
g74
(dp1194
g101
g102
ssg83
g1183
sg76
(lp1195
S':'
asbag69
(g90
g71
NtRp1196
(dp1197
g74
(dp1198
sg83
g1183
sg76
(lp1199
g69
(g70
g71
NtRp1200
(dp1201
g74
(dp1202
g82
I4
ssg83
g1196
sg76
(lp1203
g69
(g78
g71
NtRp1204
(dp1205
g74
(dp1206
g82
I3
ssg83
Nsg76
(lp1207
g69
(g85
g71
NtRp1208
(dp1209
g74
(dp1210
sg83
g1204
sg76
(lp1211
g69
(g90
g71
NtRp1212
(dp1213
g74
(dp1214
g94
g95
ssg83
g1208
sg76
(lp1215
g283
asbag69
(g90
g71
NtRp1216
(dp1217
g74
(dp1218
g101
g102
ssg83
g1208
sg76
(lp1219
S':'
asbag69
(g90
g71
NtRp1220
(dp1221
g74
(dp1222
sg83
g1208
sg76
(lp1223
g69
(g70
g71
NtRp1224
(dp1225
g74
(dp1226
g82
I3
ssg83
g1220
sg76
(lp1227
S''
asbasbasbag69
(g85
g71
NtRp1228
(dp1229
g74
(dp1230
sg83
g1204
sg76
(lp1231
g69
(g90
g71
NtRp1232
(dp1233
g74
(dp1234
g94
g95
ssg83
g1228
sg76
(lp1235
g304
asbag69
(g90
g71
NtRp1236
(dp1237
g74
(dp1238
g101
g102
ssg83
g1228
sg76
(lp1239
S':'
asbag69
(g90
g71
NtRp1240
(dp1241
g74
(dp1242
sg83
g1228
sg76
(lp1243
g69
(g70
g71
NtRp1244
(dp1245
g74
(dp1246
g82
I3
ssg83
g1240
sg76
(lp1247
S''
asbasbasbag69
(g85
g71
NtRp1248
(dp1249
g74
(dp1250
sg83
g1204
sg76
(lp1251
g69
(g90
g71
NtRp1252
(dp1253
g74
(dp1254
g94
g95
ssg83
g1248
sg76
(lp1255
g325
asbag69
(g90
g71
NtRp1256
(dp1257
g74
(dp1258
g101
g102
ssg83
g1248
sg76
(lp1259
S':'
asbag69
(g90
g71
NtRp1260
(dp1261
g74
(dp1262
sg83
g1248
sg76
(lp1263
g69
(g70
g71
NtRp1264
(dp1265
g74
(dp1266
g82
I3
ssg83
g1260
sg76
(lp1267
S''
asbasbasbag69
(g85
g71
NtRp1268
(dp1269
g74
(dp1270
sg83
g1204
sg76
(lp1271
g69
(g90
g71
NtRp1272
(dp1273
g74
(dp1274
g94
g95
ssg83
g1268
sg76
(lp1275
g346
asbag69
(g90
g71
NtRp1276
(dp1277
g74
(dp1278
g101
g102
ssg83
g1268
sg76
(lp1279
S':'
asbag69
(g90
g71
NtRp1280
(dp1281
g74
(dp1282
sg83
g1268
sg76
(lp1283
g69
(g70
g71
NtRp1284
(dp1285
g74
(dp1286
g82
I3
ssg83
g1280
sg76
(lp1287
S''
asbasbasbag69
(g85
g71
NtRp1288
(dp1289
g74
(dp1290
sg83
g1204
sg76
(lp1291
g69
(g90
g71
NtRp1292
(dp1293
g74
(dp1294
g94
g95
ssg83
g1288
sg76
(lp1295
g367
asbag69
(g90
g71
NtRp1296
(dp1297
g74
(dp1298
g101
g102
ssg83
g1288
sg76
(lp1299
S':'
asbag69
(g90
g71
NtRp1300
(dp1301
g74
(dp1302
sg83
g1288
sg76
(lp1303
g69
(g70
g71
NtRp1304
(dp1305
g74
(dp1306
g82
I3
ssg83
g1300
sg76
(lp1307
S''
asbasbasbag69
(g85
g71
NtRp1308
(dp1309
g74
(dp1310
sg83
g1204
sg76
(lp1311
g69
(g90
g71
NtRp1312
(dp1313
g74
(dp1314
g94
g95
ssg83
g1308
sg76
(lp1315
g388
asbag69
(g90
g71
NtRp1316
(dp1317
g74
(dp1318
g101
g102
ssg83
g1308
sg76
(lp1319
S':'
asbag69
(g90
g71
NtRp1320
(dp1321
g74
(dp1322
sg83
g1308
sg76
(lp1323
g69
(g70
g71
NtRp1324
(dp1325
g74
(dp1326
g82
I3
ssg83
g1320
sg76
(lp1327
S''
asbasbasbag69
(g85
g71
NtRp1328
(dp1329
g74
(dp1330
sg83
g1204
sg76
(lp1331
g69
(g90
g71
NtRp1332
(dp1333
g74
(dp1334
g94
g95
ssg83
g1328
sg76
(lp1335
g409
asbag69
(g90
g71
NtRp1336
(dp1337
g74
(dp1338
g101
g102
ssg83
g1328
sg76
(lp1339
S':'
asbag69
(g90
g71
NtRp1340
(dp1341
g74
(dp1342
sg83
g1328
sg76
(lp1343
g69
(g70
g71
NtRp1344
(dp1345
g74
(dp1346
g82
I3
ssg83
g1340
sg76
(lp1347
S''
asbasbasbag69
(g85
g71
NtRp1348
(dp1349
g74
(dp1350
sg83
g1204
sg76
(lp1351
g69
(g90
g71
NtRp1352
(dp1353
g74
(dp1354
g94
g95
ssg83
g1348
sg76
(lp1355
g430
asbag69
(g90
g71
NtRp1356
(dp1357
g74
(dp1358
g101
g102
ssg83
g1348
sg76
(lp1359
S':'
asbag69
(g90
g71
NtRp1360
(dp1361
g74
(dp1362
sg83
g1348
sg76
(lp1363
g69
(g70
g71
NtRp1364
(dp1365
g74
(dp1366
g82
I3
ssg83
g1360
sg76
(lp1367
S''
asbasbasbasbasbasbasbasbasbasbasbag69
(g85
g71
NtRp1368
(dp1369
g74
(dp1370
sg83
g79
sg76
(lp1371
g69
(g90
g71
NtRp1372
(dp1373
g74
(dp1374
g94
g95
ssg83
g1368
sg76
(lp1375
S'env'
p1376
asbag69
(g90
g71
NtRp1377
(dp1378
g74
(dp1379
g101
g102
ssg83
g1368
sg76
(lp1380
S':'
asbag69
(g90
g71
NtRp1381
(dp1382
g74
(dp1383
sg83
g1368
sg76
(lp1384
g69
(g70
g71
NtRp1385
(dp1386
g74
(dp1387
g82
I5
ssg83
g1381
sg76
(lp1388
g69
(g78
g71
NtRp1389
(dp1390
g74
(dp1391
g82
I4
ssg83
Nsg76
(lp1392
g69
(g85
g71
NtRp1393
(dp1394
g74
(dp1395
sg83
g1389
sg76
(lp1396
g69
(g90
g71
NtRp1397
(dp1398
g74
(dp1399
g94
g95
ssg83
g1393
sg76
(lp1400
S'app_folders'
p1401
asbag69
(g90
g71
NtRp1402
(dp1403
g74
(dp1404
g101
g102
ssg83
g1393
sg76
(lp1405
S':'
asbag69
(g90
g71
NtRp1406
(dp1407
g74
(dp1408
sg83
g1393
sg76
(lp1409
g69
(g70
g71
NtRp1410
(dp1411
g74
(dp1412
g82
I4
ssg83
g1406
sg76
(lp1413
S"set(['/Users/emir/Documents/beardcode/web2py/applications/randomwords/', '/Users/emir/Documents/beardcode/web2py/applications/admin/', '/Users/emir/Documents/beardcode/web2py/applications/fayol/'])"
p1414
asbasbasbag69
(g85
g71
NtRp1415
(dp1416
g74
(dp1417
sg83
g1389
sg76
(lp1418
g69
(g90
g71
NtRp1419
(dp1420
g74
(dp1421
g94
g95
ssg83
g1415
sg76
(lp1422
S'applications_parent'
p1423
asbag69
(g90
g71
NtRp1424
(dp1425
g74
(dp1426
g101
g102
ssg83
g1415
sg76
(lp1427
S':'
asbag69
(g90
g71
NtRp1428
(dp1429
g74
(dp1430
sg83
g1415
sg76
(lp1431
g69
(g70
g71
NtRp1432
(dp1433
g74
(dp1434
g82
I4
ssg83
g1428
sg76
(lp1435
S'/Users/emir/Documents/beardcode/web2py'
p1436
asbasbasbag69
(g85
g71
NtRp1437
(dp1438
g74
(dp1439
sg83
g1389
sg76
(lp1440
g69
(g90
g71
NtRp1441
(dp1442
g74
(dp1443
g94
g95
ssg83
g1437
sg76
(lp1444
S'db_sessions'
p1445
asbag69
(g90
g71
NtRp1446
(dp1447
g74
(dp1448
g101
g102
ssg83
g1437
sg76
(lp1449
S':'
asbag69
(g90
g71
NtRp1450
(dp1451
g74
(dp1452
sg83
g1437
sg76
(lp1453
g69
(g70
g71
NtRp1454
(dp1455
g74
(dp1456
g82
I4
ssg83
g1450
sg76
(lp1457
S'set([])'
p1458
asbasbasbag69
(g85
g71
NtRp1459
(dp1460
g74
(dp1461
sg83
g1389
sg76
(lp1462
g69
(g90
g71
NtRp1463
(dp1464
g74
(dp1465
g94
g95
ssg83
g1459
sg76
(lp1466
S'debugging'
p1467
asbag69
(g90
g71
NtRp1468
(dp1469
g74
(dp1470
g101
g102
ssg83
g1459
sg76
(lp1471
S':'
asbag69
(g90
g71
NtRp1472
(dp1473
g74
(dp1474
sg83
g1459
sg76
(lp1475
g69
(g70
g71
NtRp1476
(dp1477
g74
(dp1478
g82
I4
ssg83
g1472
sg76
(lp1479
g112
asbasbasbag69
(g85
g71
NtRp1480
(dp1481
g74
(dp1482
sg83
g1389
sg76
(lp1483
g69
(g90
g71
NtRp1484
(dp1485
g74
(dp1486
g94
g95
ssg83
g1480
sg76
(lp1487
S'document_root'
p1488
asbag69
(g90
g71
NtRp1489
(dp1490
g74
(dp1491
g101
g102
ssg83
g1480
sg76
(lp1492
S':'
asbag69
(g90
g71
NtRp1493
(dp1494
g74
(dp1495
sg83
g1480
sg76
(lp1496
g69
(g70
g71
NtRp1497
(dp1498
g74
(dp1499
g82
I4
ssg83
g1493
sg76
(lp1500
S'/Library/WebServer/Documents'
p1501
asbasbasbag69
(g85
g71
NtRp1502
(dp1503
g74
(dp1504
sg83
g1389
sg76
(lp1505
g69
(g90
g71
NtRp1506
(dp1507
g74
(dp1508
g94
g95
ssg83
g1502
sg76
(lp1509
S'gateway_interface'
p1510
asbag69
(g90
g71
NtRp1511
(dp1512
g74
(dp1513
g101
g102
ssg83
g1502
sg76
(lp1514
S':'
asbag69
(g90
g71
NtRp1515
(dp1516
g74
(dp1517
sg83
g1502
sg76
(lp1518
g69
(g70
g71
NtRp1519
(dp1520
g74
(dp1521
g82
I4
ssg83
g1515
sg76
(lp1522
S'CGI/1.1'
p1523
asbasbasbag69
(g85
g71
NtRp1524
(dp1525
g74
(dp1526
sg83
g1389
sg76
(lp1527
g69
(g90
g71
NtRp1528
(dp1529
g74
(dp1530
g94
g95
ssg83
g1524
sg76
(lp1531
S'gluon_parent'
p1532
asbag69
(g90
g71
NtRp1533
(dp1534
g74
(dp1535
g101
g102
ssg83
g1524
sg76
(lp1536
S':'
asbag69
(g90
g71
NtRp1537
(dp1538
g74
(dp1539
sg83
g1524
sg76
(lp1540
g69
(g70
g71
NtRp1541
(dp1542
g74
(dp1543
g82
I4
ssg83
g1537
sg76
(lp1544
g1436
asbasbasbag69
(g85
g71
NtRp1545
(dp1546
g74
(dp1547
sg83
g1389
sg76
(lp1548
g69
(g90
g71
NtRp1549
(dp1550
g74
(dp1551
g94
g95
ssg83
g1545
sg76
(lp1552
S'http_accept'
p1553
asbag69
(g90
g71
NtRp1554
(dp1555
g74
(dp1556
g101
g102
ssg83
g1545
sg76
(lp1557
S':'
asbag69
(g90
g71
NtRp1558
(dp1559
g74
(dp1560
sg83
g1545
sg76
(lp1561
g69
(g70
g71
NtRp1562
(dp1563
g74
(dp1564
g82
I4
ssg83
g1558
sg76
(lp1565
S'text/html,application/xhtml+xml,application/xml;q=0.9,*/*;q=0.8'
p1566
asbasbasbag69
(g85
g71
NtRp1567
(dp1568
g74
(dp1569
sg83
g1389
sg76
(lp1570
g69
(g90
g71
NtRp1571
(dp1572
g74
(dp1573
g94
g95
ssg83
g1567
sg76
(lp1574
S'http_accept_charset'
p1575
asbag69
(g90
g71
NtRp1576
(dp1577
g74
(dp1578
g101
g102
ssg83
g1567
sg76
(lp1579
S':'
asbag69
(g90
g71
NtRp1580
(dp1581
g74
(dp1582
sg83
g1567
sg76
(lp1583
g69
(g70
g71
NtRp1584
(dp1585
g74
(dp1586
g82
I4
ssg83
g1580
sg76
(lp1587
S'ISO-8859-1,utf-8;q=0.7,*;q=0.3'
p1588
asbasbasbag69
(g85
g71
NtRp1589
(dp1590
g74
(dp1591
sg83
g1389
sg76
(lp1592
g69
(g90
g71
NtRp1593
(dp1594
g74
(dp1595
g94
g95
ssg83
g1589
sg76
(lp1596
S'http_accept_encoding'
p1597
asbag69
(g90
g71
NtRp1598
(dp1599
g74
(dp1600
g101
g102
ssg83
g1589
sg76
(lp1601
S':'
asbag69
(g90
g71
NtRp1602
(dp1603
g74
(dp1604
sg83
g1589
sg76
(lp1605
g69
(g70
g71
NtRp1606
(dp1607
g74
(dp1608
g82
I4
ssg83
g1602
sg76
(lp1609
S'gzip,deflate,sdch'
p1610
asbasbasbag69
(g85
g71
NtRp1611
(dp1612
g74
(dp1613
sg83
g1389
sg76
(lp1614
g69
(g90
g71
NtRp1615
(dp1616
g74
(dp1617
g94
g95
ssg83
g1611
sg76
(lp1618
S'http_accept_language'
p1619
asbag69
(g90
g71
NtRp1620
(dp1621
g74
(dp1622
g101
g102
ssg83
g1611
sg76
(lp1623
S':'
asbag69
(g90
g71
NtRp1624
(dp1625
g74
(dp1626
sg83
g1611
sg76
(lp1627
g69
(g70
g71
NtRp1628
(dp1629
g74
(dp1630
g82
I4
ssg83
g1624
sg76
(lp1631
S'es-ES,es;q=0.8'
p1632
asbasbasbag69
(g85
g71
NtRp1633
(dp1634
g74
(dp1635
sg83
g1389
sg76
(lp1636
g69
(g90
g71
NtRp1637
(dp1638
g74
(dp1639
g94
g95
ssg83
g1633
sg76
(lp1640
S'http_cache_control'
p1641
asbag69
(g90
g71
NtRp1642
(dp1643
g74
(dp1644
g101
g102
ssg83
g1633
sg76
(lp1645
S':'
asbag69
(g90
g71
NtRp1646
(dp1647
g74
(dp1648
sg83
g1633
sg76
(lp1649
g69
(g70
g71
NtRp1650
(dp1651
g74
(dp1652
g82
I4
ssg83
g1646
sg76
(lp1653
S'max-age=0'
p1654
asbasbasbag69
(g85
g71
NtRp1655
(dp1656
g74
(dp1657
sg83
g1389
sg76
(lp1658
g69
(g90
g71
NtRp1659
(dp1660
g74
(dp1661
g94
g95
ssg83
g1655
sg76
(lp1662
S'http_connection'
p1663
asbag69
(g90
g71
NtRp1664
(dp1665
g74
(dp1666
g101
g102
ssg83
g1655
sg76
(lp1667
S':'
asbag69
(g90
g71
NtRp1668
(dp1669
g74
(dp1670
sg83
g1655
sg76
(lp1671
g69
(g70
g71
NtRp1672
(dp1673
g74
(dp1674
g82
I4
ssg83
g1668
sg76
(lp1675
S'keep-alive'
p1676
asbasbasbag69
(g85
g71
NtRp1677
(dp1678
g74
(dp1679
sg83
g1389
sg76
(lp1680
g69
(g90
g71
NtRp1681
(dp1682
g74
(dp1683
g94
g95
ssg83
g1677
sg76
(lp1684
S'http_cookie'
p1685
asbag69
(g90
g71
NtRp1686
(dp1687
g74
(dp1688
g101
g102
ssg83
g1677
sg76
(lp1689
S':'
asbag69
(g90
g71
NtRp1690
(dp1691
g74
(dp1692
sg83
g1677
sg76
(lp1693
g69
(g70
g71
NtRp1694
(dp1695
g74
(dp1696
g82
I4
ssg83
g1690
sg76
(lp1697
S'session_id_contador=127.0.0.1-2b69a554-5d73-450d-a1a3-2f7111772fbb; session_id_nombres=127.0.0.1-84743359-6fda-477d-8d9d-bdd73eec2878; session_id_randomwords=127.0.0.1-5b6c85d6-c0b7-4009-b803-334737663b75; session_id_admin=127.0.0.1-eb1bfc92-b1d7-40f5-bac2-0727bba915fa; session_id_welcome=127.0.0.1-26ca6cd3-84d7-4753-ad50-3b7ae1bcfc78; session_id_fayol=127.0.0.1-3d956b05-424d-45c0-aa40-afea21425a24'
p1698
asbasbasbag69
(g85
g71
NtRp1699
(dp1700
g74
(dp1701
sg83
g1389
sg76
(lp1702
g69
(g90
g71
NtRp1703
(dp1704
g74
(dp1705
g94
g95
ssg83
g1699
sg76
(lp1706
S'http_host'
p1707
asbag69
(g90
g71
NtRp1708
(dp1709
g74
(dp1710
g101
g102
ssg83
g1699
sg76
(lp1711
S':'
asbag69
(g90
g71
NtRp1712
(dp1713
g74
(dp1714
sg83
g1699
sg76
(lp1715
g69
(g70
g71
NtRp1716
(dp1717
g74
(dp1718
g82
I4
ssg83
g1712
sg76
(lp1719
S'web2py'
p1720
asbasbasbag69
(g85
g71
NtRp1721
(dp1722
g74
(dp1723
sg83
g1389
sg76
(lp1724
g69
(g90
g71
NtRp1725
(dp1726
g74
(dp1727
g94
g95
ssg83
g1721
sg76
(lp1728
S'http_user_agent'
p1729
asbag69
(g90
g71
NtRp1730
(dp1731
g74
(dp1732
g101
g102
ssg83
g1721
sg76
(lp1733
S':'
asbag69
(g90
g71
NtRp1734
(dp1735
g74
(dp1736
sg83
g1721
sg76
(lp1737
g69
(g70
g71
NtRp1738
(dp1739
g74
(dp1740
g82
I4
ssg83
g1734
sg76
(lp1741
S'Mozilla/5.0 (Macintosh; Intel Mac OS X 10_8_0) AppleWebKit/537.1 (KHTML, like Gecko) Chrome/21.0.1180.77 Safari/537.1'
p1742
asbasbasbag69
(g85
g71
NtRp1743
(dp1744
g74
(dp1745
sg83
g1389
sg76
(lp1746
g69
(g90
g71
NtRp1747
(dp1748
g74
(dp1749
g94
g95
ssg83
g1743
sg76
(lp1750
S'is_jython'
p1751
asbag69
(g90
g71
NtRp1752
(dp1753
g74
(dp1754
g101
g102
ssg83
g1743
sg76
(lp1755
S':'
asbag69
(g90
g71
NtRp1756
(dp1757
g74
(dp1758
sg83
g1743
sg76
(lp1759
g69
(g70
g71
NtRp1760
(dp1761
g74
(dp1762
g82
I4
ssg83
g1756
sg76
(lp1763
g112
asbasbasbag69
(g85
g71
NtRp1764
(dp1765
g74
(dp1766
sg83
g1389
sg76
(lp1767
g69
(g90
g71
NtRp1768
(dp1769
g74
(dp1770
g94
g95
ssg83
g1764
sg76
(lp1771
S'is_pypy'
p1772
asbag69
(g90
g71
NtRp1773
(dp1774
g74
(dp1775
g101
g102
ssg83
g1764
sg76
(lp1776
S':'
asbag69
(g90
g71
NtRp1777
(dp1778
g74
(dp1779
sg83
g1764
sg76
(lp1780
g69
(g70
g71
NtRp1781
(dp1782
g74
(dp1783
g82
I4
ssg83
g1777
sg76
(lp1784
g112
asbasbasbag69
(g85
g71
NtRp1785
(dp1786
g74
(dp1787
sg83
g1389
sg76
(lp1788
g69
(g90
g71
NtRp1789
(dp1790
g74
(dp1791
g94
g95
ssg83
g1785
sg76
(lp1792
S'mod_wsgi_application_group'
p1793
asbag69
(g90
g71
NtRp1794
(dp1795
g74
(dp1796
g101
g102
ssg83
g1785
sg76
(lp1797
S':'
asbag69
(g90
g71
NtRp1798
(dp1799
g74
(dp1800
sg83
g1785
sg76
(lp1801
g69
(g70
g71
NtRp1802
(dp1803
g74
(dp1804
g82
I4
ssg83
g1798
sg76
(lp1805
S'web2py|'
p1806
asbasbasbag69
(g85
g71
NtRp1807
(dp1808
g74
(dp1809
sg83
g1389
sg76
(lp1810
g69
(g90
g71
NtRp1811
(dp1812
g74
(dp1813
g94
g95
ssg83
g1807
sg76
(lp1814
S'mod_wsgi_callable_object'
p1815
asbag69
(g90
g71
NtRp1816
(dp1817
g74
(dp1818
g101
g102
ssg83
g1807
sg76
(lp1819
S':'
asbag69
(g90
g71
NtRp1820
(dp1821
g74
(dp1822
sg83
g1807
sg76
(lp1823
g69
(g70
g71
NtRp1824
(dp1825
g74
(dp1826
g82
I4
ssg83
g1820
sg76
(lp1827
S'application'
p1828
asbasbasbag69
(g85
g71
NtRp1829
(dp1830
g74
(dp1831
sg83
g1389
sg76
(lp1832
g69
(g90
g71
NtRp1833
(dp1834
g74
(dp1835
g94
g95
ssg83
g1829
sg76
(lp1836
S'mod_wsgi_handler_script'
p1837
asbag69
(g90
g71
NtRp1838
(dp1839
g74
(dp1840
g101
g102
ssg83
g1829
sg76
(lp1841
S':'
asbag69
(g90
g71
NtRp1842
(dp1843
g74
(dp1844
sg83
g1829
sg76
(lp1845
g69
(g70
g71
NtRp1846
(dp1847
g74
(dp1848
g82
I4
ssg83
g1842
sg76
(lp1849
S''
asbasbasbag69
(g85
g71
NtRp1850
(dp1851
g74
(dp1852
sg83
g1389
sg76
(lp1853
g69
(g90
g71
NtRp1854
(dp1855
g74
(dp1856
g94
g95
ssg83
g1850
sg76
(lp1857
S'mod_wsgi_input_chunked'
p1858
asbag69
(g90
g71
NtRp1859
(dp1860
g74
(dp1861
g101
g102
ssg83
g1850
sg76
(lp1862
S':'
asbag69
(g90
g71
NtRp1863
(dp1864
g74
(dp1865
sg83
g1850
sg76
(lp1866
g69
(g70
g71
NtRp1867
(dp1868
g74
(dp1869
g82
I4
ssg83
g1863
sg76
(lp1870
S'0'
asbasbasbag69
(g85
g71
NtRp1871
(dp1872
g74
(dp1873
sg83
g1389
sg76
(lp1874
g69
(g90
g71
NtRp1875
(dp1876
g74
(dp1877
g94
g95
ssg83
g1871
sg76
(lp1878
S'mod_wsgi_listener_host'
p1879
asbag69
(g90
g71
NtRp1880
(dp1881
g74
(dp1882
g101
g102
ssg83
g1871
sg76
(lp1883
S':'
asbag69
(g90
g71
NtRp1884
(dp1885
g74
(dp1886
sg83
g1871
sg76
(lp1887
g69
(g70
g71
NtRp1888
(dp1889
g74
(dp1890
g82
I4
ssg83
g1884
sg76
(lp1891
S''
asbasbasbag69
(g85
g71
NtRp1892
(dp1893
g74
(dp1894
sg83
g1389
sg76
(lp1895
g69
(g90
g71
NtRp1896
(dp1897
g74
(dp1898
g94
g95
ssg83
g1892
sg76
(lp1899
S'mod_wsgi_listener_port'
p1900
asbag69
(g90
g71
NtRp1901
(dp1902
g74
(dp1903
g101
g102
ssg83
g1892
sg76
(lp1904
S':'
asbag69
(g90
g71
NtRp1905
(dp1906
g74
(dp1907
sg83
g1892
sg76
(lp1908
g69
(g70
g71
NtRp1909
(dp1910
g74
(dp1911
g82
I4
ssg83
g1905
sg76
(lp1912
S'80'
p1913
asbasbasbag69
(g85
g71
NtRp1914
(dp1915
g74
(dp1916
sg83
g1389
sg76
(lp1917
g69
(g90
g71
NtRp1918
(dp1919
g74
(dp1920
g94
g95
ssg83
g1914
sg76
(lp1921
S'mod_wsgi_process_group'
p1922
asbag69
(g90
g71
NtRp1923
(dp1924
g74
(dp1925
g101
g102
ssg83
g1914
sg76
(lp1926
S':'
asbag69
(g90
g71
NtRp1927
(dp1928
g74
(dp1929
sg83
g1914
sg76
(lp1930
g69
(g70
g71
NtRp1931
(dp1932
g74
(dp1933
g82
I4
ssg83
g1927
sg76
(lp1934
S''
asbasbasbag69
(g85
g71
NtRp1935
(dp1936
g74
(dp1937
sg83
g1389
sg76
(lp1938
g69
(g90
g71
NtRp1939
(dp1940
g74
(dp1941
g94
g95
ssg83
g1935
sg76
(lp1942
S'mod_wsgi_request_handler'
p1943
asbag69
(g90
g71
NtRp1944
(dp1945
g74
(dp1946
g101
g102
ssg83
g1935
sg76
(lp1947
S':'
asbag69
(g90
g71
NtRp1948
(dp1949
g74
(dp1950
sg83
g1935
sg76
(lp1951
g69
(g70
g71
NtRp1952
(dp1953
g74
(dp1954
g82
I4
ssg83
g1948
sg76
(lp1955
S'wsgi-script'
p1956
asbasbasbag69
(g85
g71
NtRp1957
(dp1958
g74
(dp1959
sg83
g1389
sg76
(lp1960
g69
(g90
g71
NtRp1961
(dp1962
g74
(dp1963
g94
g95
ssg83
g1957
sg76
(lp1964
S'mod_wsgi_script_reloading'
p1965
asbag69
(g90
g71
NtRp1966
(dp1967
g74
(dp1968
g101
g102
ssg83
g1957
sg76
(lp1969
S':'
asbag69
(g90
g71
NtRp1970
(dp1971
g74
(dp1972
sg83
g1957
sg76
(lp1973
g69
(g70
g71
NtRp1974
(dp1975
g74
(dp1976
g82
I4
ssg83
g1970
sg76
(lp1977
S'1'
asbasbasbag69
(g85
g71
NtRp1978
(dp1979
g74
(dp1980
sg83
g1389
sg76
(lp1981
g69
(g90
g71
NtRp1982
(dp1983
g74
(dp1984
g94
g95
ssg83
g1978
sg76
(lp1985
S'mod_wsgi_version'
p1986
asbag69
(g90
g71
NtRp1987
(dp1988
g74
(dp1989
g101
g102
ssg83
g1978
sg76
(lp1990
S':'
asbag69
(g90
g71
NtRp1991
(dp1992
g74
(dp1993
sg83
g1978
sg76
(lp1994
g69
(g70
g71
NtRp1995
(dp1996
g74
(dp1997
g82
I4
ssg83
g1991
sg76
(lp1998
g69
(g78
g71
NtRp1999
(dp2000
g74
(dp2001
g82
I3
ssg83
Nsg76
(lp2002
g69
(g85
g71
NtRp2003
(dp2004
g74
(dp2005
sg83
g1999
sg76
(lp2006
g69
(g90
g71
NtRp2007
(dp2008
g74
(dp2009
sg83
g2003
sg76
(lp2010
g69
(g70
g71
NtRp2011
(dp2012
g74
(dp2013
g82
I3
ssg83
g2007
sg76
(lp2014
S'3'
asbasbasbag69
(g85
g71
NtRp2015
(dp2016
g74
(dp2017
sg83
g1999
sg76
(lp2018
g69
(g90
g71
NtRp2019
(dp2020
g74
(dp2021
sg83
g2015
sg76
(lp2022
g69
(g70
g71
NtRp2023
(dp2024
g74
(dp2025
g82
I3
ssg83
g2019
sg76
(lp2026
S'3'
asbasbasbasbasbasbasbag69
(g85
g71
NtRp2027
(dp2028
g74
(dp2029
sg83
g1389
sg76
(lp2030
g69
(g90
g71
NtRp2031
(dp2032
g74
(dp2033
g94
g95
ssg83
g2027
sg76
(lp2034
S'path_info'
p2035
asbag69
(g90
g71
NtRp2036
(dp2037
g74
(dp2038
g101
g102
ssg83
g2027
sg76
(lp2039
S':'
asbag69
(g90
g71
NtRp2040
(dp2041
g74
(dp2042
sg83
g2027
sg76
(lp2043
g69
(g70
g71
NtRp2044
(dp2045
g74
(dp2046
g82
I4
ssg83
g2040
sg76
(lp2047
S'/fayol'
p2048
asbasbasbag69
(g85
g71
NtRp2049
(dp2050
g74
(dp2051
sg83
g1389
sg76
(lp2052
g69
(g90
g71
NtRp2053
(dp2054
g74
(dp2055
g94
g95
ssg83
g2049
sg76
(lp2056
S'path_translated'
p2057
asbag69
(g90
g71
NtRp2058
(dp2059
g74
(dp2060
g101
g102
ssg83
g2049
sg76
(lp2061
S':'
asbag69
(g90
g71
NtRp2062
(dp2063
g74
(dp2064
sg83
g2049
sg76
(lp2065
g69
(g70
g71
NtRp2066
(dp2067
g74
(dp2068
g82
I4
ssg83
g2062
sg76
(lp2069
S'/Users/emir/Documents/beardcode/web2py/wsgihandler.py/fayol'
p2070
asbasbasbag69
(g85
g71
NtRp2071
(dp2072
g74
(dp2073
sg83
g1389
sg76
(lp2074
g69
(g90
g71
NtRp2075
(dp2076
g74
(dp2077
g94
g95
ssg83
g2071
sg76
(lp2078
S'query_string'
p2079
asbag69
(g90
g71
NtRp2080
(dp2081
g74
(dp2082
g101
g102
ssg83
g2071
sg76
(lp2083
S':'
asbag69
(g90
g71
NtRp2084
(dp2085
g74
(dp2086
sg83
g2071
sg76
(lp2087
g69
(g70
g71
NtRp2088
(dp2089
g74
(dp2090
g82
I4
ssg83
g2084
sg76
(lp2091
S''
asbasbasbag69
(g85
g71
NtRp2092
(dp2093
g74
(dp2094
sg83
g1389
sg76
(lp2095
g69
(g90
g71
NtRp2096
(dp2097
g74
(dp2098
g94
g95
ssg83
g2092
sg76
(lp2099
S'remote_addr'
p2100
asbag69
(g90
g71
NtRp2101
(dp2102
g74
(dp2103
g101
g102
ssg83
g2092
sg76
(lp2104
S':'
asbag69
(g90
g71
NtRp2105
(dp2106
g74
(dp2107
sg83
g2092
sg76
(lp2108
g69
(g70
g71
NtRp2109
(dp2110
g74
(dp2111
g82
I4
ssg83
g2105
sg76
(lp2112
g202
asbasbasbag69
(g85
g71
NtRp2113
(dp2114
g74
(dp2115
sg83
g1389
sg76
(lp2116
g69
(g90
g71
NtRp2117
(dp2118
g74
(dp2119
g94
g95
ssg83
g2113
sg76
(lp2120
S'remote_port'
p2121
asbag69
(g90
g71
NtRp2122
(dp2123
g74
(dp2124
g101
g102
ssg83
g2113
sg76
(lp2125
S':'
asbag69
(g90
g71
NtRp2126
(dp2127
g74
(dp2128
sg83
g2113
sg76
(lp2129
g69
(g70
g71
NtRp2130
(dp2131
g74
(dp2132
g82
I4
ssg83
g2126
sg76
(lp2133
S'65112'
p2134
asbasbasbag69
(g85
g71
NtRp2135
(dp2136
g74
(dp2137
sg83
g1389
sg76
(lp2138
g69
(g90
g71
NtRp2139
(dp2140
g74
(dp2141
g94
g95
ssg83
g2135
sg76
(lp2142
S'request_method'
p2143
asbag69
(g90
g71
NtRp2144
(dp2145
g74
(dp2146
g101
g102
ssg83
g2135
sg76
(lp2147
S':'
asbag69
(g90
g71
NtRp2148
(dp2149
g74
(dp2150
sg83
g2135
sg76
(lp2151
g69
(g70
g71
NtRp2152
(dp2153
g74
(dp2154
g82
I4
ssg83
g2148
sg76
(lp2155
S'GET'
p2156
asbasbasbag69
(g85
g71
NtRp2157
(dp2158
g74
(dp2159
sg83
g1389
sg76
(lp2160
g69
(g90
g71
NtRp2161
(dp2162
g74
(dp2163
g94
g95
ssg83
g2157
sg76
(lp2164
S'request_uri'
p2165
asbag69
(g90
g71
NtRp2166
(dp2167
g74
(dp2168
g101
g102
ssg83
g2157
sg76
(lp2169
S':'
asbag69
(g90
g71
NtRp2170
(dp2171
g74
(dp2172
sg83
g2157
sg76
(lp2173
g69
(g70
g71
NtRp2174
(dp2175
g74
(dp2176
g82
I4
ssg83
g2170
sg76
(lp2177
S'/fayol'
p2178
asbasbasbag69
(g85
g71
NtRp2179
(dp2180
g74
(dp2181
sg83
g1389
sg76
(lp2182
g69
(g90
g71
NtRp2183
(dp2184
g74
(dp2185
g94
g95
ssg83
g2179
sg76
(lp2186
S'script_filename'
p2187
asbag69
(g90
g71
NtRp2188
(dp2189
g74
(dp2190
g101
g102
ssg83
g2179
sg76
(lp2191
S':'
asbag69
(g90
g71
NtRp2192
(dp2193
g74
(dp2194
sg83
g2179
sg76
(lp2195
g69
(g70
g71
NtRp2196
(dp2197
g74
(dp2198
g82
I4
ssg83
g2192
sg76
(lp2199
S'/Users/emir/Documents/beardcode/web2py/wsgihandler.py'
p2200
asbasbasbag69
(g85
g71
NtRp2201
(dp2202
g74
(dp2203
sg83
g1389
sg76
(lp2204
g69
(g90
g71
NtRp2205
(dp2206
g74
(dp2207
g94
g95
ssg83
g2201
sg76
(lp2208
S'script_name'
p2209
asbag69
(g90
g71
NtRp2210
(dp2211
g74
(dp2212
g101
g102
ssg83
g2201
sg76
(lp2213
S':'
asbag69
(g90
g71
NtRp2214
(dp2215
g74
(dp2216
sg83
g2201
sg76
(lp2217
g69
(g70
g71
NtRp2218
(dp2219
g74
(dp2220
g82
I4
ssg83
g2214
sg76
(lp2221
S''
asbasbasbag69
(g85
g71
NtRp2222
(dp2223
g74
(dp2224
sg83
g1389
sg76
(lp2225
g69
(g90
g71
NtRp2226
(dp2227
g74
(dp2228
g94
g95
ssg83
g2222
sg76
(lp2229
S'server_addr'
p2230
asbag69
(g90
g71
NtRp2231
(dp2232
g74
(dp2233
g101
g102
ssg83
g2222
sg76
(lp2234
S':'
asbag69
(g90
g71
NtRp2235
(dp2236
g74
(dp2237
sg83
g2222
sg76
(lp2238
g69
(g70
g71
NtRp2239
(dp2240
g74
(dp2241
g82
I4
ssg83
g2235
sg76
(lp2242
S'127.0.0.1'
p2243
asbasbasbag69
(g85
g71
NtRp2244
(dp2245
g74
(dp2246
sg83
g1389
sg76
(lp2247
g69
(g90
g71
NtRp2248
(dp2249
g74
(dp2250
g94
g95
ssg83
g2244
sg76
(lp2251
S'server_admin'
p2252
asbag69
(g90
g71
NtRp2253
(dp2254
g74
(dp2255
g101
g102
ssg83
g2244
sg76
(lp2256
S':'
asbag69
(g90
g71
NtRp2257
(dp2258
g74
(dp2259
sg83
g2244
sg76
(lp2260
g69
(g70
g71
NtRp2261
(dp2262
g74
(dp2263
g82
I4
ssg83
g2257
sg76
(lp2264
S'you@example.com'
p2265
asbasbasbag69
(g85
g71
NtRp2266
(dp2267
g74
(dp2268
sg83
g1389
sg76
(lp2269
g69
(g90
g71
NtRp2270
(dp2271
g74
(dp2272
g94
g95
ssg83
g2266
sg76
(lp2273
S'server_name'
p2274
asbag69
(g90
g71
NtRp2275
(dp2276
g74
(dp2277
g101
g102
ssg83
g2266
sg76
(lp2278
S':'
asbag69
(g90
g71
NtRp2279
(dp2280
g74
(dp2281
sg83
g2266
sg76
(lp2282
g69
(g70
g71
NtRp2283
(dp2284
g74
(dp2285
g82
I4
ssg83
g2279
sg76
(lp2286
S'web2py'
p2287
asbasbasbag69
(g85
g71
NtRp2288
(dp2289
g74
(dp2290
sg83
g1389
sg76
(lp2291
g69
(g90
g71
NtRp2292
(dp2293
g74
(dp2294
g94
g95
ssg83
g2288
sg76
(lp2295
S'server_port'
p2296
asbag69
(g90
g71
NtRp2297
(dp2298
g74
(dp2299
g101
g102
ssg83
g2288
sg76
(lp2300
S':'
asbag69
(g90
g71
NtRp2301
(dp2302
g74
(dp2303
sg83
g2288
sg76
(lp2304
g69
(g70
g71
NtRp2305
(dp2306
g74
(dp2307
g82
I4
ssg83
g2301
sg76
(lp2308
S'80'
p2309
asbasbasbag69
(g85
g71
NtRp2310
(dp2311
g74
(dp2312
sg83
g1389
sg76
(lp2313
g69
(g90
g71
NtRp2314
(dp2315
g74
(dp2316
g94
g95
ssg83
g2310
sg76
(lp2317
S'server_protocol'
p2318
asbag69
(g90
g71
NtRp2319
(dp2320
g74
(dp2321
g101
g102
ssg83
g2310
sg76
(lp2322
S':'
asbag69
(g90
g71
NtRp2323
(dp2324
g74
(dp2325
sg83
g2310
sg76
(lp2326
g69
(g70
g71
NtRp2327
(dp2328
g74
(dp2329
g82
I4
ssg83
g2323
sg76
(lp2330
S'HTTP/1.1'
p2331
asbasbasbag69
(g85
g71
NtRp2332
(dp2333
g74
(dp2334
sg83
g1389
sg76
(lp2335
g69
(g90
g71
NtRp2336
(dp2337
g74
(dp2338
g94
g95
ssg83
g2332
sg76
(lp2339
S'server_signature'
p2340
asbag69
(g90
g71
NtRp2341
(dp2342
g74
(dp2343
g101
g102
ssg83
g2332
sg76
(lp2344
S':'
asbag69
(g90
g71
NtRp2345
(dp2346
g74
(dp2347
sg83
g2332
sg76
(lp2348
g69
(g70
g71
NtRp2349
(dp2350
g74
(dp2351
g82
I4
ssg83
g2345
sg76
(lp2352
S''
asbasbasbag69
(g85
g71
NtRp2353
(dp2354
g74
(dp2355
sg83
g1389
sg76
(lp2356
g69
(g90
g71
NtRp2357
(dp2358
g74
(dp2359
g94
g95
ssg83
g2353
sg76
(lp2360
S'server_software'
p2361
asbag69
(g90
g71
NtRp2362
(dp2363
g74
(dp2364
g101
g102
ssg83
g2353
sg76
(lp2365
S':'
asbag69
(g90
g71
NtRp2366
(dp2367
g74
(dp2368
sg83
g2353
sg76
(lp2369
g69
(g70
g71
NtRp2370
(dp2371
g74
(dp2372
g82
I4
ssg83
g2366
sg76
(lp2373
S'Apache/2.2.22 (Unix) DAV/2 mod_wsgi/3.3 Python/2.6.7 PHP/5.3.13 with Suhosin-Patch mod_ssl/2.2.22 OpenSSL/0.9.8r'
p2374
asbasbasbag69
(g85
g71
NtRp2375
(dp2376
g74
(dp2377
sg83
g1389
sg76
(lp2378
g69
(g90
g71
NtRp2379
(dp2380
g74
(dp2381
g94
g95
ssg83
g2375
sg76
(lp2382
S'web2py_path'
p2383
asbag69
(g90
g71
NtRp2384
(dp2385
g74
(dp2386
g101
g102
ssg83
g2375
sg76
(lp2387
S':'
asbag69
(g90
g71
NtRp2388
(dp2389
g74
(dp2390
sg83
g2375
sg76
(lp2391
g69
(g70
g71
NtRp2392
(dp2393
g74
(dp2394
g82
I4
ssg83
g2388
sg76
(lp2395
g1436
asbasbasbag69
(g85
g71
NtRp2396
(dp2397
g74
(dp2398
sg83
g1389
sg76
(lp2399
g69
(g90
g71
NtRp2400
(dp2401
g74
(dp2402
g94
g95
ssg83
g2396
sg76
(lp2403
S'web2py_version'
p2404
asbag69
(g90
g71
NtRp2405
(dp2406
g74
(dp2407
g101
g102
ssg83
g2396
sg76
(lp2408
S':'
asbag69
(g90
g71
NtRp2409
(dp2410
g74
(dp2411
sg83
g2396
sg76
(lp2412
g69
(g70
g71
NtRp2413
(dp2414
g74
(dp2415
g82
I4
ssg83
g2409
sg76
(lp2416
g69
(g78
g71
NtRp2417
(dp2418
g74
(dp2419
g82
I3
ssg83
Nsg76
(lp2420
g69
(g85
g71
NtRp2421
(dp2422
g74
(dp2423
sg83
g2417
sg76
(lp2424
g69
(g90
g71
NtRp2425
(dp2426
g74
(dp2427
sg83
g2421
sg76
(lp2428
g69
(g70
g71
NtRp2429
(dp2430
g74
(dp2431
g82
I3
ssg83
g2425
sg76
(lp2432
S'1'
asbasbasbag69
(g85
g71
NtRp2433
(dp2434
g74
(dp2435
sg83
g2417
sg76
(lp2436
g69
(g90
g71
NtRp2437
(dp2438
g74
(dp2439
sg83
g2433
sg76
(lp2440
g69
(g70
g71
NtRp2441
(dp2442
g74
(dp2443
g82
I3
ssg83
g2437
sg76
(lp2444
S'99'
p2445
asbasbasbag69
(g85
g71
NtRp2446
(dp2447
g74
(dp2448
sg83
g2417
sg76
(lp2449
g69
(g90
g71
NtRp2450
(dp2451
g74
(dp2452
sg83
g2446
sg76
(lp2453
g69
(g70
g71
NtRp2454
(dp2455
g74
(dp2456
g82
I3
ssg83
g2450
sg76
(lp2457
S'7'
asbasbasbag69
(g85
g71
NtRp2458
(dp2459
g74
(dp2460
sg83
g2417
sg76
(lp2461
g69
(g90
g71
NtRp2462
(dp2463
g74
(dp2464
sg83
g2458
sg76
(lp2465
g69
(g70
g71
NtRp2466
(dp2467
g74
(dp2468
g82
I3
ssg83
g2462
sg76
(lp2469
S'datetime.datetime(2012, 3, 4, 22, 12, 8)'
p2470
asbasbasbag69
(g85
g71
NtRp2471
(dp2472
g74
(dp2473
sg83
g2417
sg76
(lp2474
g69
(g90
g71
NtRp2475
(dp2476
g74
(dp2477
sg83
g2471
sg76
(lp2478
g69
(g70
g71
NtRp2479
(dp2480
g74
(dp2481
g82
I3
ssg83
g2475
sg76
(lp2482
S'stable'
p2483
asbasbasbasbasbasbasbag69
(g85
g71
NtRp2484
(dp2485
g74
(dp2486
sg83
g1389
sg76
(lp2487
g69
(g90
g71
NtRp2488
(dp2489
g74
(dp2490
g94
g95
ssg83
g2484
sg76
(lp2491
S'wsgi_errors'
p2492
asbag69
(g90
g71
NtRp2493
(dp2494
g74
(dp2495
g101
g102
ssg83
g2484
sg76
(lp2496
S':'
asbag69
(g90
g71
NtRp2497
(dp2498
g74
(dp2499
sg83
g2484
sg76
(lp2500
g69
(g70
g71
NtRp2501
(dp2502
g74
(dp2503
g82
I4
ssg83
g2497
sg76
(lp2504
S'<mod_wsgi.Log object at 0x1043fc8b0>'
p2505
asbasbasbag69
(g85
g71
NtRp2506
(dp2507
g74
(dp2508
sg83
g1389
sg76
(lp2509
g69
(g90
g71
NtRp2510
(dp2511
g74
(dp2512
g94
g95
ssg83
g2506
sg76
(lp2513
S'wsgi_file_wrapper'
p2514
asbag69
(g90
g71
NtRp2515
(dp2516
g74
(dp2517
g101
g102
ssg83
g2506
sg76
(lp2518
S':'
asbag69
(g90
g71
NtRp2519
(dp2520
g74
(dp2521
sg83
g2506
sg76
(lp2522
g69
(g70
g71
NtRp2523
(dp2524
g74
(dp2525
g82
I4
ssg83
g2519
sg76
(lp2526
S'<built-in method file_wrapper of mod_wsgi.Adapter object at 0x1043f2378>'
p2527
asbasbasbag69
(g85
g71
NtRp2528
(dp2529
g74
(dp2530
sg83
g1389
sg76
(lp2531
g69
(g90
g71
NtRp2532
(dp2533
g74
(dp2534
g94
g95
ssg83
g2528
sg76
(lp2535
S'wsgi_input'
p2536
asbag69
(g90
g71
NtRp2537
(dp2538
g74
(dp2539
g101
g102
ssg83
g2528
sg76
(lp2540
S':'
asbag69
(g90
g71
NtRp2541
(dp2542
g74
(dp2543
sg83
g2528
sg76
(lp2544
g69
(g70
g71
NtRp2545
(dp2546
g74
(dp2547
g82
I4
ssg83
g2541
sg76
(lp2548
S'<mod_wsgi.Input object at 0x1043fca30>'
p2549
asbasbasbag69
(g85
g71
NtRp2550
(dp2551
g74
(dp2552
sg83
g1389
sg76
(lp2553
g69
(g90
g71
NtRp2554
(dp2555
g74
(dp2556
g94
g95
ssg83
g2550
sg76
(lp2557
S'wsgi_multiprocess'
p2558
asbag69
(g90
g71
NtRp2559
(dp2560
g74
(dp2561
g101
g102
ssg83
g2550
sg76
(lp2562
S':'
asbag69
(g90
g71
NtRp2563
(dp2564
g74
(dp2565
sg83
g2550
sg76
(lp2566
g69
(g70
g71
NtRp2567
(dp2568
g74
(dp2569
g82
I4
ssg83
g2563
sg76
(lp2570
S'True'
p2571
asbasbasbag69
(g85
g71
NtRp2572
(dp2573
g74
(dp2574
sg83
g1389
sg76
(lp2575
g69
(g90
g71
NtRp2576
(dp2577
g74
(dp2578
g94
g95
ssg83
g2572
sg76
(lp2579
S'wsgi_multithread'
p2580
asbag69
(g90
g71
NtRp2581
(dp2582
g74
(dp2583
g101
g102
ssg83
g2572
sg76
(lp2584
S':'
asbag69
(g90
g71
NtRp2585
(dp2586
g74
(dp2587
sg83
g2572
sg76
(lp2588
g69
(g70
g71
NtRp2589
(dp2590
g74
(dp2591
g82
I4
ssg83
g2585
sg76
(lp2592
g112
asbasbasbag69
(g85
g71
NtRp2593
(dp2594
g74
(dp2595
sg83
g1389
sg76
(lp2596
g69
(g90
g71
NtRp2597
(dp2598
g74
(dp2599
g94
g95
ssg83
g2593
sg76
(lp2600
S'wsgi_run_once'
p2601
asbag69
(g90
g71
NtRp2602
(dp2603
g74
(dp2604
g101
g102
ssg83
g2593
sg76
(lp2605
S':'
asbag69
(g90
g71
NtRp2606
(dp2607
g74
(dp2608
sg83
g2593
sg76
(lp2609
g69
(g70
g71
NtRp2610
(dp2611
g74
(dp2612
g82
I4
ssg83
g2606
sg76
(lp2613
g112
asbasbasbag69
(g85
g71
NtRp2614
(dp2615
g74
(dp2616
sg83
g1389
sg76
(lp2617
g69
(g90
g71
NtRp2618
(dp2619
g74
(dp2620
g94
g95
ssg83
g2614
sg76
(lp2621
S'wsgi_url_scheme'
p2622
asbag69
(g90
g71
NtRp2623
(dp2624
g74
(dp2625
g101
g102
ssg83
g2614
sg76
(lp2626
S':'
asbag69
(g90
g71
NtRp2627
(dp2628
g74
(dp2629
sg83
g2614
sg76
(lp2630
g69
(g70
g71
NtRp2631
(dp2632
g74
(dp2633
g82
I4
ssg83
g2627
sg76
(lp2634
S'http'
p2635
asbasbasbag69
(g85
g71
NtRp2636
(dp2637
g74
(dp2638
sg83
g1389
sg76
(lp2639
g69
(g90
g71
NtRp2640
(dp2641
g74
(dp2642
g94
g95
ssg83
g2636
sg76
(lp2643
S'wsgi_version'
p2644
asbag69
(g90
g71
NtRp2645
(dp2646
g74
(dp2647
g101
g102
ssg83
g2636
sg76
(lp2648
S':'
asbag69
(g90
g71
NtRp2649
(dp2650
g74
(dp2651
sg83
g2636
sg76
(lp2652
g69
(g70
g71
NtRp2653
(dp2654
g74
(dp2655
g82
I4
ssg83
g2649
sg76
(lp2656
g69
(g78
g71
NtRp2657
(dp2658
g74
(dp2659
g82
I3
ssg83
Nsg76
(lp2660
g69
(g85
g71
NtRp2661
(dp2662
g74
(dp2663
sg83
g2657
sg76
(lp2664
g69
(g90
g71
NtRp2665
(dp2666
g74
(dp2667
sg83
g2661
sg76
(lp2668
g69
(g70
g71
NtRp2669
(dp2670
g74
(dp2671
g82
I3
ssg83
g2665
sg76
(lp2672
S'1'
asbasbasbag69
(g85
g71
NtRp2673
(dp2674
g74
(dp2675
sg83
g2657
sg76
(lp2676
g69
(g90
g71
NtRp2677
(dp2678
g74
(dp2679
sg83
g2673
sg76
(lp2680
g69
(g70
g71
NtRp2681
(dp2682
g74
(dp2683
g82
I3
ssg83
g2677
sg76
(lp2684
S'1'
asbasbasbasbasbasbasbasbasbasbasbag69
(g85
g71
NtRp2685
(dp2686
g74
(dp2687
sg83
g79
sg76
(lp2688
g69
(g90
g71
NtRp2689
(dp2690
g74
(dp2691
g94
g95
ssg83
g2685
sg76
(lp2692
S'extension'
p2693
asbag69
(g90
g71
NtRp2694
(dp2695
g74
(dp2696
g101
g102
ssg83
g2685
sg76
(lp2697
S':'
asbag69
(g90
g71
NtRp2698
(dp2699
g74
(dp2700
sg83
g2685
sg76
(lp2701
g69
(g70
g71
NtRp2702
(dp2703
g74
(dp2704
g82
I5
ssg83
g2698
sg76
(lp2705
S'html'
p2706
asbasbasbag69
(g85
g71
NtRp2707
(dp2708
g74
(dp2709
sg83
g79
sg76
(lp2710
g69
(g90
g71
NtRp2711
(dp2712
g74
(dp2713
g94
g95
ssg83
g2707
sg76
(lp2714
S'folder'
p2715
asbag69
(g90
g71
NtRp2716
(dp2717
g74
(dp2718
g101
g102
ssg83
g2707
sg76
(lp2719
S':'
asbag69
(g90
g71
NtRp2720
(dp2721
g74
(dp2722
sg83
g2707
sg76
(lp2723
g69
(g70
g71
NtRp2724
(dp2725
g74
(dp2726
g82
I5
ssg83
g2720
sg76
(lp2727
S'/Users/emir/Documents/beardcode/web2py/applications/fayol/'
p2728
asbasbasbag69
(g85
g71
NtRp2729
(dp2730
g74
(dp2731
sg83
g79
sg76
(lp2732
g69
(g90
g71
NtRp2733
(dp2734
g74
(dp2735
g94
g95
ssg83
g2729
sg76
(lp2736
S'function'
p2737
asbag69
(g90
g71
NtRp2738
(dp2739
g74
(dp2740
g101
g102
ssg83
g2729
sg76
(lp2741
S':'
asbag69
(g90
g71
NtRp2742
(dp2743
g74
(dp2744
sg83
g2729
sg76
(lp2745
g69
(g70
g71
NtRp2746
(dp2747
g74
(dp2748
g82
I5
ssg83
g2742
sg76
(lp2749
S'index'
p2750
asbasbasbag69
(g85
g71
NtRp2751
(dp2752
g74
(dp2753
sg83
g79
sg76
(lp2754
g69
(g90
g71
NtRp2755
(dp2756
g74
(dp2757
g94
g95
ssg83
g2751
sg76
(lp2758
S'get_vars'
p2759
asbag69
(g90
g71
NtRp2760
(dp2761
g74
(dp2762
g101
g102
ssg83
g2751
sg76
(lp2763
S':'
asbag69
(g90
g71
NtRp2764
(dp2765
g74
(dp2766
sg83
g2751
sg76
(lp2767
g69
(g70
g71
NtRp2768
(dp2769
g74
(dp2770
g82
I5
ssg83
g2764
sg76
(lp2771
g69
(g78
g71
NtRp2772
(dp2773
g74
(dp2774
g82
I4
ssg83
Nsg76
(lp2775
sbasbasbasbag69
(g85
g71
NtRp2776
(dp2777
g74
(dp2778
sg83
g79
sg76
(lp2779
g69
(g90
g71
NtRp2780
(dp2781
g74
(dp2782
g94
g95
ssg83
g2776
sg76
(lp2783
S'global_settings'
p2784
asbag69
(g90
g71
NtRp2785
(dp2786
g74
(dp2787
g101
g102
ssg83
g2776
sg76
(lp2788
S':'
asbag69
(g90
g71
NtRp2789
(dp2790
g74
(dp2791
sg83
g2776
sg76
(lp2792
g69
(g70
g71
NtRp2793
(dp2794
g74
(dp2795
g82
I5
ssg83
g2789
sg76
(lp2796
g69
(g78
g71
NtRp2797
(dp2798
g74
(dp2799
g82
I4
ssg83
Nsg76
(lp2800
g69
(g85
g71
NtRp2801
(dp2802
g74
(dp2803
sg83
g2797
sg76
(lp2804
g69
(g90
g71
NtRp2805
(dp2806
g74
(dp2807
g94
g95
ssg83
g2801
sg76
(lp2808
g1401
asbag69
(g90
g71
NtRp2809
(dp2810
g74
(dp2811
g101
g102
ssg83
g2801
sg76
(lp2812
S':'
asbag69
(g90
g71
NtRp2813
(dp2814
g74
(dp2815
sg83
g2801
sg76
(lp2816
g69
(g70
g71
NtRp2817
(dp2818
g74
(dp2819
g82
I4
ssg83
g2813
sg76
(lp2820
S"set(['/Users/emir/Documents/beardcode/web2py/applications/randomwords/', '/Users/emir/Documents/beardcode/web2py/applications/admin/', '/Users/emir/Documents/beardcode/web2py/applications/fayol/'])"
p2821
asbasbasbag69
(g85
g71
NtRp2822
(dp2823
g74
(dp2824
sg83
g2797
sg76
(lp2825
g69
(g90
g71
NtRp2826
(dp2827
g74
(dp2828
g94
g95
ssg83
g2822
sg76
(lp2829
g1423
asbag69
(g90
g71
NtRp2830
(dp2831
g74
(dp2832
g101
g102
ssg83
g2822
sg76
(lp2833
S':'
asbag69
(g90
g71
NtRp2834
(dp2835
g74
(dp2836
sg83
g2822
sg76
(lp2837
g69
(g70
g71
NtRp2838
(dp2839
g74
(dp2840
g82
I4
ssg83
g2834
sg76
(lp2841
g1436
asbasbasbag69
(g85
g71
NtRp2842
(dp2843
g74
(dp2844
sg83
g2797
sg76
(lp2845
g69
(g90
g71
NtRp2846
(dp2847
g74
(dp2848
g94
g95
ssg83
g2842
sg76
(lp2849
g1445
asbag69
(g90
g71
NtRp2850
(dp2851
g74
(dp2852
g101
g102
ssg83
g2842
sg76
(lp2853
S':'
asbag69
(g90
g71
NtRp2854
(dp2855
g74
(dp2856
sg83
g2842
sg76
(lp2857
g69
(g70
g71
NtRp2858
(dp2859
g74
(dp2860
g82
I4
ssg83
g2854
sg76
(lp2861
S'set([])'
p2862
asbasbasbag69
(g85
g71
NtRp2863
(dp2864
g74
(dp2865
sg83
g2797
sg76
(lp2866
g69
(g90
g71
NtRp2867
(dp2868
g74
(dp2869
g94
g95
ssg83
g2863
sg76
(lp2870
g1467
asbag69
(g90
g71
NtRp2871
(dp2872
g74
(dp2873
g101
g102
ssg83
g2863
sg76
(lp2874
S':'
asbag69
(g90
g71
NtRp2875
(dp2876
g74
(dp2877
sg83
g2863
sg76
(lp2878
g69
(g70
g71
NtRp2879
(dp2880
g74
(dp2881
g82
I4
ssg83
g2875
sg76
(lp2882
g112
asbasbasbag69
(g85
g71
NtRp2883
(dp2884
g74
(dp2885
sg83
g2797
sg76
(lp2886
g69
(g90
g71
NtRp2887
(dp2888
g74
(dp2889
g94
g95
ssg83
g2883
sg76
(lp2890
g1532
asbag69
(g90
g71
NtRp2891
(dp2892
g74
(dp2893
g101
g102
ssg83
g2883
sg76
(lp2894
S':'
asbag69
(g90
g71
NtRp2895
(dp2896
g74
(dp2897
sg83
g2883
sg76
(lp2898
g69
(g70
g71
NtRp2899
(dp2900
g74
(dp2901
g82
I4
ssg83
g2895
sg76
(lp2902
g1436
asbasbasbag69
(g85
g71
NtRp2903
(dp2904
g74
(dp2905
sg83
g2797
sg76
(lp2906
g69
(g90
g71
NtRp2907
(dp2908
g74
(dp2909
g94
g95
ssg83
g2903
sg76
(lp2910
g1751
asbag69
(g90
g71
NtRp2911
(dp2912
g74
(dp2913
g101
g102
ssg83
g2903
sg76
(lp2914
S':'
asbag69
(g90
g71
NtRp2915
(dp2916
g74
(dp2917
sg83
g2903
sg76
(lp2918
g69
(g70
g71
NtRp2919
(dp2920
g74
(dp2921
g82
I4
ssg83
g2915
sg76
(lp2922
g112
asbasbasbag69
(g85
g71
NtRp2923
(dp2924
g74
(dp2925
sg83
g2797
sg76
(lp2926
g69
(g90
g71
NtRp2927
(dp2928
g74
(dp2929
g94
g95
ssg83
g2923
sg76
(lp2930
g1772
asbag69
(g90
g71
NtRp2931
(dp2932
g74
(dp2933
g101
g102
ssg83
g2923
sg76
(lp2934
S':'
asbag69
(g90
g71
NtRp2935
(dp2936
g74
(dp2937
sg83
g2923
sg76
(lp2938
g69
(g70
g71
NtRp2939
(dp2940
g74
(dp2941
g82
I4
ssg83
g2935
sg76
(lp2942
g112
asbasbasbag69
(g85
g71
NtRp2943
(dp2944
g74
(dp2945
sg83
g2797
sg76
(lp2946
g69
(g90
g71
NtRp2947
(dp2948
g74
(dp2949
g94
g95
ssg83
g2943
sg76
(lp2950
g2404
asbag69
(g90
g71
NtRp2951
(dp2952
g74
(dp2953
g101
g102
ssg83
g2943
sg76
(lp2954
S':'
asbag69
(g90
g71
NtRp2955
(dp2956
g74
(dp2957
sg83
g2943
sg76
(lp2958
g69
(g70
g71
NtRp2959
(dp2960
g74
(dp2961
g82
I4
ssg83
g2955
sg76
(lp2962
g69
(g78
g71
NtRp2963
(dp2964
g74
(dp2965
g82
I3
ssg83
Nsg76
(lp2966
g69
(g85
g71
NtRp2967
(dp2968
g74
(dp2969
sg83
g2963
sg76
(lp2970
g69
(g90
g71
NtRp2971
(dp2972
g74
(dp2973
sg83
g2967
sg76
(lp2974
g69
(g70
g71
NtRp2975
(dp2976
g74
(dp2977
g82
I3
ssg83
g2971
sg76
(lp2978
S'1'
asbasbasbag69
(g85
g71
NtRp2979
(dp2980
g74
(dp2981
sg83
g2963
sg76
(lp2982
g69
(g90
g71
NtRp2983
(dp2984
g74
(dp2985
sg83
g2979
sg76
(lp2986
g69
(g70
g71
NtRp2987
(dp2988
g74
(dp2989
g82
I3
ssg83
g2983
sg76
(lp2990
S'99'
p2991
asbasbasbag69
(g85
g71
NtRp2992
(dp2993
g74
(dp2994
sg83
g2963
sg76
(lp2995
g69
(g90
g71
NtRp2996
(dp2997
g74
(dp2998
sg83
g2992
sg76
(lp2999
g69
(g70
g71
NtRp3000
(dp3001
g74
(dp3002
g82
I3
ssg83
g2996
sg76
(lp3003
S'7'
asbasbasbag69
(g85
g71
NtRp3004
(dp3005
g74
(dp3006
sg83
g2963
sg76
(lp3007
g69
(g90
g71
NtRp3008
(dp3009
g74
(dp3010
sg83
g3004
sg76
(lp3011
g69
(g70
g71
NtRp3012
(dp3013
g74
(dp3014
g82
I3
ssg83
g3008
sg76
(lp3015
S'datetime.datetime(2012, 3, 4, 22, 12, 8)'
p3016
asbasbasbag69
(g85
g71
NtRp3017
(dp3018
g74
(dp3019
sg83
g2963
sg76
(lp3020
g69
(g90
g71
NtRp3021
(dp3022
g74
(dp3023
sg83
g3017
sg76
(lp3024
g69
(g70
g71
NtRp3025
(dp3026
g74
(dp3027
g82
I3
ssg83
g3021
sg76
(lp3028
g2483
asbasbasbasbasbasbasbasbasbasbasbag69
(g85
g71
NtRp3029
(dp3030
g74
(dp3031
sg83
g79
sg76
(lp3032
g69
(g90
g71
NtRp3033
(dp3034
g74
(dp3035
g94
g95
ssg83
g3029
sg76
(lp3036
S'is_https'
p3037
asbag69
(g90
g71
NtRp3038
(dp3039
g74
(dp3040
g101
g102
ssg83
g3029
sg76
(lp3041
S':'
asbag69
(g90
g71
NtRp3042
(dp3043
g74
(dp3044
sg83
g3029
sg76
(lp3045
g69
(g70
g71
NtRp3046
(dp3047
g74
(dp3048
g82
I5
ssg83
g3042
sg76
(lp3049
g112
asbasbasbag69
(g85
g71
NtRp3050
(dp3051
g74
(dp3052
sg83
g79
sg76
(lp3053
g69
(g90
g71
NtRp3054
(dp3055
g74
(dp3056
g94
g95
ssg83
g3050
sg76
(lp3057
S'is_local'
p3058
asbag69
(g90
g71
NtRp3059
(dp3060
g74
(dp3061
g101
g102
ssg83
g3050
sg76
(lp3062
S':'
asbag69
(g90
g71
NtRp3063
(dp3064
g74
(dp3065
sg83
g3050
sg76
(lp3066
g69
(g70
g71
NtRp3067
(dp3068
g74
(dp3069
g82
I5
ssg83
g3063
sg76
(lp3070
g2571
asbasbasbag69
(g85
g71
NtRp3071
(dp3072
g74
(dp3073
sg83
g79
sg76
(lp3074
g69
(g90
g71
NtRp3075
(dp3076
g74
(dp3077
g94
g95
ssg83
g3071
sg76
(lp3078
S'is_restful'
p3079
asbag69
(g90
g71
NtRp3080
(dp3081
g74
(dp3082
g101
g102
ssg83
g3071
sg76
(lp3083
S':'
asbag69
(g90
g71
NtRp3084
(dp3085
g74
(dp3086
sg83
g3071
sg76
(lp3087
g69
(g70
g71
NtRp3088
(dp3089
g74
(dp3090
g82
I5
ssg83
g3084
sg76
(lp3091
g112
asbasbasbag69
(g85
g71
NtRp3092
(dp3093
g74
(dp3094
sg83
g79
sg76
(lp3095
g69
(g90
g71
NtRp3096
(dp3097
g74
(dp3098
g94
g95
ssg83
g3092
sg76
(lp3099
S'now'
p3100
asbag69
(g90
g71
NtRp3101
(dp3102
g74
(dp3103
g101
g102
ssg83
g3092
sg76
(lp3104
S':'
asbag69
(g90
g71
NtRp3105
(dp3106
g74
(dp3107
sg83
g3092
sg76
(lp3108
g69
(g70
g71
NtRp3109
(dp3110
g74
(dp3111
g82
I5
ssg83
g3105
sg76
(lp3112
S'datetime.datetime(2012, 8, 14, 12, 51, 1, 64211)'
p3113
asbasbasbag69
(g85
g71
NtRp3114
(dp3115
g74
(dp3116
sg83
g79
sg76
(lp3117
g69
(g90
g71
NtRp3118
(dp3119
g74
(dp3120
g94
g95
ssg83
g3114
sg76
(lp3121
S'post_vars'
p3122
asbag69
(g90
g71
NtRp3123
(dp3124
g74
(dp3125
g101
g102
ssg83
g3114
sg76
(lp3126
S':'
asbag69
(g90
g71
NtRp3127
(dp3128
g74
(dp3129
sg83
g3114
sg76
(lp3130
g69
(g70
g71
NtRp3131
(dp3132
g74
(dp3133
g82
I5
ssg83
g3127
sg76
(lp3134
g69
(g78
g71
NtRp3135
(dp3136
g74
(dp3137
g82
I4
ssg83
Nsg76
(lp3138
sbasbasbasbag69
(g85
g71
NtRp3139
(dp3140
g74
(dp3141
sg83
g79
sg76
(lp3142
g69
(g90
g71
NtRp3143
(dp3144
g74
(dp3145
g94
g95
ssg83
g3139
sg76
(lp3146
S'url'
p3147
asbag69
(g90
g71
NtRp3148
(dp3149
g74
(dp3150
g101
g102
ssg83
g3139
sg76
(lp3151
S':'
asbag69
(g90
g71
NtRp3152
(dp3153
g74
(dp3154
sg83
g3139
sg76
(lp3155
g69
(g70
g71
NtRp3156
(dp3157
g74
(dp3158
g82
I5
ssg83
g3152
sg76
(lp3159
S'/fayol/default/index'
p3160
asbasbasbag69
(g85
g71
NtRp3161
(dp3162
g74
(dp3163
sg83
g79
sg76
(lp3164
g69
(g90
g71
NtRp3165
(dp3166
g74
(dp3167
g94
g95
ssg83
g3161
sg76
(lp3168
S'utcnow'
p3169
asbag69
(g90
g71
NtRp3170
(dp3171
g74
(dp3172
g101
g102
ssg83
g3161
sg76
(lp3173
S':'
asbag69
(g90
g71
NtRp3174
(dp3175
g74
(dp3176
sg83
g3161
sg76
(lp3177
g69
(g70
g71
NtRp3178
(dp3179
g74
(dp3180
g82
I5
ssg83
g3174
sg76
(lp3181
S'datetime.datetime(2012, 8, 14, 17, 51, 1, 64299)'
p3182
asbasbasbag69
(g85
g71
NtRp3183
(dp3184
g74
(dp3185
sg83
g79
sg76
(lp3186
g69
(g90
g71
NtRp3187
(dp3188
g74
(dp3189
g94
g95
ssg83
g3183
sg76
(lp3190
S'uuid'
p3191
asbag69
(g90
g71
NtRp3192
(dp3193
g74
(dp3194
g101
g102
ssg83
g3183
sg76
(lp3195
S':'
asbag69
(g90
g71
NtRp3196
(dp3197
g74
(dp3198
sg83
g3183
sg76
(lp3199
g69
(g70
g71
NtRp3200
(dp3201
g74
(dp3202
g82
I5
ssg83
g3196
sg76
(lp3203
S'fayol/127.0.0.1.2012-08-14.12-51-01.1cfad5ff-5862-49d4-9505-f8eefea892d7'
p3204
asbasbasbag69
(g85
g71
NtRp3205
(dp3206
g74
(dp3207
sg83
g79
sg76
(lp3208
g69
(g90
g71
NtRp3209
(dp3210
g74
(dp3211
g94
g95
ssg83
g3205
sg76
(lp3212
S'vars'
p3213
asbag69
(g90
g71
NtRp3214
(dp3215
g74
(dp3216
g101
g102
ssg83
g3205
sg76
(lp3217
S':'
asbag69
(g90
g71
NtRp3218
(dp3219
g74
(dp3220
sg83
g3205
sg76
(lp3221
g69
(g70
g71
NtRp3222
(dp3223
g74
(dp3224
g82
I5
ssg83
g3218
sg76
(lp3225
g69
(g78
g71
NtRp3226
(dp3227
g74
(dp3228
g82
I4
ssg83
Nsg76
(lp3229
sbasbasbasbag69
(g85
g71
NtRp3230
(dp3231
g74
(dp3232
sg83
g79
sg76
(lp3233
g69
(g90
g71
NtRp3234
(dp3235
g74
(dp3236
g94
g95
ssg83
g3230
sg76
(lp3237
S'wsgi'
p3238
asbag69
(g90
g71
NtRp3239
(dp3240
g74
(dp3241
g101
g102
ssg83
g3230
sg76
(lp3242
S':'
asbag69
(g90
g71
NtRp3243
(dp3244
g74
(dp3245
sg83
g3230
sg76
(lp3246
g69
(g70
g71
NtRp3247
(dp3248
g74
(dp3249
g82
I5
ssg83
g3243
sg76
(lp3250
g69
(g78
g71
NtRp3251
(dp3252
g74
(dp3253
g82
I4
ssg83
Nsg76
(lp3254
g69
(g85
g71
NtRp3255
(dp3256
g74
(dp3257
sg83
g3251
sg76
(lp3258
g69
(g90
g71
NtRp3259
(dp3260
g74
(dp3261
g94
g95
ssg83
g3255
sg76
(lp3262
S'environ'
p3263
asbag69
(g90
g71
NtRp3264
(dp3265
g74
(dp3266
g101
g102
ssg83
g3255
sg76
(lp3267
S':'
asbag69
(g90
g71
NtRp3268
(dp3269
g74
(dp3270
sg83
g3255
sg76
(lp3271
g69
(g70
g71
NtRp3272
(dp3273
g74
(dp3274
g82
I4
ssg83
g3268
sg76
(lp3275
g69
(g78
g71
NtRp3276
(dp3277
g74
(dp3278
g82
I3
ssg83
Nsg76
(lp3279
g69
(g85
g71
NtRp3280
(dp3281
g74
(dp3282
sg83
g3276
sg76
(lp3283
g69
(g90
g71
NtRp3284
(dp3285
g74
(dp3286
g94
g95
ssg83
g3280
sg76
(lp3287
S'DOCUMENT_ROOT'
p3288
asbag69
(g90
g71
NtRp3289
(dp3290
g74
(dp3291
g101
g102
ssg83
g3280
sg76
(lp3292
S':'
asbag69
(g90
g71
NtRp3293
(dp3294
g74
(dp3295
sg83
g3280
sg76
(lp3296
g69
(g70
g71
NtRp3297
(dp3298
g74
(dp3299
g82
I3
ssg83
g3293
sg76
(lp3300
g1501
asbasbasbag69
(g85
g71
NtRp3301
(dp3302
g74
(dp3303
sg83
g3276
sg76
(lp3304
g69
(g90
g71
NtRp3305
(dp3306
g74
(dp3307
g94
g95
ssg83
g3301
sg76
(lp3308
S'GATEWAY_INTERFACE'
p3309
asbag69
(g90
g71
NtRp3310
(dp3311
g74
(dp3312
g101
g102
ssg83
g3301
sg76
(lp3313
S':'
asbag69
(g90
g71
NtRp3314
(dp3315
g74
(dp3316
sg83
g3301
sg76
(lp3317
g69
(g70
g71
NtRp3318
(dp3319
g74
(dp3320
g82
I3
ssg83
g3314
sg76
(lp3321
g1523
asbasbasbag69
(g85
g71
NtRp3322
(dp3323
g74
(dp3324
sg83
g3276
sg76
(lp3325
g69
(g90
g71
NtRp3326
(dp3327
g74
(dp3328
g94
g95
ssg83
g3322
sg76
(lp3329
S'HTTP_ACCEPT'
p3330
asbag69
(g90
g71
NtRp3331
(dp3332
g74
(dp3333
g101
g102
ssg83
g3322
sg76
(lp3334
S':'
asbag69
(g90
g71
NtRp3335
(dp3336
g74
(dp3337
sg83
g3322
sg76
(lp3338
g69
(g70
g71
NtRp3339
(dp3340
g74
(dp3341
g82
I3
ssg83
g3335
sg76
(lp3342
g1566
asbasbasbag69
(g85
g71
NtRp3343
(dp3344
g74
(dp3345
sg83
g3276
sg76
(lp3346
g69
(g90
g71
NtRp3347
(dp3348
g74
(dp3349
g94
g95
ssg83
g3343
sg76
(lp3350
S'HTTP_ACCEPT_CHARSET'
p3351
asbag69
(g90
g71
NtRp3352
(dp3353
g74
(dp3354
g101
g102
ssg83
g3343
sg76
(lp3355
S':'
asbag69
(g90
g71
NtRp3356
(dp3357
g74
(dp3358
sg83
g3343
sg76
(lp3359
g69
(g70
g71
NtRp3360
(dp3361
g74
(dp3362
g82
I3
ssg83
g3356
sg76
(lp3363
g1588
asbasbasbag69
(g85
g71
NtRp3364
(dp3365
g74
(dp3366
sg83
g3276
sg76
(lp3367
g69
(g90
g71
NtRp3368
(dp3369
g74
(dp3370
g94
g95
ssg83
g3364
sg76
(lp3371
S'HTTP_ACCEPT_ENCODING'
p3372
asbag69
(g90
g71
NtRp3373
(dp3374
g74
(dp3375
g101
g102
ssg83
g3364
sg76
(lp3376
S':'
asbag69
(g90
g71
NtRp3377
(dp3378
g74
(dp3379
sg83
g3364
sg76
(lp3380
g69
(g70
g71
NtRp3381
(dp3382
g74
(dp3383
g82
I3
ssg83
g3377
sg76
(lp3384
g1610
asbasbasbag69
(g85
g71
NtRp3385
(dp3386
g74
(dp3387
sg83
g3276
sg76
(lp3388
g69
(g90
g71
NtRp3389
(dp3390
g74
(dp3391
g94
g95
ssg83
g3385
sg76
(lp3392
S'HTTP_ACCEPT_LANGUAGE'
p3393
asbag69
(g90
g71
NtRp3394
(dp3395
g74
(dp3396
g101
g102
ssg83
g3385
sg76
(lp3397
S':'
asbag69
(g90
g71
NtRp3398
(dp3399
g74
(dp3400
sg83
g3385
sg76
(lp3401
g69
(g70
g71
NtRp3402
(dp3403
g74
(dp3404
g82
I3
ssg83
g3398
sg76
(lp3405
g1632
asbasbasbag69
(g85
g71
NtRp3406
(dp3407
g74
(dp3408
sg83
g3276
sg76
(lp3409
g69
(g90
g71
NtRp3410
(dp3411
g74
(dp3412
g94
g95
ssg83
g3406
sg76
(lp3413
S'HTTP_CACHE_CONTROL'
p3414
asbag69
(g90
g71
NtRp3415
(dp3416
g74
(dp3417
g101
g102
ssg83
g3406
sg76
(lp3418
S':'
asbag69
(g90
g71
NtRp3419
(dp3420
g74
(dp3421
sg83
g3406
sg76
(lp3422
g69
(g70
g71
NtRp3423
(dp3424
g74
(dp3425
g82
I3
ssg83
g3419
sg76
(lp3426
g1654
asbasbasbag69
(g85
g71
NtRp3427
(dp3428
g74
(dp3429
sg83
g3276
sg76
(lp3430
g69
(g90
g71
NtRp3431
(dp3432
g74
(dp3433
g94
g95
ssg83
g3427
sg76
(lp3434
S'HTTP_CONNECTION'
p3435
asbag69
(g90
g71
NtRp3436
(dp3437
g74
(dp3438
g101
g102
ssg83
g3427
sg76
(lp3439
S':'
asbag69
(g90
g71
NtRp3440
(dp3441
g74
(dp3442
sg83
g3427
sg76
(lp3443
g69
(g70
g71
NtRp3444
(dp3445
g74
(dp3446
g82
I3
ssg83
g3440
sg76
(lp3447
g1676
asbasbasbag69
(g85
g71
NtRp3448
(dp3449
g74
(dp3450
sg83
g3276
sg76
(lp3451
g69
(g90
g71
NtRp3452
(dp3453
g74
(dp3454
g94
g95
ssg83
g3448
sg76
(lp3455
S'HTTP_COOKIE'
p3456
asbag69
(g90
g71
NtRp3457
(dp3458
g74
(dp3459
g101
g102
ssg83
g3448
sg76
(lp3460
S':'
asbag69
(g90
g71
NtRp3461
(dp3462
g74
(dp3463
sg83
g3448
sg76
(lp3464
g69
(g70
g71
NtRp3465
(dp3466
g74
(dp3467
g82
I3
ssg83
g3461
sg76
(lp3468
g1698
asbasbasbag69
(g85
g71
NtRp3469
(dp3470
g74
(dp3471
sg83
g3276
sg76
(lp3472
g69
(g90
g71
NtRp3473
(dp3474
g74
(dp3475
g94
g95
ssg83
g3469
sg76
(lp3476
S'HTTP_HOST'
p3477
asbag69
(g90
g71
NtRp3478
(dp3479
g74
(dp3480
g101
g102
ssg83
g3469
sg76
(lp3481
S':'
asbag69
(g90
g71
NtRp3482
(dp3483
g74
(dp3484
sg83
g3469
sg76
(lp3485
g69
(g70
g71
NtRp3486
(dp3487
g74
(dp3488
g82
I3
ssg83
g3482
sg76
(lp3489
g1720
asbasbasbag69
(g85
g71
NtRp3490
(dp3491
g74
(dp3492
sg83
g3276
sg76
(lp3493
g69
(g90
g71
NtRp3494
(dp3495
g74
(dp3496
g94
g95
ssg83
g3490
sg76
(lp3497
S'HTTP_USER_AGENT'
p3498
asbag69
(g90
g71
NtRp3499
(dp3500
g74
(dp3501
g101
g102
ssg83
g3490
sg76
(lp3502
S':'
asbag69
(g90
g71
NtRp3503
(dp3504
g74
(dp3505
sg83
g3490
sg76
(lp3506
g69
(g70
g71
NtRp3507
(dp3508
g74
(dp3509
g82
I3
ssg83
g3503
sg76
(lp3510
g1742
asbasbasbag69
(g85
g71
NtRp3511
(dp3512
g74
(dp3513
sg83
g3276
sg76
(lp3514
g69
(g90
g71
NtRp3515
(dp3516
g74
(dp3517
g94
g95
ssg83
g3511
sg76
(lp3518
S'PATH_INFO'
p3519
asbag69
(g90
g71
NtRp3520
(dp3521
g74
(dp3522
g101
g102
ssg83
g3511
sg76
(lp3523
S':'
asbag69
(g90
g71
NtRp3524
(dp3525
g74
(dp3526
sg83
g3511
sg76
(lp3527
g69
(g70
g71
NtRp3528
(dp3529
g74
(dp3530
g82
I3
ssg83
g3524
sg76
(lp3531
g2048
asbasbasbag69
(g85
g71
NtRp3532
(dp3533
g74
(dp3534
sg83
g3276
sg76
(lp3535
g69
(g90
g71
NtRp3536
(dp3537
g74
(dp3538
g94
g95
ssg83
g3532
sg76
(lp3539
S'PATH_TRANSLATED'
p3540
asbag69
(g90
g71
NtRp3541
(dp3542
g74
(dp3543
g101
g102
ssg83
g3532
sg76
(lp3544
S':'
asbag69
(g90
g71
NtRp3545
(dp3546
g74
(dp3547
sg83
g3532
sg76
(lp3548
g69
(g70
g71
NtRp3549
(dp3550
g74
(dp3551
g82
I3
ssg83
g3545
sg76
(lp3552
g2070
asbasbasbag69
(g85
g71
NtRp3553
(dp3554
g74
(dp3555
sg83
g3276
sg76
(lp3556
g69
(g90
g71
NtRp3557
(dp3558
g74
(dp3559
g94
g95
ssg83
g3553
sg76
(lp3560
S'QUERY_STRING'
p3561
asbag69
(g90
g71
NtRp3562
(dp3563
g74
(dp3564
g101
g102
ssg83
g3553
sg76
(lp3565
S':'
asbag69
(g90
g71
NtRp3566
(dp3567
g74
(dp3568
sg83
g3553
sg76
(lp3569
g69
(g70
g71
NtRp3570
(dp3571
g74
(dp3572
g82
I3
ssg83
g3566
sg76
(lp3573
S''
asbasbasbag69
(g85
g71
NtRp3574
(dp3575
g74
(dp3576
sg83
g3276
sg76
(lp3577
g69
(g90
g71
NtRp3578
(dp3579
g74
(dp3580
g94
g95
ssg83
g3574
sg76
(lp3581
S'REMOTE_ADDR'
p3582
asbag69
(g90
g71
NtRp3583
(dp3584
g74
(dp3585
g101
g102
ssg83
g3574
sg76
(lp3586
S':'
asbag69
(g90
g71
NtRp3587
(dp3588
g74
(dp3589
sg83
g3574
sg76
(lp3590
g69
(g70
g71
NtRp3591
(dp3592
g74
(dp3593
g82
I3
ssg83
g3587
sg76
(lp3594
g202
asbasbasbag69
(g85
g71
NtRp3595
(dp3596
g74
(dp3597
sg83
g3276
sg76
(lp3598
g69
(g90
g71
NtRp3599
(dp3600
g74
(dp3601
g94
g95
ssg83
g3595
sg76
(lp3602
S'REMOTE_PORT'
p3603
asbag69
(g90
g71
NtRp3604
(dp3605
g74
(dp3606
g101
g102
ssg83
g3595
sg76
(lp3607
S':'
asbag69
(g90
g71
NtRp3608
(dp3609
g74
(dp3610
sg83
g3595
sg76
(lp3611
g69
(g70
g71
NtRp3612
(dp3613
g74
(dp3614
g82
I3
ssg83
g3608
sg76
(lp3615
g2134
asbasbasbag69
(g85
g71
NtRp3616
(dp3617
g74
(dp3618
sg83
g3276
sg76
(lp3619
g69
(g90
g71
NtRp3620
(dp3621
g74
(dp3622
g94
g95
ssg83
g3616
sg76
(lp3623
S'REQUEST_METHOD'
p3624
asbag69
(g90
g71
NtRp3625
(dp3626
g74
(dp3627
g101
g102
ssg83
g3616
sg76
(lp3628
S':'
asbag69
(g90
g71
NtRp3629
(dp3630
g74
(dp3631
sg83
g3616
sg76
(lp3632
g69
(g70
g71
NtRp3633
(dp3634
g74
(dp3635
g82
I3
ssg83
g3629
sg76
(lp3636
g2156
asbasbasbag69
(g85
g71
NtRp3637
(dp3638
g74
(dp3639
sg83
g3276
sg76
(lp3640
g69
(g90
g71
NtRp3641
(dp3642
g74
(dp3643
g94
g95
ssg83
g3637
sg76
(lp3644
S'REQUEST_URI'
p3645
asbag69
(g90
g71
NtRp3646
(dp3647
g74
(dp3648
g101
g102
ssg83
g3637
sg76
(lp3649
S':'
asbag69
(g90
g71
NtRp3650
(dp3651
g74
(dp3652
sg83
g3637
sg76
(lp3653
g69
(g70
g71
NtRp3654
(dp3655
g74
(dp3656
g82
I3
ssg83
g3650
sg76
(lp3657
g2178
asbasbasbag69
(g85
g71
NtRp3658
(dp3659
g74
(dp3660
sg83
g3276
sg76
(lp3661
g69
(g90
g71
NtRp3662
(dp3663
g74
(dp3664
g94
g95
ssg83
g3658
sg76
(lp3665
S'SCRIPT_FILENAME'
p3666
asbag69
(g90
g71
NtRp3667
(dp3668
g74
(dp3669
g101
g102
ssg83
g3658
sg76
(lp3670
S':'
asbag69
(g90
g71
NtRp3671
(dp3672
g74
(dp3673
sg83
g3658
sg76
(lp3674
g69
(g70
g71
NtRp3675
(dp3676
g74
(dp3677
g82
I3
ssg83
g3671
sg76
(lp3678
g2200
asbasbasbag69
(g85
g71
NtRp3679
(dp3680
g74
(dp3681
sg83
g3276
sg76
(lp3682
g69
(g90
g71
NtRp3683
(dp3684
g74
(dp3685
g94
g95
ssg83
g3679
sg76
(lp3686
S'SCRIPT_NAME'
p3687
asbag69
(g90
g71
NtRp3688
(dp3689
g74
(dp3690
g101
g102
ssg83
g3679
sg76
(lp3691
S':'
asbag69
(g90
g71
NtRp3692
(dp3693
g74
(dp3694
sg83
g3679
sg76
(lp3695
g69
(g70
g71
NtRp3696
(dp3697
g74
(dp3698
g82
I3
ssg83
g3692
sg76
(lp3699
S''
asbasbasbag69
(g85
g71
NtRp3700
(dp3701
g74
(dp3702
sg83
g3276
sg76
(lp3703
g69
(g90
g71
NtRp3704
(dp3705
g74
(dp3706
g94
g95
ssg83
g3700
sg76
(lp3707
S'SERVER_ADDR'
p3708
asbag69
(g90
g71
NtRp3709
(dp3710
g74
(dp3711
g101
g102
ssg83
g3700
sg76
(lp3712
S':'
asbag69
(g90
g71
NtRp3713
(dp3714
g74
(dp3715
sg83
g3700
sg76
(lp3716
g69
(g70
g71
NtRp3717
(dp3718
g74
(dp3719
g82
I3
ssg83
g3713
sg76
(lp3720
g2243
asbasbasbag69
(g85
g71
NtRp3721
(dp3722
g74
(dp3723
sg83
g3276
sg76
(lp3724
g69
(g90
g71
NtRp3725
(dp3726
g74
(dp3727
g94
g95
ssg83
g3721
sg76
(lp3728
S'SERVER_ADMIN'
p3729
asbag69
(g90
g71
NtRp3730
(dp3731
g74
(dp3732
g101
g102
ssg83
g3721
sg76
(lp3733
S':'
asbag69
(g90
g71
NtRp3734
(dp3735
g74
(dp3736
sg83
g3721
sg76
(lp3737
g69
(g70
g71
NtRp3738
(dp3739
g74
(dp3740
g82
I3
ssg83
g3734
sg76
(lp3741
g2265
asbasbasbag69
(g85
g71
NtRp3742
(dp3743
g74
(dp3744
sg83
g3276
sg76
(lp3745
g69
(g90
g71
NtRp3746
(dp3747
g74
(dp3748
g94
g95
ssg83
g3742
sg76
(lp3749
S'SERVER_NAME'
p3750
asbag69
(g90
g71
NtRp3751
(dp3752
g74
(dp3753
g101
g102
ssg83
g3742
sg76
(lp3754
S':'
asbag69
(g90
g71
NtRp3755
(dp3756
g74
(dp3757
sg83
g3742
sg76
(lp3758
g69
(g70
g71
NtRp3759
(dp3760
g74
(dp3761
g82
I3
ssg83
g3755
sg76
(lp3762
g2287
asbasbasbag69
(g85
g71
NtRp3763
(dp3764
g74
(dp3765
sg83
g3276
sg76
(lp3766
g69
(g90
g71
NtRp3767
(dp3768
g74
(dp3769
g94
g95
ssg83
g3763
sg76
(lp3770
S'SERVER_PORT'
p3771
asbag69
(g90
g71
NtRp3772
(dp3773
g74
(dp3774
g101
g102
ssg83
g3763
sg76
(lp3775
S':'
asbag69
(g90
g71
NtRp3776
(dp3777
g74
(dp3778
sg83
g3763
sg76
(lp3779
g69
(g70
g71
NtRp3780
(dp3781
g74
(dp3782
g82
I3
ssg83
g3776
sg76
(lp3783
g2309
asbasbasbag69
(g85
g71
NtRp3784
(dp3785
g74
(dp3786
sg83
g3276
sg76
(lp3787
g69
(g90
g71
NtRp3788
(dp3789
g74
(dp3790
g94
g95
ssg83
g3784
sg76
(lp3791
S'SERVER_PROTOCOL'
p3792
asbag69
(g90
g71
NtRp3793
(dp3794
g74
(dp3795
g101
g102
ssg83
g3784
sg76
(lp3796
S':'
asbag69
(g90
g71
NtRp3797
(dp3798
g74
(dp3799
sg83
g3784
sg76
(lp3800
g69
(g70
g71
NtRp3801
(dp3802
g74
(dp3803
g82
I3
ssg83
g3797
sg76
(lp3804
g2331
asbasbasbag69
(g85
g71
NtRp3805
(dp3806
g74
(dp3807
sg83
g3276
sg76
(lp3808
g69
(g90
g71
NtRp3809
(dp3810
g74
(dp3811
g94
g95
ssg83
g3805
sg76
(lp3812
S'SERVER_SIGNATURE'
p3813
asbag69
(g90
g71
NtRp3814
(dp3815
g74
(dp3816
g101
g102
ssg83
g3805
sg76
(lp3817
S':'
asbag69
(g90
g71
NtRp3818
(dp3819
g74
(dp3820
sg83
g3805
sg76
(lp3821
g69
(g70
g71
NtRp3822
(dp3823
g74
(dp3824
g82
I3
ssg83
g3818
sg76
(lp3825
S''
asbasbasbag69
(g85
g71
NtRp3826
(dp3827
g74
(dp3828
sg83
g3276
sg76
(lp3829
g69
(g90
g71
NtRp3830
(dp3831
g74
(dp3832
g94
g95
ssg83
g3826
sg76
(lp3833
S'SERVER_SOFTWARE'
p3834
asbag69
(g90
g71
NtRp3835
(dp3836
g74
(dp3837
g101
g102
ssg83
g3826
sg76
(lp3838
S':'
asbag69
(g90
g71
NtRp3839
(dp3840
g74
(dp3841
sg83
g3826
sg76
(lp3842
g69
(g70
g71
NtRp3843
(dp3844
g74
(dp3845
g82
I3
ssg83
g3839
sg76
(lp3846
g2374
asbasbasbag69
(g85
g71
NtRp3847
(dp3848
g74
(dp3849
sg83
g3276
sg76
(lp3850
g69
(g90
g71
NtRp3851
(dp3852
g74
(dp3853
g94
g95
ssg83
g3847
sg76
(lp3854
S'mod_wsgi.application_group'
p3855
asbag69
(g90
g71
NtRp3856
(dp3857
g74
(dp3858
g101
g102
ssg83
g3847
sg76
(lp3859
S':'
asbag69
(g90
g71
NtRp3860
(dp3861
g74
(dp3862
sg83
g3847
sg76
(lp3863
g69
(g70
g71
NtRp3864
(dp3865
g74
(dp3866
g82
I3
ssg83
g3860
sg76
(lp3867
g1806
asbasbasbag69
(g85
g71
NtRp3868
(dp3869
g74
(dp3870
sg83
g3276
sg76
(lp3871
g69
(g90
g71
NtRp3872
(dp3873
g74
(dp3874
g94
g95
ssg83
g3868
sg76
(lp3875
S'mod_wsgi.callable_object'
p3876
asbag69
(g90
g71
NtRp3877
(dp3878
g74
(dp3879
g101
g102
ssg83
g3868
sg76
(lp3880
S':'
asbag69
(g90
g71
NtRp3881
(dp3882
g74
(dp3883
sg83
g3868
sg76
(lp3884
g69
(g70
g71
NtRp3885
(dp3886
g74
(dp3887
g82
I3
ssg83
g3881
sg76
(lp3888
g1828
asbasbasbag69
(g85
g71
NtRp3889
(dp3890
g74
(dp3891
sg83
g3276
sg76
(lp3892
g69
(g90
g71
NtRp3893
(dp3894
g74
(dp3895
g94
g95
ssg83
g3889
sg76
(lp3896
S'mod_wsgi.handler_script'
p3897
asbag69
(g90
g71
NtRp3898
(dp3899
g74
(dp3900
g101
g102
ssg83
g3889
sg76
(lp3901
S':'
asbag69
(g90
g71
NtRp3902
(dp3903
g74
(dp3904
sg83
g3889
sg76
(lp3905
g69
(g70
g71
NtRp3906
(dp3907
g74
(dp3908
g82
I3
ssg83
g3902
sg76
(lp3909
S''
asbasbasbag69
(g85
g71
NtRp3910
(dp3911
g74
(dp3912
sg83
g3276
sg76
(lp3913
g69
(g90
g71
NtRp3914
(dp3915
g74
(dp3916
g94
g95
ssg83
g3910
sg76
(lp3917
S'mod_wsgi.input_chunked'
p3918
asbag69
(g90
g71
NtRp3919
(dp3920
g74
(dp3921
g101
g102
ssg83
g3910
sg76
(lp3922
S':'
asbag69
(g90
g71
NtRp3923
(dp3924
g74
(dp3925
sg83
g3910
sg76
(lp3926
g69
(g70
g71
NtRp3927
(dp3928
g74
(dp3929
g82
I3
ssg83
g3923
sg76
(lp3930
S'0'
asbasbasbag69
(g85
g71
NtRp3931
(dp3932
g74
(dp3933
sg83
g3276
sg76
(lp3934
g69
(g90
g71
NtRp3935
(dp3936
g74
(dp3937
g94
g95
ssg83
g3931
sg76
(lp3938
S'mod_wsgi.listener_host'
p3939
asbag69
(g90
g71
NtRp3940
(dp3941
g74
(dp3942
g101
g102
ssg83
g3931
sg76
(lp3943
S':'
asbag69
(g90
g71
NtRp3944
(dp3945
g74
(dp3946
sg83
g3931
sg76
(lp3947
g69
(g70
g71
NtRp3948
(dp3949
g74
(dp3950
g82
I3
ssg83
g3944
sg76
(lp3951
S''
asbasbasbag69
(g85
g71
NtRp3952
(dp3953
g74
(dp3954
sg83
g3276
sg76
(lp3955
g69
(g90
g71
NtRp3956
(dp3957
g74
(dp3958
g94
g95
ssg83
g3952
sg76
(lp3959
S'mod_wsgi.listener_port'
p3960
asbag69
(g90
g71
NtRp3961
(dp3962
g74
(dp3963
g101
g102
ssg83
g3952
sg76
(lp3964
S':'
asbag69
(g90
g71
NtRp3965
(dp3966
g74
(dp3967
sg83
g3952
sg76
(lp3968
g69
(g70
g71
NtRp3969
(dp3970
g74
(dp3971
g82
I3
ssg83
g3965
sg76
(lp3972
g1913
asbasbasbag69
(g85
g71
NtRp3973
(dp3974
g74
(dp3975
sg83
g3276
sg76
(lp3976
g69
(g90
g71
NtRp3977
(dp3978
g74
(dp3979
g94
g95
ssg83
g3973
sg76
(lp3980
S'mod_wsgi.process_group'
p3981
asbag69
(g90
g71
NtRp3982
(dp3983
g74
(dp3984
g101
g102
ssg83
g3973
sg76
(lp3985
S':'
asbag69
(g90
g71
NtRp3986
(dp3987
g74
(dp3988
sg83
g3973
sg76
(lp3989
g69
(g70
g71
NtRp3990
(dp3991
g74
(dp3992
g82
I3
ssg83
g3986
sg76
(lp3993
S''
asbasbasbag69
(g85
g71
NtRp3994
(dp3995
g74
(dp3996
sg83
g3276
sg76
(lp3997
g69
(g90
g71
NtRp3998
(dp3999
g74
(dp4000
g94
g95
ssg83
g3994
sg76
(lp4001
S'mod_wsgi.request_handler'
p4002
asbag69
(g90
g71
NtRp4003
(dp4004
g74
(dp4005
g101
g102
ssg83
g3994
sg76
(lp4006
S':'
asbag69
(g90
g71
NtRp4007
(dp4008
g74
(dp4009
sg83
g3994
sg76
(lp4010
g69
(g70
g71
NtRp4011
(dp4012
g74
(dp4013
g82
I3
ssg83
g4007
sg76
(lp4014
g1956
asbasbasbag69
(g85
g71
NtRp4015
(dp4016
g74
(dp4017
sg83
g3276
sg76
(lp4018
g69
(g90
g71
NtRp4019
(dp4020
g74
(dp4021
g94
g95
ssg83
g4015
sg76
(lp4022
S'mod_wsgi.script_reloading'
p4023
asbag69
(g90
g71
NtRp4024
(dp4025
g74
(dp4026
g101
g102
ssg83
g4015
sg76
(lp4027
S':'
asbag69
(g90
g71
NtRp4028
(dp4029
g74
(dp4030
sg83
g4015
sg76
(lp4031
g69
(g70
g71
NtRp4032
(dp4033
g74
(dp4034
g82
I3
ssg83
g4028
sg76
(lp4035
S'1'
asbasbasbag69
(g85
g71
NtRp4036
(dp4037
g74
(dp4038
sg83
g3276
sg76
(lp4039
g69
(g90
g71
NtRp4040
(dp4041
g74
(dp4042
g94
g95
ssg83
g4036
sg76
(lp4043
S'mod_wsgi.version'
p4044
asbag69
(g90
g71
NtRp4045
(dp4046
g74
(dp4047
g101
g102
ssg83
g4036
sg76
(lp4048
S':'
asbag69
(g90
g71
NtRp4049
(dp4050
g74
(dp4051
sg83
g4036
sg76
(lp4052
g69
(g70
g71
NtRp4053
(dp4054
g74
(dp4055
g82
I3
ssg83
g4049
sg76
(lp4056
g69
(g78
g71
NtRp4057
(dp4058
g74
(dp4059
g82
I2
ssg83
Nsg76
(lp4060
g69
(g85
g71
NtRp4061
(dp4062
g74
(dp4063
sg83
g4057
sg76
(lp4064
g69
(g90
g71
NtRp4065
(dp4066
g74
(dp4067
sg83
g4061
sg76
(lp4068
g69
(g70
g71
NtRp4069
(dp4070
g74
(dp4071
g82
I2
ssg83
g4065
sg76
(lp4072
S'3'
asbasbasbag69
(g85
g71
NtRp4073
(dp4074
g74
(dp4075
sg83
g4057
sg76
(lp4076
g69
(g90
g71
NtRp4077
(dp4078
g74
(dp4079
sg83
g4073
sg76
(lp4080
g69
(g70
g71
NtRp4081
(dp4082
g74
(dp4083
g82
I2
ssg83
g4077
sg76
(lp4084
S'3'
asbasbasbasbasbasbasbag69
(g85
g71
NtRp4085
(dp4086
g74
(dp4087
sg83
g3276
sg76
(lp4088
g69
(g90
g71
NtRp4089
(dp4090
g74
(dp4091
g94
g95
ssg83
g4085
sg76
(lp4092
S'wsgi.errors'
p4093
asbag69
(g90
g71
NtRp4094
(dp4095
g74
(dp4096
g101
g102
ssg83
g4085
sg76
(lp4097
S':'
asbag69
(g90
g71
NtRp4098
(dp4099
g74
(dp4100
sg83
g4085
sg76
(lp4101
g69
(g70
g71
NtRp4102
(dp4103
g74
(dp4104
g82
I3
ssg83
g4098
sg76
(lp4105
S'<mod_wsgi.Log object at 0x1043fc8b0>'
p4106
asbasbasbag69
(g85
g71
NtRp4107
(dp4108
g74
(dp4109
sg83
g3276
sg76
(lp4110
g69
(g90
g71
NtRp4111
(dp4112
g74
(dp4113
g94
g95
ssg83
g4107
sg76
(lp4114
S'wsgi.file_wrapper'
p4115
asbag69
(g90
g71
NtRp4116
(dp4117
g74
(dp4118
g101
g102
ssg83
g4107
sg76
(lp4119
S':'
asbag69
(g90
g71
NtRp4120
(dp4121
g74
(dp4122
sg83
g4107
sg76
(lp4123
g69
(g70
g71
NtRp4124
(dp4125
g74
(dp4126
g82
I3
ssg83
g4120
sg76
(lp4127
S'<built-in method file_wrapper of mod_wsgi.Adapter object at 0x1043f2378>'
p4128
asbasbasbag69
(g85
g71
NtRp4129
(dp4130
g74
(dp4131
sg83
g3276
sg76
(lp4132
g69
(g90
g71
NtRp4133
(dp4134
g74
(dp4135
g94
g95
ssg83
g4129
sg76
(lp4136
S'wsgi.input'
p4137
asbag69
(g90
g71
NtRp4138
(dp4139
g74
(dp4140
g101
g102
ssg83
g4129
sg76
(lp4141
S':'
asbag69
(g90
g71
NtRp4142
(dp4143
g74
(dp4144
sg83
g4129
sg76
(lp4145
g69
(g70
g71
NtRp4146
(dp4147
g74
(dp4148
g82
I3
ssg83
g4142
sg76
(lp4149
S'<cStringIO.StringO object at 0x1043f1ea0>'
p4150
asbasbasbag69
(g85
g71
NtRp4151
(dp4152
g74
(dp4153
sg83
g3276
sg76
(lp4154
g69
(g90
g71
NtRp4155
(dp4156
g74
(dp4157
g94
g95
ssg83
g4151
sg76
(lp4158
S'wsgi.multiprocess'
p4159
asbag69
(g90
g71
NtRp4160
(dp4161
g74
(dp4162
g101
g102
ssg83
g4151
sg76
(lp4163
S':'
asbag69
(g90
g71
NtRp4164
(dp4165
g74
(dp4166
sg83
g4151
sg76
(lp4167
g69
(g70
g71
NtRp4168
(dp4169
g74
(dp4170
g82
I3
ssg83
g4164
sg76
(lp4171
g2571
asbasbasbag69
(g85
g71
NtRp4172
(dp4173
g74
(dp4174
sg83
g3276
sg76
(lp4175
g69
(g90
g71
NtRp4176
(dp4177
g74
(dp4178
g94
g95
ssg83
g4172
sg76
(lp4179
S'wsgi.multithread'
p4180
asbag69
(g90
g71
NtRp4181
(dp4182
g74
(dp4183
g101
g102
ssg83
g4172
sg76
(lp4184
S':'
asbag69
(g90
g71
NtRp4185
(dp4186
g74
(dp4187
sg83
g4172
sg76
(lp4188
g69
(g70
g71
NtRp4189
(dp4190
g74
(dp4191
g82
I3
ssg83
g4185
sg76
(lp4192
g112
asbasbasbag69
(g85
g71
NtRp4193
(dp4194
g74
(dp4195
sg83
g3276
sg76
(lp4196
g69
(g90
g71
NtRp4197
(dp4198
g74
(dp4199
g94
g95
ssg83
g4193
sg76
(lp4200
S'wsgi.run_once'
p4201
asbag69
(g90
g71
NtRp4202
(dp4203
g74
(dp4204
g101
g102
ssg83
g4193
sg76
(lp4205
S':'
asbag69
(g90
g71
NtRp4206
(dp4207
g74
(dp4208
sg83
g4193
sg76
(lp4209
g69
(g70
g71
NtRp4210
(dp4211
g74
(dp4212
g82
I3
ssg83
g4206
sg76
(lp4213
g112
asbasbasbag69
(g85
g71
NtRp4214
(dp4215
g74
(dp4216
sg83
g3276
sg76
(lp4217
g69
(g90
g71
NtRp4218
(dp4219
g74
(dp4220
g94
g95
ssg83
g4214
sg76
(lp4221
S'wsgi.url_scheme'
p4222
asbag69
(g90
g71
NtRp4223
(dp4224
g74
(dp4225
g101
g102
ssg83
g4214
sg76
(lp4226
S':'
asbag69
(g90
g71
NtRp4227
(dp4228
g74
(dp4229
sg83
g4214
sg76
(lp4230
g69
(g70
g71
NtRp4231
(dp4232
g74
(dp4233
g82
I3
ssg83
g4227
sg76
(lp4234
g2635
asbasbasbag69
(g85
g71
NtRp4235
(dp4236
g74
(dp4237
sg83
g3276
sg76
(lp4238
g69
(g90
g71
NtRp4239
(dp4240
g74
(dp4241
g94
g95
ssg83
g4235
sg76
(lp4242
S'wsgi.version'
p4243
asbag69
(g90
g71
NtRp4244
(dp4245
g74
(dp4246
g101
g102
ssg83
g4235
sg76
(lp4247
S':'
asbag69
(g90
g71
NtRp4248
(dp4249
g74
(dp4250
sg83
g4235
sg76
(lp4251
g69
(g70
g71
NtRp4252
(dp4253
g74
(dp4254
g82
I3
ssg83
g4248
sg76
(lp4255
S'1'
asbasbasbasbasbasbasbasbasbasbasbasbasbsS'frames'
p4256
(lp4257
(dp4258
S'file'
p4259
S'/Users/emir/Documents/beardcode/web2py/gluon/restricted.py'
p4260
sS'dump'
p4261
(dp4262
S'code'
p4263
S"'# -*- coding: utf-8 -*-\\n\\n\\ndef index():\\n\\tform = F...dict()\\n\\n\\n\\nresponse._vars=response._caller(index)\\n'"
p4264
sS'layer'
p4265
S"'/Users/emir/Documents/beardcode/web2py/applications/fayol/controllers/default.py'"
p4266
sS'global compile2'
p4267
S'<function compile2>'
p4268
sS'ccode'
p4269
S'undefined'
p4270
ssS'lnum'
p4271
I204
sS'lines'
p4272
(dp4273
I199
S"    environment['__name__'] = '__restricted__'"
p4274
sI200
S'    try:'
p4275
sI201
S'        if type(code) == types.CodeType:'
p4276
sI202
S'            ccode = code'
p4277
sI203
S'        else:'
p4278
sI204
S'            ccode = compile2(code,layer)'
p4279
sI205
S'        exec ccode in environment'
p4280
sI206
S'    except HTTP:'
p4281
sI207
S'        raise'
p4282
sI208
S'    except RestrictedError:'
p4283
ssS'call'
p4284
S"(code='# -*- coding: utf-8 -*-\\n\\n\\ndef index():\\n\\tform = F...dict()\\n\\n\\n\\nresponse._vars=response._caller(index)\\n', environment={'A': <class 'gluon.html.A'>, 'B': <class 'gluon.html.B'>, 'BEAUTIFY': <class 'gluon.html.BEAUTIFY'>, 'BODY': <class 'gluon.html.BODY'>, 'BR': <class 'gluon.html.BR'>, 'BUTTON': <class 'gluon.html.BUTTON'>, 'CAT': <class 'gluon.html.CAT'>, 'CENTER': <class 'gluon.html.CENTER'>, 'CLEANUP': <class 'gluon.validators.CLEANUP'>, 'CODE': <class 'gluon.html.CODE'>, ...}, layer='/Users/emir/Documents/beardcode/web2py/applications/fayol/controllers/default.py')"
p4285
sS'func'
p4286
S'restricted'
p4287
sa(dp4288
g4259
S'/Users/emir/Documents/beardcode/web2py/gluon/restricted.py'
p4289
sg4261
(dp4290
S'builtincompile'
p4291
S'<built-in function compile>'
p4292
sS'code'
p4293
S"'# -*- coding: utf-8 -*-\\n\\n\\ndef index():\\n\\tform = F...dict()\\n\\n\\n\\nresponse._vars=response._caller(index)\\n'"
p4294
sS'code.rstrip'
p4295
S'<built-in method rstrip of str object>'
p4296
sS').replace'
p4297
g4270
sS'layer'
p4298
S"'/Users/emir/Documents/beardcode/web2py/applications/fayol/controllers/default.py'"
p4299
ssg4271
I189
sg4272
(dp4300
I192
S'    """'
p4301
sI193
S'    runs code in environment and returns the output. if an exception occurs'
p4302
sI184
S''
sI185
S'def compile2(code,layer):'
p4303
sI186
S'    """'
p4304
sI187
S"    The +'\\n' is necessary else compile fails when code ends in a comment."
p4305
sI188
S'    """'
p4306
sI189
S"    return compile(code.rstrip().replace('\\r\\n','\\n')+'\\n', layer, 'exec')"
p4307
sI190
S''
sI191
S"def restricted(code, environment=None, layer='Unknown'):"
p4308
ssg4284
S"(code='# -*- coding: utf-8 -*-\\n\\n\\ndef index():\\n\\tform = F...dict()\\n\\n\\n\\nresponse._vars=response._caller(index)\\n', layer='/Users/emir/Documents/beardcode/web2py/applications/fayol/controllers/default.py')"
p4309
sg4286
S'compile2'
p4310
sasS'pyver'
p4311
S'Python 2.6.7: /usr/bin/python'
p4312
sS'session'
p4313
g69
(g70
g71
NtRp4314
(dp4315
g74
(dp4316
sg76
(lp4317
g69
(g78
g71
NtRp4318
(dp4319
g74
(dp4320
g82
I5
ssg83
Nsg76
(lp4321
sbasbsS'etype'
p4322
S"<type 'exceptions.SyntaxError'>"
p4323
sS'date'
p4324
S'Tue Aug 14 12:51:01 2012'
p4325
sS'response'
p4326
g69
(g70
g71
NtRp4327
(dp4328
g74
(dp4329
sg76
(lp4330
g69
(g78
g71
NtRp4331
(dp4332
g74
(dp4333
g82
I5
ssg83
Nsg76
(lp4334
g69
(g85
g71
NtRp4335
(dp4336
g74
(dp4337
sg83
g4331
sg76
(lp4338
g69
(g90
g71
NtRp4339
(dp4340
g74
(dp4341
g94
g95
ssg83
g4335
sg76
(lp4342
g167
asbag69
(g90
g71
NtRp4343
(dp4344
g74
(dp4345
g101
g102
ssg83
g4335
sg76
(lp4346
S':'
asbag69
(g90
g71
NtRp4347
(dp4348
g74
(dp4349
sg83
g4335
sg76
(lp4350
g69
(g70
g71
NtRp4351
(dp4352
g74
(dp4353
g82
I5
ssg83
g4347
sg76
(lp4354
S'<cStringIO.StringO object at 0x1043f1998>'
p4355
asbasbasbag69
(g85
g71
NtRp4356
(dp4357
g74
(dp4358
sg83
g4331
sg76
(lp4359
g69
(g90
g71
NtRp4360
(dp4361
g74
(dp4362
g94
g95
ssg83
g4356
sg76
(lp4363
g233
asbag69
(g90
g71
NtRp4364
(dp4365
g74
(dp4366
g101
g102
ssg83
g4356
sg76
(lp4367
S':'
asbag69
(g90
g71
NtRp4368
(dp4369
g74
(dp4370
sg83
g4356
sg76
(lp4371
g69
(g70
g71
NtRp4372
(dp4373
g74
(dp4374
g82
I5
ssg83
g4368
sg76
(lp4375
g69
(g78
g71
NtRp4376
(dp4377
g74
(dp4378
g82
I4
ssg83
Nsg76
(lp4379
g69
(g85
g71
NtRp4380
(dp4381
g74
(dp4382
sg83
g4376
sg76
(lp4383
g69
(g90
g71
NtRp4384
(dp4385
g74
(dp4386
g94
g95
ssg83
g4380
sg76
(lp4387
S'session_id_fayol'
p4388
asbag69
(g90
g71
NtRp4389
(dp4390
g74
(dp4391
g101
g102
ssg83
g4380
sg76
(lp4392
S':'
asbag69
(g90
g71
NtRp4393
(dp4394
g74
(dp4395
sg83
g4380
sg76
(lp4396
g69
(g70
g71
NtRp4397
(dp4398
g74
(dp4399
g82
I4
ssg83
g4393
sg76
(lp4400
g69
(g78
g71
NtRp4401
(dp4402
g74
(dp4403
g82
I3
ssg83
Nsg76
(lp4404
g69
(g85
g71
NtRp4405
(dp4406
g74
(dp4407
sg83
g4401
sg76
(lp4408
g69
(g90
g71
NtRp4409
(dp4410
g74
(dp4411
g94
g95
ssg83
g4405
sg76
(lp4412
g283
asbag69
(g90
g71
NtRp4413
(dp4414
g74
(dp4415
g101
g102
ssg83
g4405
sg76
(lp4416
S':'
asbag69
(g90
g71
NtRp4417
(dp4418
g74
(dp4419
sg83
g4405
sg76
(lp4420
g69
(g70
g71
NtRp4421
(dp4422
g74
(dp4423
g82
I3
ssg83
g4417
sg76
(lp4424
S''
asbasbasbag69
(g85
g71
NtRp4425
(dp4426
g74
(dp4427
sg83
g4401
sg76
(lp4428
g69
(g90
g71
NtRp4429
(dp4430
g74
(dp4431
g94
g95
ssg83
g4425
sg76
(lp4432
g304
asbag69
(g90
g71
NtRp4433
(dp4434
g74
(dp4435
g101
g102
ssg83
g4425
sg76
(lp4436
S':'
asbag69
(g90
g71
NtRp4437
(dp4438
g74
(dp4439
sg83
g4425
sg76
(lp4440
g69
(g70
g71
NtRp4441
(dp4442
g74
(dp4443
g82
I3
ssg83
g4437
sg76
(lp4444
S''
asbasbasbag69
(g85
g71
NtRp4445
(dp4446
g74
(dp4447
sg83
g4401
sg76
(lp4448
g69
(g90
g71
NtRp4449
(dp4450
g74
(dp4451
g94
g95
ssg83
g4445
sg76
(lp4452
g325
asbag69
(g90
g71
NtRp4453
(dp4454
g74
(dp4455
g101
g102
ssg83
g4445
sg76
(lp4456
S':'
asbag69
(g90
g71
NtRp4457
(dp4458
g74
(dp4459
sg83
g4445
sg76
(lp4460
g69
(g70
g71
NtRp4461
(dp4462
g74
(dp4463
g82
I3
ssg83
g4457
sg76
(lp4464
S''
asbasbasbag69
(g85
g71
NtRp4465
(dp4466
g74
(dp4467
sg83
g4401
sg76
(lp4468
g69
(g90
g71
NtRp4469
(dp4470
g74
(dp4471
g94
g95
ssg83
g4465
sg76
(lp4472
g346
asbag69
(g90
g71
NtRp4473
(dp4474
g74
(dp4475
g101
g102
ssg83
g4465
sg76
(lp4476
S':'
asbag69
(g90
g71
NtRp4477
(dp4478
g74
(dp4479
sg83
g4465
sg76
(lp4480
g69
(g70
g71
NtRp4481
(dp4482
g74
(dp4483
g82
I3
ssg83
g4477
sg76
(lp4484
S''
asbasbasbag69
(g85
g71
NtRp4485
(dp4486
g74
(dp4487
sg83
g4401
sg76
(lp4488
g69
(g90
g71
NtRp4489
(dp4490
g74
(dp4491
g94
g95
ssg83
g4485
sg76
(lp4492
g367
asbag69
(g90
g71
NtRp4493
(dp4494
g74
(dp4495
g101
g102
ssg83
g4485
sg76
(lp4496
S':'
asbag69
(g90
g71
NtRp4497
(dp4498
g74
(dp4499
sg83
g4485
sg76
(lp4500
g69
(g70
g71
NtRp4501
(dp4502
g74
(dp4503
g82
I3
ssg83
g4497
sg76
(lp4504
S''
asbasbasbag69
(g85
g71
NtRp4505
(dp4506
g74
(dp4507
sg83
g4401
sg76
(lp4508
g69
(g90
g71
NtRp4509
(dp4510
g74
(dp4511
g94
g95
ssg83
g4505
sg76
(lp4512
g388
asbag69
(g90
g71
NtRp4513
(dp4514
g74
(dp4515
g101
g102
ssg83
g4505
sg76
(lp4516
S':'
asbag69
(g90
g71
NtRp4517
(dp4518
g74
(dp4519
sg83
g4505
sg76
(lp4520
g69
(g70
g71
NtRp4521
(dp4522
g74
(dp4523
g82
I3
ssg83
g4517
sg76
(lp4524
S'/'
asbasbasbag69
(g85
g71
NtRp4525
(dp4526
g74
(dp4527
sg83
g4401
sg76
(lp4528
g69
(g90
g71
NtRp4529
(dp4530
g74
(dp4531
g94
g95
ssg83
g4525
sg76
(lp4532
g409
asbag69
(g90
g71
NtRp4533
(dp4534
g74
(dp4535
g101
g102
ssg83
g4525
sg76
(lp4536
S':'
asbag69
(g90
g71
NtRp4537
(dp4538
g74
(dp4539
sg83
g4525
sg76
(lp4540
g69
(g70
g71
NtRp4541
(dp4542
g74
(dp4543
g82
I3
ssg83
g4537
sg76
(lp4544
S''
asbasbasbag69
(g85
g71
NtRp4545
(dp4546
g74
(dp4547
sg83
g4401
sg76
(lp4548
g69
(g90
g71
NtRp4549
(dp4550
g74
(dp4551
g94
g95
ssg83
g4545
sg76
(lp4552
g430
asbag69
(g90
g71
NtRp4553
(dp4554
g74
(dp4555
g101
g102
ssg83
g4545
sg76
(lp4556
S':'
asbag69
(g90
g71
NtRp4557
(dp4558
g74
(dp4559
sg83
g4545
sg76
(lp4560
g69
(g70
g71
NtRp4561
(dp4562
g74
(dp4563
g82
I3
ssg83
g4557
sg76
(lp4564
S''
asbasbasbasbasbasbasbasbasbasbasbag69
(g85
g71
NtRp4565
(dp4566
g74
(dp4567
sg83
g4331
sg76
(lp4568
g69
(g90
g71
NtRp4569
(dp4570
g74
(dp4571
g94
g95
ssg83
g4565
sg76
(lp4572
S'delimiters'
p4573
asbag69
(g90
g71
NtRp4574
(dp4575
g74
(dp4576
g101
g102
ssg83
g4565
sg76
(lp4577
S':'
asbag69
(g90
g71
NtRp4578
(dp4579
g74
(dp4580
sg83
g4565
sg76
(lp4581
g69
(g70
g71
NtRp4582
(dp4583
g74
(dp4584
g82
I5
ssg83
g4578
sg76
(lp4585
g69
(g78
g71
NtRp4586
(dp4587
g74
(dp4588
g82
I4
ssg83
Nsg76
(lp4589
g69
(g85
g71
NtRp4590
(dp4591
g74
(dp4592
sg83
g4586
sg76
(lp4593
g69
(g90
g71
NtRp4594
(dp4595
g74
(dp4596
sg83
g4590
sg76
(lp4597
g69
(g70
g71
NtRp4598
(dp4599
g74
(dp4600
g82
I4
ssg83
g4594
sg76
(lp4601
S'{{'
p4602
asbasbasbag69
(g85
g71
NtRp4603
(dp4604
g74
(dp4605
sg83
g4586
sg76
(lp4606
g69
(g90
g71
NtRp4607
(dp4608
g74
(dp4609
sg83
g4603
sg76
(lp4610
g69
(g70
g71
NtRp4611
(dp4612
g74
(dp4613
g82
I4
ssg83
g4607
sg76
(lp4614
S'}}'
p4615
asbasbasbasbasbasbasbag69
(g85
g71
NtRp4616
(dp4617
g74
(dp4618
sg83
g4331
sg76
(lp4619
g69
(g90
g71
NtRp4620
(dp4621
g74
(dp4622
g94
g95
ssg83
g4616
sg76
(lp4623
S'files'
p4624
asbag69
(g90
g71
NtRp4625
(dp4626
g74
(dp4627
g101
g102
ssg83
g4616
sg76
(lp4628
S':'
asbag69
(g90
g71
NtRp4629
(dp4630
g74
(dp4631
sg83
g4616
sg76
(lp4632
g69
(g70
g71
NtRp4633
(dp4634
g74
(dp4635
g82
I5
ssg83
g4629
sg76
(lp4636
g69
(g78
g71
NtRp4637
(dp4638
g74
(dp4639
g82
I4
ssg83
Nsg76
(lp4640
sbasbasbasbag69
(g85
g71
NtRp4641
(dp4642
g74
(dp4643
sg83
g4331
sg76
(lp4644
g69
(g90
g71
NtRp4645
(dp4646
g74
(dp4647
g94
g95
ssg83
g4641
sg76
(lp4648
S'flash'
p4649
asbag69
(g90
g71
NtRp4650
(dp4651
g74
(dp4652
g101
g102
ssg83
g4641
sg76
(lp4653
S':'
asbag69
(g90
g71
NtRp4654
(dp4655
g74
(dp4656
sg83
g4641
sg76
(lp4657
g69
(g70
g71
NtRp4658
(dp4659
g74
(dp4660
g82
I5
ssg83
g4654
sg76
(lp4661
S''
asbasbasbag69
(g85
g71
NtRp4662
(dp4663
g74
(dp4664
sg83
g4331
sg76
(lp4665
g69
(g90
g71
NtRp4666
(dp4667
g74
(dp4668
g94
g95
ssg83
g4662
sg76
(lp4669
S'generic_patterns'
p4670
asbag69
(g90
g71
NtRp4671
(dp4672
g74
(dp4673
g101
g102
ssg83
g4662
sg76
(lp4674
S':'
asbag69
(g90
g71
NtRp4675
(dp4676
g74
(dp4677
sg83
g4662
sg76
(lp4678
g69
(g70
g71
NtRp4679
(dp4680
g74
(dp4681
g82
I5
ssg83
g4675
sg76
(lp4682
g69
(g78
g71
NtRp4683
(dp4684
g74
(dp4685
g82
I4
ssg83
Nsg76
(lp4686
sbasbasbasbag69
(g85
g71
NtRp4687
(dp4688
g74
(dp4689
sg83
g4331
sg76
(lp4690
g69
(g90
g71
NtRp4691
(dp4692
g74
(dp4693
g94
g95
ssg83
g4687
sg76
(lp4694
S'headers'
p4695
asbag69
(g90
g71
NtRp4696
(dp4697
g74
(dp4698
g101
g102
ssg83
g4687
sg76
(lp4699
S':'
asbag69
(g90
g71
NtRp4700
(dp4701
g74
(dp4702
sg83
g4687
sg76
(lp4703
g69
(g70
g71
NtRp4704
(dp4705
g74
(dp4706
g82
I5
ssg83
g4700
sg76
(lp4707
g69
(g78
g71
NtRp4708
(dp4709
g74
(dp4710
g82
I4
ssg83
Nsg76
(lp4711
g69
(g85
g71
NtRp4712
(dp4713
g74
(dp4714
sg83
g4708
sg76
(lp4715
g69
(g90
g71
NtRp4716
(dp4717
g74
(dp4718
g94
g95
ssg83
g4712
sg76
(lp4719
S'Cache-Control'
p4720
asbag69
(g90
g71
NtRp4721
(dp4722
g74
(dp4723
g101
g102
ssg83
g4712
sg76
(lp4724
S':'
asbag69
(g90
g71
NtRp4725
(dp4726
g74
(dp4727
sg83
g4712
sg76
(lp4728
g69
(g70
g71
NtRp4729
(dp4730
g74
(dp4731
g82
I4
ssg83
g4725
sg76
(lp4732
S'no-store, no-cache, must-revalidate, post-check=0, pre-check=0'
p4733
asbasbasbag69
(g85
g71
NtRp4734
(dp4735
g74
(dp4736
sg83
g4708
sg76
(lp4737
g69
(g90
g71
NtRp4738
(dp4739
g74
(dp4740
g94
g95
ssg83
g4734
sg76
(lp4741
S'Content-Type'
p4742
asbag69
(g90
g71
NtRp4743
(dp4744
g74
(dp4745
g101
g102
ssg83
g4734
sg76
(lp4746
S':'
asbag69
(g90
g71
NtRp4747
(dp4748
g74
(dp4749
sg83
g4734
sg76
(lp4750
g69
(g70
g71
NtRp4751
(dp4752
g74
(dp4753
g82
I4
ssg83
g4747
sg76
(lp4754
S'text/html; charset=utf-8'
p4755
asbasbasbag69
(g85
g71
NtRp4756
(dp4757
g74
(dp4758
sg83
g4708
sg76
(lp4759
g69
(g90
g71
NtRp4760
(dp4761
g74
(dp4762
g94
g95
ssg83
g4756
sg76
(lp4763
S'Expires'
p4764
asbag69
(g90
g71
NtRp4765
(dp4766
g74
(dp4767
g101
g102
ssg83
g4756
sg76
(lp4768
S':'
asbag69
(g90
g71
NtRp4769
(dp4770
g74
(dp4771
sg83
g4756
sg76
(lp4772
g69
(g70
g71
NtRp4773
(dp4774
g74
(dp4775
g82
I4
ssg83
g4769
sg76
(lp4776
S'Tue, 14 Aug 2012 17:51:01 GMT'
p4777
asbasbasbag69
(g85
g71
NtRp4778
(dp4779
g74
(dp4780
sg83
g4708
sg76
(lp4781
g69
(g90
g71
NtRp4782
(dp4783
g74
(dp4784
g94
g95
ssg83
g4778
sg76
(lp4785
S'Pragma'
p4786
asbag69
(g90
g71
NtRp4787
(dp4788
g74
(dp4789
g101
g102
ssg83
g4778
sg76
(lp4790
S':'
asbag69
(g90
g71
NtRp4791
(dp4792
g74
(dp4793
sg83
g4778
sg76
(lp4794
g69
(g70
g71
NtRp4795
(dp4796
g74
(dp4797
g82
I4
ssg83
g4791
sg76
(lp4798
S'no-cache'
p4799
asbasbasbag69
(g85
g71
NtRp4800
(dp4801
g74
(dp4802
sg83
g4708
sg76
(lp4803
g69
(g90
g71
NtRp4804
(dp4805
g74
(dp4806
g94
g95
ssg83
g4800
sg76
(lp4807
S'X-Powered-By'
p4808
asbag69
(g90
g71
NtRp4809
(dp4810
g74
(dp4811
g101
g102
ssg83
g4800
sg76
(lp4812
S':'
asbag69
(g90
g71
NtRp4813
(dp4814
g74
(dp4815
sg83
g4800
sg76
(lp4816
g69
(g70
g71
NtRp4817
(dp4818
g74
(dp4819
g82
I4
ssg83
g4813
sg76
(lp4820
S'web2py'
p4821
asbasbasbasbasbasbasbag69
(g85
g71
NtRp4822
(dp4823
g74
(dp4824
sg83
g4331
sg76
(lp4825
g69
(g90
g71
NtRp4826
(dp4827
g74
(dp4828
g94
g95
ssg83
g4822
sg76
(lp4829
S'menu'
p4830
asbag69
(g90
g71
NtRp4831
(dp4832
g74
(dp4833
g101
g102
ssg83
g4822
sg76
(lp4834
S':'
asbag69
(g90
g71
NtRp4835
(dp4836
g74
(dp4837
sg83
g4822
sg76
(lp4838
g69
(g70
g71
NtRp4839
(dp4840
g74
(dp4841
g82
I5
ssg83
g4835
sg76
(lp4842
g69
(g78
g71
NtRp4843
(dp4844
g74
(dp4845
g82
I4
ssg83
Nsg76
(lp4846
sbasbasbasbag69
(g85
g71
NtRp4847
(dp4848
g74
(dp4849
sg83
g4331
sg76
(lp4850
g69
(g90
g71
NtRp4851
(dp4852
g74
(dp4853
g94
g95
ssg83
g4847
sg76
(lp4854
S'meta'
p4855
asbag69
(g90
g71
NtRp4856
(dp4857
g74
(dp4858
g101
g102
ssg83
g4847
sg76
(lp4859
S':'
asbag69
(g90
g71
NtRp4860
(dp4861
g74
(dp4862
sg83
g4847
sg76
(lp4863
g69
(g70
g71
NtRp4864
(dp4865
g74
(dp4866
g82
I5
ssg83
g4860
sg76
(lp4867
g69
(g78
g71
NtRp4868
(dp4869
g74
(dp4870
g82
I4
ssg83
Nsg76
(lp4871
sbasbasbasbag69
(g85
g71
NtRp4872
(dp4873
g74
(dp4874
sg83
g4331
sg76
(lp4875
g69
(g90
g71
NtRp4876
(dp4877
g74
(dp4878
g94
g95
ssg83
g4872
sg76
(lp4879
S'postprocessing'
p4880
asbag69
(g90
g71
NtRp4881
(dp4882
g74
(dp4883
g101
g102
ssg83
g4872
sg76
(lp4884
S':'
asbag69
(g90
g71
NtRp4885
(dp4886
g74
(dp4887
sg83
g4872
sg76
(lp4888
g69
(g70
g71
NtRp4889
(dp4890
g74
(dp4891
g82
I5
ssg83
g4885
sg76
(lp4892
g69
(g78
g71
NtRp4893
(dp4894
g74
(dp4895
g82
I4
ssg83
Nsg76
(lp4896
sbasbasbasbag69
(g85
g71
NtRp4897
(dp4898
g74
(dp4899
sg83
g4331
sg76
(lp4900
g69
(g90
g71
NtRp4901
(dp4902
g74
(dp4903
g94
g95
ssg83
g4897
sg76
(lp4904
S'session_file'
p4905
asbag69
(g90
g71
NtRp4906
(dp4907
g74
(dp4908
g101
g102
ssg83
g4897
sg76
(lp4909
S':'
asbag69
(g90
g71
NtRp4910
(dp4911
g74
(dp4912
sg83
g4897
sg76
(lp4913
g69
(g70
g71
NtRp4914
(dp4915
g74
(dp4916
g82
I5
ssg83
g4910
sg76
(lp4917
S"<open file '/Users/emir/Documents/beardcode/web2py/applications/fayol/sessions/127.0.0.1-3d956b05-424d-45c0-aa40-afea21425a24', mode 'rb+' at 0x104375e40>"
p4918
asbasbasbag69
(g85
g71
NtRp4919
(dp4920
g74
(dp4921
sg83
g4331
sg76
(lp4922
g69
(g90
g71
NtRp4923
(dp4924
g74
(dp4925
g94
g95
ssg83
g4919
sg76
(lp4926
S'session_filename'
p4927
asbag69
(g90
g71
NtRp4928
(dp4929
g74
(dp4930
g101
g102
ssg83
g4919
sg76
(lp4931
S':'
asbag69
(g90
g71
NtRp4932
(dp4933
g74
(dp4934
sg83
g4919
sg76
(lp4935
g69
(g70
g71
NtRp4936
(dp4937
g74
(dp4938
g82
I5
ssg83
g4932
sg76
(lp4939
S'/Users/emir/Documents/beardcode/web2py/applications/fayol/sessions/127.0.0.1-3d956b05-424d-45c0-aa40-afea21425a24'
p4940
asbasbasbag69
(g85
g71
NtRp4941
(dp4942
g74
(dp4943
sg83
g4331
sg76
(lp4944
g69
(g90
g71
NtRp4945
(dp4946
g74
(dp4947
g94
g95
ssg83
g4941
sg76
(lp4948
S'session_id'
p4949
asbag69
(g90
g71
NtRp4950
(dp4951
g74
(dp4952
g101
g102
ssg83
g4941
sg76
(lp4953
S':'
asbag69
(g90
g71
NtRp4954
(dp4955
g74
(dp4956
sg83
g4941
sg76
(lp4957
g69
(g70
g71
NtRp4958
(dp4959
g74
(dp4960
g82
I5
ssg83
g4954
sg76
(lp4961
S'127.0.0.1-3d956b05-424d-45c0-aa40-afea21425a24'
p4962
asbasbasbag69
(g85
g71
NtRp4963
(dp4964
g74
(dp4965
sg83
g4331
sg76
(lp4966
g69
(g90
g71
NtRp4967
(dp4968
g74
(dp4969
g94
g95
ssg83
g4963
sg76
(lp4970
S'session_id_name'
p4971
asbag69
(g90
g71
NtRp4972
(dp4973
g74
(dp4974
g101
g102
ssg83
g4963
sg76
(lp4975
S':'
asbag69
(g90
g71
NtRp4976
(dp4977
g74
(dp4978
sg83
g4963
sg76
(lp4979
g69
(g70
g71
NtRp4980
(dp4981
g74
(dp4982
g82
I5
ssg83
g4976
sg76
(lp4983
g4388
asbasbasbag69
(g85
g71
NtRp4984
(dp4985
g74
(dp4986
sg83
g4331
sg76
(lp4987
g69
(g90
g71
NtRp4988
(dp4989
g74
(dp4990
g94
g95
ssg83
g4984
sg76
(lp4991
S'session_locked'
p4992
asbag69
(g90
g71
NtRp4993
(dp4994
g74
(dp4995
g101
g102
ssg83
g4984
sg76
(lp4996
S':'
asbag69
(g90
g71
NtRp4997
(dp4998
g74
(dp4999
sg83
g4984
sg76
(lp5000
g69
(g70
g71
NtRp5001
(dp5002
g74
(dp5003
g82
I5
ssg83
g4997
sg76
(lp5004
g2571
asbasbasbag69
(g85
g71
NtRp5005
(dp5006
g74
(dp5007
sg83
g4331
sg76
(lp5008
g69
(g90
g71
NtRp5009
(dp5010
g74
(dp5011
g94
g95
ssg83
g5005
sg76
(lp5012
S'session_new'
p5013
asbag69
(g90
g71
NtRp5014
(dp5015
g74
(dp5016
g101
g102
ssg83
g5005
sg76
(lp5017
S':'
asbag69
(g90
g71
NtRp5018
(dp5019
g74
(dp5020
sg83
g5005
sg76
(lp5021
g69
(g70
g71
NtRp5022
(dp5023
g74
(dp5024
g82
I5
ssg83
g5018
sg76
(lp5025
g112
asbasbasbag69
(g85
g71
NtRp5026
(dp5027
g74
(dp5028
sg83
g4331
sg76
(lp5029
g69
(g90
g71
NtRp5030
(dp5031
g74
(dp5032
g94
g95
ssg83
g5026
sg76
(lp5033
S'status'
p5034
asbag69
(g90
g71
NtRp5035
(dp5036
g74
(dp5037
g101
g102
ssg83
g5026
sg76
(lp5038
S':'
asbag69
(g90
g71
NtRp5039
(dp5040
g74
(dp5041
sg83
g5026
sg76
(lp5042
g69
(g70
g71
NtRp5043
(dp5044
g74
(dp5045
g82
I5
ssg83
g5039
sg76
(lp5046
S'200'
p5047
asbasbasbag69
(g85
g71
NtRp5048
(dp5049
g74
(dp5050
sg83
g4331
sg76
(lp5051
g69
(g90
g71
NtRp5052
(dp5053
g74
(dp5054
g94
g95
ssg83
g5048
sg76
(lp5055
g3191
asbag69
(g90
g71
NtRp5056
(dp5057
g74
(dp5058
g101
g102
ssg83
g5048
sg76
(lp5059
S':'
asbag69
(g90
g71
NtRp5060
(dp5061
g74
(dp5062
sg83
g5048
sg76
(lp5063
g69
(g70
g71
NtRp5064
(dp5065
g74
(dp5066
g82
I5
ssg83
g5060
sg76
(lp5067
g3204
asbasbasbag69
(g85
g71
NtRp5068
(dp5069
g74
(dp5070
sg83
g4331
sg76
(lp5071
g69
(g90
g71
NtRp5072
(dp5073
g74
(dp5074
g94
g95
ssg83
g5068
sg76
(lp5075
S'view'
p5076
asbag69
(g90
g71
NtRp5077
(dp5078
g74
(dp5079
g101
g102
ssg83
g5068
sg76
(lp5080
S':'
asbag69
(g90
g71
NtRp5081
(dp5082
g74
(dp5083
sg83
g5068
sg76
(lp5084
g69
(g70
g71
NtRp5085
(dp5086
g74
(dp5087
g82
I5
ssg83
g5081
sg76
(lp5088
S'default/index.html'
p5089
asbasbasbasbasbsS'locals'
p5090
(dp5091
g4
S"'/Users/emir/Documents/beardcode/web2py/applications/fayol/controllers/default.py'"
p5092
sg6
S"'# -*- coding: utf-8 -*-\\n\\n\\ndef index():\\n\\tform = F...dict()\\n\\n\\n\\nresponse._vars=response._caller(index)\\n'"
p5093
sssS'traceback'
p5094
S'Traceback (most recent call last):\n  File "/Users/emir/Documents/beardcode/web2py/gluon/restricted.py", line 204, in restricted\n    ccode = compile2(code,layer)\n  File "/Users/emir/Documents/beardcode/web2py/gluon/restricted.py", line 189, in compile2\n    return compile(code.rstrip().replace(\'\\r\\n\',\'\\n\')+\'\\n\', layer, \'exec\')\n  File "/Users/emir/Documents/beardcode/web2py/applications/fayol/controllers/default.py", line 19\n    def process_form()\n                     ^\nSyntaxError: invalid syntax\n'
p5095
s.