(dp1
S'output'
p2
S"<type 'exceptions.IndentationError'> unexpected indent (default.py, line 7)"
p3
sS'layer'
p4
S'/Users/emir/Documents/beardcode/web2py/applications/fayol/controllers/default.py'
p5
sS'code'
p6
S'# -*- coding: utf-8 -*-\n\n\ndef index():\n\tfrom datetime import datetime\nnow = datetime.now()\n\tyear = now.year\n    return dict(y=year)\n\ndef error():\n    return dict()\n\n\nresponse._vars=response._caller(index)\n'
p7
sS'snapshot'
p8
(dp9
S'exception'
p10
(dp11
S'__getslice__'
p12
S"<method-wrapper '__getslice__' of exceptions.IndentationError object>"
p13
sS'text'
p14
S"'\\tyear = now.year\\n'"
p15
sS'__str__'
p16
S"<method-wrapper '__str__' of exceptions.IndentationError object>"
p17
sS'__reduce__'
p18
S'<built-in method __reduce__ of exceptions.IndentationError object>'
p19
sS'__dict__'
p20
S'{}'
p21
sS'__sizeof__'
p22
S'<built-in method __sizeof__ of exceptions.IndentationError object>'
p23
sS'__init__'
p24
S"<method-wrapper '__init__' of exceptions.IndentationError object>"
p25
sS'__setattr__'
p26
S"<method-wrapper '__setattr__' of exceptions.IndentationError object>"
p27
sS'__reduce_ex__'
p28
S'<built-in method __reduce_ex__ of exceptions.IndentationError object>'
p29
sS'__new__'
p30
S'<built-in method __new__ of type object>'
p31
sS'__format__'
p32
S'<built-in method __format__ of exceptions.IndentationError object>'
p33
sS'__class__'
p34
S"<type 'exceptions.IndentationError'>"
p35
sS'filename'
p36
S"'/Users/emir/Documents/beardcode/web2py/applications/fayol/controllers/default.py'"
p37
sS'lineno'
p38
S'7'
sS'msg'
p39
S"'unexpected indent'"
p40
sS'__doc__'
p41
S"'Improper indentation.'"
p42
sS'__getitem__'
p43
S"<method-wrapper '__getitem__' of exceptions.IndentationError object>"
p44
sS'__setstate__'
p45
S'<built-in method __setstate__ of exceptions.IndentationError object>'
p46
sS'__getattribute__'
p47
S"<method-wrapper '__getattribute__' of exceptions.IndentationError object>"
p48
sS'print_file_and_line'
p49
S'None'
p50
sS'args'
p51
S"('unexpected indent', ('/Users/emir/Documents/beardcode/web2py/applications/fayol/controllers/default.py', 7, 1, '\\tyear = now.year\\n'))"
p52
sS'__subclasshook__'
p53
S'<built-in method __subclasshook__ of type object>'
p54
sS'offset'
p55
S'1'
sS'__unicode__'
p56
S'<built-in method __unicode__ of exceptions.IndentationError object>'
p57
sS'__delattr__'
p58
S"<method-wrapper '__delattr__' of exceptions.IndentationError object>"
p59
sS'__repr__'
p60
S"<method-wrapper '__repr__' of exceptions.IndentationError object>"
p61
sS'__hash__'
p62
S"<method-wrapper '__hash__' of exceptions.IndentationError object>"
p63
ssS'evalue'
p64
S'unexpected indent (default.py, line 7)'
p65
sS'request'
p66
ccopy_reg
_reconstructor
p67
(cgluon.html
BEAUTIFY
p68
c__builtin__
object
p69
NtRp70
(dp71
S'attributes'
p72
(dp73
sS'components'
p74
(lp75
g67
(cgluon.html
TABLE
p76
g69
NtRp77
(dp78
g72
(dp79
S'level'
p80
I5
ssS'parent'
p81
Nsg74
(lp82
g67
(cgluon.html
TR
p83
g69
NtRp84
(dp85
g72
(dp86
sg81
g77
sg74
(lp87
g67
(cgluon.html
TD
p88
g69
NtRp89
(dp90
g72
(dp91
S'_style'
p92
S'font-weight:bold;vertical-align:top'
p93
ssg81
g84
sg74
(lp94
S'ajax'
p95
asbag67
(g88
g69
NtRp96
(dp97
g72
(dp98
S'_valign'
p99
S'top'
p100
ssg81
g84
sg74
(lp101
S':'
asbag67
(g88
g69
NtRp102
(dp103
g72
(dp104
sg81
g84
sg74
(lp105
g67
(g68
g69
NtRp106
(dp107
g72
(dp108
g80
I5
ssg81
g102
sg74
(lp109
S'False'
p110
asbasbasbag67
(g83
g69
NtRp111
(dp112
g72
(dp113
sg81
g77
sg74
(lp114
g67
(g88
g69
NtRp115
(dp116
g72
(dp117
g92
g93
ssg81
g111
sg74
(lp118
S'application'
p119
asbag67
(g88
g69
NtRp120
(dp121
g72
(dp122
g99
g100
ssg81
g111
sg74
(lp123
S':'
asbag67
(g88
g69
NtRp124
(dp125
g72
(dp126
sg81
g111
sg74
(lp127
g67
(g68
g69
NtRp128
(dp129
g72
(dp130
g80
I5
ssg81
g124
sg74
(lp131
S'fayol'
p132
asbasbasbag67
(g83
g69
NtRp133
(dp134
g72
(dp135
sg81
g77
sg74
(lp136
g67
(g88
g69
NtRp137
(dp138
g72
(dp139
g92
g93
ssg81
g133
sg74
(lp140
g51
asbag67
(g88
g69
NtRp141
(dp142
g72
(dp143
g99
g100
ssg81
g133
sg74
(lp144
S':'
asbag67
(g88
g69
NtRp145
(dp146
g72
(dp147
sg81
g133
sg74
(lp148
g67
(g68
g69
NtRp149
(dp150
g72
(dp151
g80
I5
ssg81
g145
sg74
(lp152
g67
(g76
g69
NtRp153
(dp154
g72
(dp155
g80
I4
ssg81
Nsg74
(lp156
sbasbasbasbag67
(g83
g69
NtRp157
(dp158
g72
(dp159
sg81
g77
sg74
(lp160
g67
(g88
g69
NtRp161
(dp162
g72
(dp163
g92
g93
ssg81
g157
sg74
(lp164
S'body'
p165
asbag67
(g88
g69
NtRp166
(dp167
g72
(dp168
g99
g100
ssg81
g157
sg74
(lp169
S':'
asbag67
(g88
g69
NtRp170
(dp171
g72
(dp172
sg81
g157
sg74
(lp173
g67
(g68
g69
NtRp174
(dp175
g72
(dp176
g80
I5
ssg81
g170
sg74
(lp177
S'<cStringIO.StringO object at 0x10492ec70>'
p178
asbasbasbag67
(g83
g69
NtRp179
(dp180
g72
(dp181
sg81
g77
sg74
(lp182
g67
(g88
g69
NtRp183
(dp184
g72
(dp185
g92
g93
ssg81
g179
sg74
(lp186
S'client'
p187
asbag67
(g88
g69
NtRp188
(dp189
g72
(dp190
g99
g100
ssg81
g179
sg74
(lp191
S':'
asbag67
(g88
g69
NtRp192
(dp193
g72
(dp194
sg81
g179
sg74
(lp195
g67
(g68
g69
NtRp196
(dp197
g72
(dp198
g80
I5
ssg81
g192
sg74
(lp199
S'127.0.0.1'
p200
asbasbasbag67
(g83
g69
NtRp201
(dp202
g72
(dp203
sg81
g77
sg74
(lp204
g67
(g88
g69
NtRp205
(dp206
g72
(dp207
g92
g93
ssg81
g201
sg74
(lp208
S'controller'
p209
asbag67
(g88
g69
NtRp210
(dp211
g72
(dp212
g99
g100
ssg81
g201
sg74
(lp213
S':'
asbag67
(g88
g69
NtRp214
(dp215
g72
(dp216
sg81
g201
sg74
(lp217
g67
(g68
g69
NtRp218
(dp219
g72
(dp220
g80
I5
ssg81
g214
sg74
(lp221
S'default'
p222
asbasbasbag67
(g83
g69
NtRp223
(dp224
g72
(dp225
sg81
g77
sg74
(lp226
g67
(g88
g69
NtRp227
(dp228
g72
(dp229
g92
g93
ssg81
g223
sg74
(lp230
S'cookies'
p231
asbag67
(g88
g69
NtRp232
(dp233
g72
(dp234
g99
g100
ssg81
g223
sg74
(lp235
S':'
asbag67
(g88
g69
NtRp236
(dp237
g72
(dp238
sg81
g223
sg74
(lp239
g67
(g68
g69
NtRp240
(dp241
g72
(dp242
g80
I5
ssg81
g236
sg74
(lp243
g67
(g76
g69
NtRp244
(dp245
g72
(dp246
g80
I4
ssg81
Nsg74
(lp247
g67
(g83
g69
NtRp248
(dp249
g72
(dp250
sg81
g244
sg74
(lp251
g67
(g88
g69
NtRp252
(dp253
g72
(dp254
g92
g93
ssg81
g248
sg74
(lp255
S'session_id_admin'
p256
asbag67
(g88
g69
NtRp257
(dp258
g72
(dp259
g99
g100
ssg81
g248
sg74
(lp260
S':'
asbag67
(g88
g69
NtRp261
(dp262
g72
(dp263
sg81
g248
sg74
(lp264
g67
(g68
g69
NtRp265
(dp266
g72
(dp267
g80
I4
ssg81
g261
sg74
(lp268
g67
(g76
g69
NtRp269
(dp270
g72
(dp271
g80
I3
ssg81
Nsg74
(lp272
g67
(g83
g69
NtRp273
(dp274
g72
(dp275
sg81
g269
sg74
(lp276
g67
(g88
g69
NtRp277
(dp278
g72
(dp279
g92
g93
ssg81
g273
sg74
(lp280
S'comment'
p281
asbag67
(g88
g69
NtRp282
(dp283
g72
(dp284
g99
g100
ssg81
g273
sg74
(lp285
S':'
asbag67
(g88
g69
NtRp286
(dp287
g72
(dp288
sg81
g273
sg74
(lp289
g67
(g68
g69
NtRp290
(dp291
g72
(dp292
g80
I3
ssg81
g286
sg74
(lp293
S''
asbasbasbag67
(g83
g69
NtRp294
(dp295
g72
(dp296
sg81
g269
sg74
(lp297
g67
(g88
g69
NtRp298
(dp299
g72
(dp300
g92
g93
ssg81
g294
sg74
(lp301
S'domain'
p302
asbag67
(g88
g69
NtRp303
(dp304
g72
(dp305
g99
g100
ssg81
g294
sg74
(lp306
S':'
asbag67
(g88
g69
NtRp307
(dp308
g72
(dp309
sg81
g294
sg74
(lp310
g67
(g68
g69
NtRp311
(dp312
g72
(dp313
g80
I3
ssg81
g307
sg74
(lp314
S''
asbasbasbag67
(g83
g69
NtRp315
(dp316
g72
(dp317
sg81
g269
sg74
(lp318
g67
(g88
g69
NtRp319
(dp320
g72
(dp321
g92
g93
ssg81
g315
sg74
(lp322
S'expires'
p323
asbag67
(g88
g69
NtRp324
(dp325
g72
(dp326
g99
g100
ssg81
g315
sg74
(lp327
S':'
asbag67
(g88
g69
NtRp328
(dp329
g72
(dp330
sg81
g315
sg74
(lp331
g67
(g68
g69
NtRp332
(dp333
g72
(dp334
g80
I3
ssg81
g328
sg74
(lp335
S''
asbasbasbag67
(g83
g69
NtRp336
(dp337
g72
(dp338
sg81
g269
sg74
(lp339
g67
(g88
g69
NtRp340
(dp341
g72
(dp342
g92
g93
ssg81
g336
sg74
(lp343
S'httponly'
p344
asbag67
(g88
g69
NtRp345
(dp346
g72
(dp347
g99
g100
ssg81
g336
sg74
(lp348
S':'
asbag67
(g88
g69
NtRp349
(dp350
g72
(dp351
sg81
g336
sg74
(lp352
g67
(g68
g69
NtRp353
(dp354
g72
(dp355
g80
I3
ssg81
g349
sg74
(lp356
S''
asbasbasbag67
(g83
g69
NtRp357
(dp358
g72
(dp359
sg81
g269
sg74
(lp360
g67
(g88
g69
NtRp361
(dp362
g72
(dp363
g92
g93
ssg81
g357
sg74
(lp364
S'max-age'
p365
asbag67
(g88
g69
NtRp366
(dp367
g72
(dp368
g99
g100
ssg81
g357
sg74
(lp369
S':'
asbag67
(g88
g69
NtRp370
(dp371
g72
(dp372
sg81
g357
sg74
(lp373
g67
(g68
g69
NtRp374
(dp375
g72
(dp376
g80
I3
ssg81
g370
sg74
(lp377
S''
asbasbasbag67
(g83
g69
NtRp378
(dp379
g72
(dp380
sg81
g269
sg74
(lp381
g67
(g88
g69
NtRp382
(dp383
g72
(dp384
g92
g93
ssg81
g378
sg74
(lp385
S'path'
p386
asbag67
(g88
g69
NtRp387
(dp388
g72
(dp389
g99
g100
ssg81
g378
sg74
(lp390
S':'
asbag67
(g88
g69
NtRp391
(dp392
g72
(dp393
sg81
g378
sg74
(lp394
g67
(g68
g69
NtRp395
(dp396
g72
(dp397
g80
I3
ssg81
g391
sg74
(lp398
S''
asbasbasbag67
(g83
g69
NtRp399
(dp400
g72
(dp401
sg81
g269
sg74
(lp402
g67
(g88
g69
NtRp403
(dp404
g72
(dp405
g92
g93
ssg81
g399
sg74
(lp406
S'secure'
p407
asbag67
(g88
g69
NtRp408
(dp409
g72
(dp410
g99
g100
ssg81
g399
sg74
(lp411
S':'
asbag67
(g88
g69
NtRp412
(dp413
g72
(dp414
sg81
g399
sg74
(lp415
g67
(g68
g69
NtRp416
(dp417
g72
(dp418
g80
I3
ssg81
g412
sg74
(lp419
S''
asbasbasbag67
(g83
g69
NtRp420
(dp421
g72
(dp422
sg81
g269
sg74
(lp423
g67
(g88
g69
NtRp424
(dp425
g72
(dp426
g92
g93
ssg81
g420
sg74
(lp427
S'version'
p428
asbag67
(g88
g69
NtRp429
(dp430
g72
(dp431
g99
g100
ssg81
g420
sg74
(lp432
S':'
asbag67
(g88
g69
NtRp433
(dp434
g72
(dp435
sg81
g420
sg74
(lp436
g67
(g68
g69
NtRp437
(dp438
g72
(dp439
g80
I3
ssg81
g433
sg74
(lp440
S''
asbasbasbasbasbasbasbag67
(g83
g69
NtRp441
(dp442
g72
(dp443
sg81
g244
sg74
(lp444
g67
(g88
g69
NtRp445
(dp446
g72
(dp447
g92
g93
ssg81
g441
sg74
(lp448
S'session_id_contador'
p449
asbag67
(g88
g69
NtRp450
(dp451
g72
(dp452
g99
g100
ssg81
g441
sg74
(lp453
S':'
asbag67
(g88
g69
NtRp454
(dp455
g72
(dp456
sg81
g441
sg74
(lp457
g67
(g68
g69
NtRp458
(dp459
g72
(dp460
g80
I4
ssg81
g454
sg74
(lp461
g67
(g76
g69
NtRp462
(dp463
g72
(dp464
g80
I3
ssg81
Nsg74
(lp465
g67
(g83
g69
NtRp466
(dp467
g72
(dp468
sg81
g462
sg74
(lp469
g67
(g88
g69
NtRp470
(dp471
g72
(dp472
g92
g93
ssg81
g466
sg74
(lp473
g281
asbag67
(g88
g69
NtRp474
(dp475
g72
(dp476
g99
g100
ssg81
g466
sg74
(lp477
S':'
asbag67
(g88
g69
NtRp478
(dp479
g72
(dp480
sg81
g466
sg74
(lp481
g67
(g68
g69
NtRp482
(dp483
g72
(dp484
g80
I3
ssg81
g478
sg74
(lp485
S''
asbasbasbag67
(g83
g69
NtRp486
(dp487
g72
(dp488
sg81
g462
sg74
(lp489
g67
(g88
g69
NtRp490
(dp491
g72
(dp492
g92
g93
ssg81
g486
sg74
(lp493
g302
asbag67
(g88
g69
NtRp494
(dp495
g72
(dp496
g99
g100
ssg81
g486
sg74
(lp497
S':'
asbag67
(g88
g69
NtRp498
(dp499
g72
(dp500
sg81
g486
sg74
(lp501
g67
(g68
g69
NtRp502
(dp503
g72
(dp504
g80
I3
ssg81
g498
sg74
(lp505
S''
asbasbasbag67
(g83
g69
NtRp506
(dp507
g72
(dp508
sg81
g462
sg74
(lp509
g67
(g88
g69
NtRp510
(dp511
g72
(dp512
g92
g93
ssg81
g506
sg74
(lp513
g323
asbag67
(g88
g69
NtRp514
(dp515
g72
(dp516
g99
g100
ssg81
g506
sg74
(lp517
S':'
asbag67
(g88
g69
NtRp518
(dp519
g72
(dp520
sg81
g506
sg74
(lp521
g67
(g68
g69
NtRp522
(dp523
g72
(dp524
g80
I3
ssg81
g518
sg74
(lp525
S''
asbasbasbag67
(g83
g69
NtRp526
(dp527
g72
(dp528
sg81
g462
sg74
(lp529
g67
(g88
g69
NtRp530
(dp531
g72
(dp532
g92
g93
ssg81
g526
sg74
(lp533
g344
asbag67
(g88
g69
NtRp534
(dp535
g72
(dp536
g99
g100
ssg81
g526
sg74
(lp537
S':'
asbag67
(g88
g69
NtRp538
(dp539
g72
(dp540
sg81
g526
sg74
(lp541
g67
(g68
g69
NtRp542
(dp543
g72
(dp544
g80
I3
ssg81
g538
sg74
(lp545
S''
asbasbasbag67
(g83
g69
NtRp546
(dp547
g72
(dp548
sg81
g462
sg74
(lp549
g67
(g88
g69
NtRp550
(dp551
g72
(dp552
g92
g93
ssg81
g546
sg74
(lp553
g365
asbag67
(g88
g69
NtRp554
(dp555
g72
(dp556
g99
g100
ssg81
g546
sg74
(lp557
S':'
asbag67
(g88
g69
NtRp558
(dp559
g72
(dp560
sg81
g546
sg74
(lp561
g67
(g68
g69
NtRp562
(dp563
g72
(dp564
g80
I3
ssg81
g558
sg74
(lp565
S''
asbasbasbag67
(g83
g69
NtRp566
(dp567
g72
(dp568
sg81
g462
sg74
(lp569
g67
(g88
g69
NtRp570
(dp571
g72
(dp572
g92
g93
ssg81
g566
sg74
(lp573
g386
asbag67
(g88
g69
NtRp574
(dp575
g72
(dp576
g99
g100
ssg81
g566
sg74
(lp577
S':'
asbag67
(g88
g69
NtRp578
(dp579
g72
(dp580
sg81
g566
sg74
(lp581
g67
(g68
g69
NtRp582
(dp583
g72
(dp584
g80
I3
ssg81
g578
sg74
(lp585
S''
asbasbasbag67
(g83
g69
NtRp586
(dp587
g72
(dp588
sg81
g462
sg74
(lp589
g67
(g88
g69
NtRp590
(dp591
g72
(dp592
g92
g93
ssg81
g586
sg74
(lp593
g407
asbag67
(g88
g69
NtRp594
(dp595
g72
(dp596
g99
g100
ssg81
g586
sg74
(lp597
S':'
asbag67
(g88
g69
NtRp598
(dp599
g72
(dp600
sg81
g586
sg74
(lp601
g67
(g68
g69
NtRp602
(dp603
g72
(dp604
g80
I3
ssg81
g598
sg74
(lp605
S''
asbasbasbag67
(g83
g69
NtRp606
(dp607
g72
(dp608
sg81
g462
sg74
(lp609
g67
(g88
g69
NtRp610
(dp611
g72
(dp612
g92
g93
ssg81
g606
sg74
(lp613
g428
asbag67
(g88
g69
NtRp614
(dp615
g72
(dp616
g99
g100
ssg81
g606
sg74
(lp617
S':'
asbag67
(g88
g69
NtRp618
(dp619
g72
(dp620
sg81
g606
sg74
(lp621
g67
(g68
g69
NtRp622
(dp623
g72
(dp624
g80
I3
ssg81
g618
sg74
(lp625
S''
asbasbasbasbasbasbasbag67
(g83
g69
NtRp626
(dp627
g72
(dp628
sg81
g244
sg74
(lp629
g67
(g88
g69
NtRp630
(dp631
g72
(dp632
g92
g93
ssg81
g626
sg74
(lp633
S'session_id_fayol'
p634
asbag67
(g88
g69
NtRp635
(dp636
g72
(dp637
g99
g100
ssg81
g626
sg74
(lp638
S':'
asbag67
(g88
g69
NtRp639
(dp640
g72
(dp641
sg81
g626
sg74
(lp642
g67
(g68
g69
NtRp643
(dp644
g72
(dp645
g80
I4
ssg81
g639
sg74
(lp646
g67
(g76
g69
NtRp647
(dp648
g72
(dp649
g80
I3
ssg81
Nsg74
(lp650
g67
(g83
g69
NtRp651
(dp652
g72
(dp653
sg81
g647
sg74
(lp654
g67
(g88
g69
NtRp655
(dp656
g72
(dp657
g92
g93
ssg81
g651
sg74
(lp658
g281
asbag67
(g88
g69
NtRp659
(dp660
g72
(dp661
g99
g100
ssg81
g651
sg74
(lp662
S':'
asbag67
(g88
g69
NtRp663
(dp664
g72
(dp665
sg81
g651
sg74
(lp666
g67
(g68
g69
NtRp667
(dp668
g72
(dp669
g80
I3
ssg81
g663
sg74
(lp670
S''
asbasbasbag67
(g83
g69
NtRp671
(dp672
g72
(dp673
sg81
g647
sg74
(lp674
g67
(g88
g69
NtRp675
(dp676
g72
(dp677
g92
g93
ssg81
g671
sg74
(lp678
g302
asbag67
(g88
g69
NtRp679
(dp680
g72
(dp681
g99
g100
ssg81
g671
sg74
(lp682
S':'
asbag67
(g88
g69
NtRp683
(dp684
g72
(dp685
sg81
g671
sg74
(lp686
g67
(g68
g69
NtRp687
(dp688
g72
(dp689
g80
I3
ssg81
g683
sg74
(lp690
S''
asbasbasbag67
(g83
g69
NtRp691
(dp692
g72
(dp693
sg81
g647
sg74
(lp694
g67
(g88
g69
NtRp695
(dp696
g72
(dp697
g92
g93
ssg81
g691
sg74
(lp698
g323
asbag67
(g88
g69
NtRp699
(dp700
g72
(dp701
g99
g100
ssg81
g691
sg74
(lp702
S':'
asbag67
(g88
g69
NtRp703
(dp704
g72
(dp705
sg81
g691
sg74
(lp706
g67
(g68
g69
NtRp707
(dp708
g72
(dp709
g80
I3
ssg81
g703
sg74
(lp710
S''
asbasbasbag67
(g83
g69
NtRp711
(dp712
g72
(dp713
sg81
g647
sg74
(lp714
g67
(g88
g69
NtRp715
(dp716
g72
(dp717
g92
g93
ssg81
g711
sg74
(lp718
g344
asbag67
(g88
g69
NtRp719
(dp720
g72
(dp721
g99
g100
ssg81
g711
sg74
(lp722
S':'
asbag67
(g88
g69
NtRp723
(dp724
g72
(dp725
sg81
g711
sg74
(lp726
g67
(g68
g69
NtRp727
(dp728
g72
(dp729
g80
I3
ssg81
g723
sg74
(lp730
S''
asbasbasbag67
(g83
g69
NtRp731
(dp732
g72
(dp733
sg81
g647
sg74
(lp734
g67
(g88
g69
NtRp735
(dp736
g72
(dp737
g92
g93
ssg81
g731
sg74
(lp738
g365
asbag67
(g88
g69
NtRp739
(dp740
g72
(dp741
g99
g100
ssg81
g731
sg74
(lp742
S':'
asbag67
(g88
g69
NtRp743
(dp744
g72
(dp745
sg81
g731
sg74
(lp746
g67
(g68
g69
NtRp747
(dp748
g72
(dp749
g80
I3
ssg81
g743
sg74
(lp750
S''
asbasbasbag67
(g83
g69
NtRp751
(dp752
g72
(dp753
sg81
g647
sg74
(lp754
g67
(g88
g69
NtRp755
(dp756
g72
(dp757
g92
g93
ssg81
g751
sg74
(lp758
g386
asbag67
(g88
g69
NtRp759
(dp760
g72
(dp761
g99
g100
ssg81
g751
sg74
(lp762
S':'
asbag67
(g88
g69
NtRp763
(dp764
g72
(dp765
sg81
g751
sg74
(lp766
g67
(g68
g69
NtRp767
(dp768
g72
(dp769
g80
I3
ssg81
g763
sg74
(lp770
S''
asbasbasbag67
(g83
g69
NtRp771
(dp772
g72
(dp773
sg81
g647
sg74
(lp774
g67
(g88
g69
NtRp775
(dp776
g72
(dp777
g92
g93
ssg81
g771
sg74
(lp778
g407
asbag67
(g88
g69
NtRp779
(dp780
g72
(dp781
g99
g100
ssg81
g771
sg74
(lp782
S':'
asbag67
(g88
g69
NtRp783
(dp784
g72
(dp785
sg81
g771
sg74
(lp786
g67
(g68
g69
NtRp787
(dp788
g72
(dp789
g80
I3
ssg81
g783
sg74
(lp790
S''
asbasbasbag67
(g83
g69
NtRp791
(dp792
g72
(dp793
sg81
g647
sg74
(lp794
g67
(g88
g69
NtRp795
(dp796
g72
(dp797
g92
g93
ssg81
g791
sg74
(lp798
g428
asbag67
(g88
g69
NtRp799
(dp800
g72
(dp801
g99
g100
ssg81
g791
sg74
(lp802
S':'
asbag67
(g88
g69
NtRp803
(dp804
g72
(dp805
sg81
g791
sg74
(lp806
g67
(g68
g69
NtRp807
(dp808
g72
(dp809
g80
I3
ssg81
g803
sg74
(lp810
S''
asbasbasbasbasbasbasbag67
(g83
g69
NtRp811
(dp812
g72
(dp813
sg81
g244
sg74
(lp814
g67
(g88
g69
NtRp815
(dp816
g72
(dp817
g92
g93
ssg81
g811
sg74
(lp818
S'session_id_nombres'
p819
asbag67
(g88
g69
NtRp820
(dp821
g72
(dp822
g99
g100
ssg81
g811
sg74
(lp823
S':'
asbag67
(g88
g69
NtRp824
(dp825
g72
(dp826
sg81
g811
sg74
(lp827
g67
(g68
g69
NtRp828
(dp829
g72
(dp830
g80
I4
ssg81
g824
sg74
(lp831
g67
(g76
g69
NtRp832
(dp833
g72
(dp834
g80
I3
ssg81
Nsg74
(lp835
g67
(g83
g69
NtRp836
(dp837
g72
(dp838
sg81
g832
sg74
(lp839
g67
(g88
g69
NtRp840
(dp841
g72
(dp842
g92
g93
ssg81
g836
sg74
(lp843
g281
asbag67
(g88
g69
NtRp844
(dp845
g72
(dp846
g99
g100
ssg81
g836
sg74
(lp847
S':'
asbag67
(g88
g69
NtRp848
(dp849
g72
(dp850
sg81
g836
sg74
(lp851
g67
(g68
g69
NtRp852
(dp853
g72
(dp854
g80
I3
ssg81
g848
sg74
(lp855
S''
asbasbasbag67
(g83
g69
NtRp856
(dp857
g72
(dp858
sg81
g832
sg74
(lp859
g67
(g88
g69
NtRp860
(dp861
g72
(dp862
g92
g93
ssg81
g856
sg74
(lp863
g302
asbag67
(g88
g69
NtRp864
(dp865
g72
(dp866
g99
g100
ssg81
g856
sg74
(lp867
S':'
asbag67
(g88
g69
NtRp868
(dp869
g72
(dp870
sg81
g856
sg74
(lp871
g67
(g68
g69
NtRp872
(dp873
g72
(dp874
g80
I3
ssg81
g868
sg74
(lp875
S''
asbasbasbag67
(g83
g69
NtRp876
(dp877
g72
(dp878
sg81
g832
sg74
(lp879
g67
(g88
g69
NtRp880
(dp881
g72
(dp882
g92
g93
ssg81
g876
sg74
(lp883
g323
asbag67
(g88
g69
NtRp884
(dp885
g72
(dp886
g99
g100
ssg81
g876
sg74
(lp887
S':'
asbag67
(g88
g69
NtRp888
(dp889
g72
(dp890
sg81
g876
sg74
(lp891
g67
(g68
g69
NtRp892
(dp893
g72
(dp894
g80
I3
ssg81
g888
sg74
(lp895
S''
asbasbasbag67
(g83
g69
NtRp896
(dp897
g72
(dp898
sg81
g832
sg74
(lp899
g67
(g88
g69
NtRp900
(dp901
g72
(dp902
g92
g93
ssg81
g896
sg74
(lp903
g344
asbag67
(g88
g69
NtRp904
(dp905
g72
(dp906
g99
g100
ssg81
g896
sg74
(lp907
S':'
asbag67
(g88
g69
NtRp908
(dp909
g72
(dp910
sg81
g896
sg74
(lp911
g67
(g68
g69
NtRp912
(dp913
g72
(dp914
g80
I3
ssg81
g908
sg74
(lp915
S''
asbasbasbag67
(g83
g69
NtRp916
(dp917
g72
(dp918
sg81
g832
sg74
(lp919
g67
(g88
g69
NtRp920
(dp921
g72
(dp922
g92
g93
ssg81
g916
sg74
(lp923
g365
asbag67
(g88
g69
NtRp924
(dp925
g72
(dp926
g99
g100
ssg81
g916
sg74
(lp927
S':'
asbag67
(g88
g69
NtRp928
(dp929
g72
(dp930
sg81
g916
sg74
(lp931
g67
(g68
g69
NtRp932
(dp933
g72
(dp934
g80
I3
ssg81
g928
sg74
(lp935
S''
asbasbasbag67
(g83
g69
NtRp936
(dp937
g72
(dp938
sg81
g832
sg74
(lp939
g67
(g88
g69
NtRp940
(dp941
g72
(dp942
g92
g93
ssg81
g936
sg74
(lp943
g386
asbag67
(g88
g69
NtRp944
(dp945
g72
(dp946
g99
g100
ssg81
g936
sg74
(lp947
S':'
asbag67
(g88
g69
NtRp948
(dp949
g72
(dp950
sg81
g936
sg74
(lp951
g67
(g68
g69
NtRp952
(dp953
g72
(dp954
g80
I3
ssg81
g948
sg74
(lp955
S''
asbasbasbag67
(g83
g69
NtRp956
(dp957
g72
(dp958
sg81
g832
sg74
(lp959
g67
(g88
g69
NtRp960
(dp961
g72
(dp962
g92
g93
ssg81
g956
sg74
(lp963
g407
asbag67
(g88
g69
NtRp964
(dp965
g72
(dp966
g99
g100
ssg81
g956
sg74
(lp967
S':'
asbag67
(g88
g69
NtRp968
(dp969
g72
(dp970
sg81
g956
sg74
(lp971
g67
(g68
g69
NtRp972
(dp973
g72
(dp974
g80
I3
ssg81
g968
sg74
(lp975
S''
asbasbasbag67
(g83
g69
NtRp976
(dp977
g72
(dp978
sg81
g832
sg74
(lp979
g67
(g88
g69
NtRp980
(dp981
g72
(dp982
g92
g93
ssg81
g976
sg74
(lp983
g428
asbag67
(g88
g69
NtRp984
(dp985
g72
(dp986
g99
g100
ssg81
g976
sg74
(lp987
S':'
asbag67
(g88
g69
NtRp988
(dp989
g72
(dp990
sg81
g976
sg74
(lp991
g67
(g68
g69
NtRp992
(dp993
g72
(dp994
g80
I3
ssg81
g988
sg74
(lp995
S''
asbasbasbasbasbasbasbag67
(g83
g69
NtRp996
(dp997
g72
(dp998
sg81
g244
sg74
(lp999
g67
(g88
g69
NtRp1000
(dp1001
g72
(dp1002
g92
g93
ssg81
g996
sg74
(lp1003
S'session_id_randomwords'
p1004
asbag67
(g88
g69
NtRp1005
(dp1006
g72
(dp1007
g99
g100
ssg81
g996
sg74
(lp1008
S':'
asbag67
(g88
g69
NtRp1009
(dp1010
g72
(dp1011
sg81
g996
sg74
(lp1012
g67
(g68
g69
NtRp1013
(dp1014
g72
(dp1015
g80
I4
ssg81
g1009
sg74
(lp1016
g67
(g76
g69
NtRp1017
(dp1018
g72
(dp1019
g80
I3
ssg81
Nsg74
(lp1020
g67
(g83
g69
NtRp1021
(dp1022
g72
(dp1023
sg81
g1017
sg74
(lp1024
g67
(g88
g69
NtRp1025
(dp1026
g72
(dp1027
g92
g93
ssg81
g1021
sg74
(lp1028
g281
asbag67
(g88
g69
NtRp1029
(dp1030
g72
(dp1031
g99
g100
ssg81
g1021
sg74
(lp1032
S':'
asbag67
(g88
g69
NtRp1033
(dp1034
g72
(dp1035
sg81
g1021
sg74
(lp1036
g67
(g68
g69
NtRp1037
(dp1038
g72
(dp1039
g80
I3
ssg81
g1033
sg74
(lp1040
S''
asbasbasbag67
(g83
g69
NtRp1041
(dp1042
g72
(dp1043
sg81
g1017
sg74
(lp1044
g67
(g88
g69
NtRp1045
(dp1046
g72
(dp1047
g92
g93
ssg81
g1041
sg74
(lp1048
g302
asbag67
(g88
g69
NtRp1049
(dp1050
g72
(dp1051
g99
g100
ssg81
g1041
sg74
(lp1052
S':'
asbag67
(g88
g69
NtRp1053
(dp1054
g72
(dp1055
sg81
g1041
sg74
(lp1056
g67
(g68
g69
NtRp1057
(dp1058
g72
(dp1059
g80
I3
ssg81
g1053
sg74
(lp1060
S''
asbasbasbag67
(g83
g69
NtRp1061
(dp1062
g72
(dp1063
sg81
g1017
sg74
(lp1064
g67
(g88
g69
NtRp1065
(dp1066
g72
(dp1067
g92
g93
ssg81
g1061
sg74
(lp1068
g323
asbag67
(g88
g69
NtRp1069
(dp1070
g72
(dp1071
g99
g100
ssg81
g1061
sg74
(lp1072
S':'
asbag67
(g88
g69
NtRp1073
(dp1074
g72
(dp1075
sg81
g1061
sg74
(lp1076
g67
(g68
g69
NtRp1077
(dp1078
g72
(dp1079
g80
I3
ssg81
g1073
sg74
(lp1080
S''
asbasbasbag67
(g83
g69
NtRp1081
(dp1082
g72
(dp1083
sg81
g1017
sg74
(lp1084
g67
(g88
g69
NtRp1085
(dp1086
g72
(dp1087
g92
g93
ssg81
g1081
sg74
(lp1088
g344
asbag67
(g88
g69
NtRp1089
(dp1090
g72
(dp1091
g99
g100
ssg81
g1081
sg74
(lp1092
S':'
asbag67
(g88
g69
NtRp1093
(dp1094
g72
(dp1095
sg81
g1081
sg74
(lp1096
g67
(g68
g69
NtRp1097
(dp1098
g72
(dp1099
g80
I3
ssg81
g1093
sg74
(lp1100
S''
asbasbasbag67
(g83
g69
NtRp1101
(dp1102
g72
(dp1103
sg81
g1017
sg74
(lp1104
g67
(g88
g69
NtRp1105
(dp1106
g72
(dp1107
g92
g93
ssg81
g1101
sg74
(lp1108
g365
asbag67
(g88
g69
NtRp1109
(dp1110
g72
(dp1111
g99
g100
ssg81
g1101
sg74
(lp1112
S':'
asbag67
(g88
g69
NtRp1113
(dp1114
g72
(dp1115
sg81
g1101
sg74
(lp1116
g67
(g68
g69
NtRp1117
(dp1118
g72
(dp1119
g80
I3
ssg81
g1113
sg74
(lp1120
S''
asbasbasbag67
(g83
g69
NtRp1121
(dp1122
g72
(dp1123
sg81
g1017
sg74
(lp1124
g67
(g88
g69
NtRp1125
(dp1126
g72
(dp1127
g92
g93
ssg81
g1121
sg74
(lp1128
g386
asbag67
(g88
g69
NtRp1129
(dp1130
g72
(dp1131
g99
g100
ssg81
g1121
sg74
(lp1132
S':'
asbag67
(g88
g69
NtRp1133
(dp1134
g72
(dp1135
sg81
g1121
sg74
(lp1136
g67
(g68
g69
NtRp1137
(dp1138
g72
(dp1139
g80
I3
ssg81
g1133
sg74
(lp1140
S''
asbasbasbag67
(g83
g69
NtRp1141
(dp1142
g72
(dp1143
sg81
g1017
sg74
(lp1144
g67
(g88
g69
NtRp1145
(dp1146
g72
(dp1147
g92
g93
ssg81
g1141
sg74
(lp1148
g407
asbag67
(g88
g69
NtRp1149
(dp1150
g72
(dp1151
g99
g100
ssg81
g1141
sg74
(lp1152
S':'
asbag67
(g88
g69
NtRp1153
(dp1154
g72
(dp1155
sg81
g1141
sg74
(lp1156
g67
(g68
g69
NtRp1157
(dp1158
g72
(dp1159
g80
I3
ssg81
g1153
sg74
(lp1160
S''
asbasbasbag67
(g83
g69
NtRp1161
(dp1162
g72
(dp1163
sg81
g1017
sg74
(lp1164
g67
(g88
g69
NtRp1165
(dp1166
g72
(dp1167
g92
g93
ssg81
g1161
sg74
(lp1168
g428
asbag67
(g88
g69
NtRp1169
(dp1170
g72
(dp1171
g99
g100
ssg81
g1161
sg74
(lp1172
S':'
asbag67
(g88
g69
NtRp1173
(dp1174
g72
(dp1175
sg81
g1161
sg74
(lp1176
g67
(g68
g69
NtRp1177
(dp1178
g72
(dp1179
g80
I3
ssg81
g1173
sg74
(lp1180
S''
asbasbasbasbasbasbasbag67
(g83
g69
NtRp1181
(dp1182
g72
(dp1183
sg81
g244
sg74
(lp1184
g67
(g88
g69
NtRp1185
(dp1186
g72
(dp1187
g92
g93
ssg81
g1181
sg74
(lp1188
S'session_id_welcome'
p1189
asbag67
(g88
g69
NtRp1190
(dp1191
g72
(dp1192
g99
g100
ssg81
g1181
sg74
(lp1193
S':'
asbag67
(g88
g69
NtRp1194
(dp1195
g72
(dp1196
sg81
g1181
sg74
(lp1197
g67
(g68
g69
NtRp1198
(dp1199
g72
(dp1200
g80
I4
ssg81
g1194
sg74
(lp1201
g67
(g76
g69
NtRp1202
(dp1203
g72
(dp1204
g80
I3
ssg81
Nsg74
(lp1205
g67
(g83
g69
NtRp1206
(dp1207
g72
(dp1208
sg81
g1202
sg74
(lp1209
g67
(g88
g69
NtRp1210
(dp1211
g72
(dp1212
g92
g93
ssg81
g1206
sg74
(lp1213
g281
asbag67
(g88
g69
NtRp1214
(dp1215
g72
(dp1216
g99
g100
ssg81
g1206
sg74
(lp1217
S':'
asbag67
(g88
g69
NtRp1218
(dp1219
g72
(dp1220
sg81
g1206
sg74
(lp1221
g67
(g68
g69
NtRp1222
(dp1223
g72
(dp1224
g80
I3
ssg81
g1218
sg74
(lp1225
S''
asbasbasbag67
(g83
g69
NtRp1226
(dp1227
g72
(dp1228
sg81
g1202
sg74
(lp1229
g67
(g88
g69
NtRp1230
(dp1231
g72
(dp1232
g92
g93
ssg81
g1226
sg74
(lp1233
g302
asbag67
(g88
g69
NtRp1234
(dp1235
g72
(dp1236
g99
g100
ssg81
g1226
sg74
(lp1237
S':'
asbag67
(g88
g69
NtRp1238
(dp1239
g72
(dp1240
sg81
g1226
sg74
(lp1241
g67
(g68
g69
NtRp1242
(dp1243
g72
(dp1244
g80
I3
ssg81
g1238
sg74
(lp1245
S''
asbasbasbag67
(g83
g69
NtRp1246
(dp1247
g72
(dp1248
sg81
g1202
sg74
(lp1249
g67
(g88
g69
NtRp1250
(dp1251
g72
(dp1252
g92
g93
ssg81
g1246
sg74
(lp1253
g323
asbag67
(g88
g69
NtRp1254
(dp1255
g72
(dp1256
g99
g100
ssg81
g1246
sg74
(lp1257
S':'
asbag67
(g88
g69
NtRp1258
(dp1259
g72
(dp1260
sg81
g1246
sg74
(lp1261
g67
(g68
g69
NtRp1262
(dp1263
g72
(dp1264
g80
I3
ssg81
g1258
sg74
(lp1265
S''
asbasbasbag67
(g83
g69
NtRp1266
(dp1267
g72
(dp1268
sg81
g1202
sg74
(lp1269
g67
(g88
g69
NtRp1270
(dp1271
g72
(dp1272
g92
g93
ssg81
g1266
sg74
(lp1273
g344
asbag67
(g88
g69
NtRp1274
(dp1275
g72
(dp1276
g99
g100
ssg81
g1266
sg74
(lp1277
S':'
asbag67
(g88
g69
NtRp1278
(dp1279
g72
(dp1280
sg81
g1266
sg74
(lp1281
g67
(g68
g69
NtRp1282
(dp1283
g72
(dp1284
g80
I3
ssg81
g1278
sg74
(lp1285
S''
asbasbasbag67
(g83
g69
NtRp1286
(dp1287
g72
(dp1288
sg81
g1202
sg74
(lp1289
g67
(g88
g69
NtRp1290
(dp1291
g72
(dp1292
g92
g93
ssg81
g1286
sg74
(lp1293
g365
asbag67
(g88
g69
NtRp1294
(dp1295
g72
(dp1296
g99
g100
ssg81
g1286
sg74
(lp1297
S':'
asbag67
(g88
g69
NtRp1298
(dp1299
g72
(dp1300
sg81
g1286
sg74
(lp1301
g67
(g68
g69
NtRp1302
(dp1303
g72
(dp1304
g80
I3
ssg81
g1298
sg74
(lp1305
S''
asbasbasbag67
(g83
g69
NtRp1306
(dp1307
g72
(dp1308
sg81
g1202
sg74
(lp1309
g67
(g88
g69
NtRp1310
(dp1311
g72
(dp1312
g92
g93
ssg81
g1306
sg74
(lp1313
g386
asbag67
(g88
g69
NtRp1314
(dp1315
g72
(dp1316
g99
g100
ssg81
g1306
sg74
(lp1317
S':'
asbag67
(g88
g69
NtRp1318
(dp1319
g72
(dp1320
sg81
g1306
sg74
(lp1321
g67
(g68
g69
NtRp1322
(dp1323
g72
(dp1324
g80
I3
ssg81
g1318
sg74
(lp1325
S''
asbasbasbag67
(g83
g69
NtRp1326
(dp1327
g72
(dp1328
sg81
g1202
sg74
(lp1329
g67
(g88
g69
NtRp1330
(dp1331
g72
(dp1332
g92
g93
ssg81
g1326
sg74
(lp1333
g407
asbag67
(g88
g69
NtRp1334
(dp1335
g72
(dp1336
g99
g100
ssg81
g1326
sg74
(lp1337
S':'
asbag67
(g88
g69
NtRp1338
(dp1339
g72
(dp1340
sg81
g1326
sg74
(lp1341
g67
(g68
g69
NtRp1342
(dp1343
g72
(dp1344
g80
I3
ssg81
g1338
sg74
(lp1345
S''
asbasbasbag67
(g83
g69
NtRp1346
(dp1347
g72
(dp1348
sg81
g1202
sg74
(lp1349
g67
(g88
g69
NtRp1350
(dp1351
g72
(dp1352
g92
g93
ssg81
g1346
sg74
(lp1353
g428
asbag67
(g88
g69
NtRp1354
(dp1355
g72
(dp1356
g99
g100
ssg81
g1346
sg74
(lp1357
S':'
asbag67
(g88
g69
NtRp1358
(dp1359
g72
(dp1360
sg81
g1346
sg74
(lp1361
g67
(g68
g69
NtRp1362
(dp1363
g72
(dp1364
g80
I3
ssg81
g1358
sg74
(lp1365
S''
asbasbasbasbasbasbasbasbasbasbasbag67
(g83
g69
NtRp1366
(dp1367
g72
(dp1368
sg81
g77
sg74
(lp1369
g67
(g88
g69
NtRp1370
(dp1371
g72
(dp1372
g92
g93
ssg81
g1366
sg74
(lp1373
S'env'
p1374
asbag67
(g88
g69
NtRp1375
(dp1376
g72
(dp1377
g99
g100
ssg81
g1366
sg74
(lp1378
S':'
asbag67
(g88
g69
NtRp1379
(dp1380
g72
(dp1381
sg81
g1366
sg74
(lp1382
g67
(g68
g69
NtRp1383
(dp1384
g72
(dp1385
g80
I5
ssg81
g1379
sg74
(lp1386
g67
(g76
g69
NtRp1387
(dp1388
g72
(dp1389
g80
I4
ssg81
Nsg74
(lp1390
g67
(g83
g69
NtRp1391
(dp1392
g72
(dp1393
sg81
g1387
sg74
(lp1394
g67
(g88
g69
NtRp1395
(dp1396
g72
(dp1397
g92
g93
ssg81
g1391
sg74
(lp1398
S'app_folders'
p1399
asbag67
(g88
g69
NtRp1400
(dp1401
g72
(dp1402
g99
g100
ssg81
g1391
sg74
(lp1403
S':'
asbag67
(g88
g69
NtRp1404
(dp1405
g72
(dp1406
sg81
g1391
sg74
(lp1407
g67
(g68
g69
NtRp1408
(dp1409
g72
(dp1410
g80
I4
ssg81
g1404
sg74
(lp1411
S"set(['/Users/emir/Documents/beardcode/web2py/applications/randomwords/', '/Users/emir/Documents/beardcode/web2py/applications/admin/', '/Users/emir/Documents/beardcode/web2py/applications/fayol/'])"
p1412
asbasbasbag67
(g83
g69
NtRp1413
(dp1414
g72
(dp1415
sg81
g1387
sg74
(lp1416
g67
(g88
g69
NtRp1417
(dp1418
g72
(dp1419
g92
g93
ssg81
g1413
sg74
(lp1420
S'applications_parent'
p1421
asbag67
(g88
g69
NtRp1422
(dp1423
g72
(dp1424
g99
g100
ssg81
g1413
sg74
(lp1425
S':'
asbag67
(g88
g69
NtRp1426
(dp1427
g72
(dp1428
sg81
g1413
sg74
(lp1429
g67
(g68
g69
NtRp1430
(dp1431
g72
(dp1432
g80
I4
ssg81
g1426
sg74
(lp1433
S'/Users/emir/Documents/beardcode/web2py'
p1434
asbasbasbag67
(g83
g69
NtRp1435
(dp1436
g72
(dp1437
sg81
g1387
sg74
(lp1438
g67
(g88
g69
NtRp1439
(dp1440
g72
(dp1441
g92
g93
ssg81
g1435
sg74
(lp1442
S'db_sessions'
p1443
asbag67
(g88
g69
NtRp1444
(dp1445
g72
(dp1446
g99
g100
ssg81
g1435
sg74
(lp1447
S':'
asbag67
(g88
g69
NtRp1448
(dp1449
g72
(dp1450
sg81
g1435
sg74
(lp1451
g67
(g68
g69
NtRp1452
(dp1453
g72
(dp1454
g80
I4
ssg81
g1448
sg74
(lp1455
S'set([])'
p1456
asbasbasbag67
(g83
g69
NtRp1457
(dp1458
g72
(dp1459
sg81
g1387
sg74
(lp1460
g67
(g88
g69
NtRp1461
(dp1462
g72
(dp1463
g92
g93
ssg81
g1457
sg74
(lp1464
S'debugging'
p1465
asbag67
(g88
g69
NtRp1466
(dp1467
g72
(dp1468
g99
g100
ssg81
g1457
sg74
(lp1469
S':'
asbag67
(g88
g69
NtRp1470
(dp1471
g72
(dp1472
sg81
g1457
sg74
(lp1473
g67
(g68
g69
NtRp1474
(dp1475
g72
(dp1476
g80
I4
ssg81
g1470
sg74
(lp1477
g110
asbasbasbag67
(g83
g69
NtRp1478
(dp1479
g72
(dp1480
sg81
g1387
sg74
(lp1481
g67
(g88
g69
NtRp1482
(dp1483
g72
(dp1484
g92
g93
ssg81
g1478
sg74
(lp1485
S'document_root'
p1486
asbag67
(g88
g69
NtRp1487
(dp1488
g72
(dp1489
g99
g100
ssg81
g1478
sg74
(lp1490
S':'
asbag67
(g88
g69
NtRp1491
(dp1492
g72
(dp1493
sg81
g1478
sg74
(lp1494
g67
(g68
g69
NtRp1495
(dp1496
g72
(dp1497
g80
I4
ssg81
g1491
sg74
(lp1498
S'/Library/WebServer/Documents'
p1499
asbasbasbag67
(g83
g69
NtRp1500
(dp1501
g72
(dp1502
sg81
g1387
sg74
(lp1503
g67
(g88
g69
NtRp1504
(dp1505
g72
(dp1506
g92
g93
ssg81
g1500
sg74
(lp1507
S'gateway_interface'
p1508
asbag67
(g88
g69
NtRp1509
(dp1510
g72
(dp1511
g99
g100
ssg81
g1500
sg74
(lp1512
S':'
asbag67
(g88
g69
NtRp1513
(dp1514
g72
(dp1515
sg81
g1500
sg74
(lp1516
g67
(g68
g69
NtRp1517
(dp1518
g72
(dp1519
g80
I4
ssg81
g1513
sg74
(lp1520
S'CGI/1.1'
p1521
asbasbasbag67
(g83
g69
NtRp1522
(dp1523
g72
(dp1524
sg81
g1387
sg74
(lp1525
g67
(g88
g69
NtRp1526
(dp1527
g72
(dp1528
g92
g93
ssg81
g1522
sg74
(lp1529
S'gluon_parent'
p1530
asbag67
(g88
g69
NtRp1531
(dp1532
g72
(dp1533
g99
g100
ssg81
g1522
sg74
(lp1534
S':'
asbag67
(g88
g69
NtRp1535
(dp1536
g72
(dp1537
sg81
g1522
sg74
(lp1538
g67
(g68
g69
NtRp1539
(dp1540
g72
(dp1541
g80
I4
ssg81
g1535
sg74
(lp1542
g1434
asbasbasbag67
(g83
g69
NtRp1543
(dp1544
g72
(dp1545
sg81
g1387
sg74
(lp1546
g67
(g88
g69
NtRp1547
(dp1548
g72
(dp1549
g92
g93
ssg81
g1543
sg74
(lp1550
S'http_accept'
p1551
asbag67
(g88
g69
NtRp1552
(dp1553
g72
(dp1554
g99
g100
ssg81
g1543
sg74
(lp1555
S':'
asbag67
(g88
g69
NtRp1556
(dp1557
g72
(dp1558
sg81
g1543
sg74
(lp1559
g67
(g68
g69
NtRp1560
(dp1561
g72
(dp1562
g80
I4
ssg81
g1556
sg74
(lp1563
S'text/html,application/xhtml+xml,application/xml;q=0.9,*/*;q=0.8'
p1564
asbasbasbag67
(g83
g69
NtRp1565
(dp1566
g72
(dp1567
sg81
g1387
sg74
(lp1568
g67
(g88
g69
NtRp1569
(dp1570
g72
(dp1571
g92
g93
ssg81
g1565
sg74
(lp1572
S'http_accept_charset'
p1573
asbag67
(g88
g69
NtRp1574
(dp1575
g72
(dp1576
g99
g100
ssg81
g1565
sg74
(lp1577
S':'
asbag67
(g88
g69
NtRp1578
(dp1579
g72
(dp1580
sg81
g1565
sg74
(lp1581
g67
(g68
g69
NtRp1582
(dp1583
g72
(dp1584
g80
I4
ssg81
g1578
sg74
(lp1585
S'ISO-8859-1,utf-8;q=0.7,*;q=0.3'
p1586
asbasbasbag67
(g83
g69
NtRp1587
(dp1588
g72
(dp1589
sg81
g1387
sg74
(lp1590
g67
(g88
g69
NtRp1591
(dp1592
g72
(dp1593
g92
g93
ssg81
g1587
sg74
(lp1594
S'http_accept_encoding'
p1595
asbag67
(g88
g69
NtRp1596
(dp1597
g72
(dp1598
g99
g100
ssg81
g1587
sg74
(lp1599
S':'
asbag67
(g88
g69
NtRp1600
(dp1601
g72
(dp1602
sg81
g1587
sg74
(lp1603
g67
(g68
g69
NtRp1604
(dp1605
g72
(dp1606
g80
I4
ssg81
g1600
sg74
(lp1607
S'gzip,deflate,sdch'
p1608
asbasbasbag67
(g83
g69
NtRp1609
(dp1610
g72
(dp1611
sg81
g1387
sg74
(lp1612
g67
(g88
g69
NtRp1613
(dp1614
g72
(dp1615
g92
g93
ssg81
g1609
sg74
(lp1616
S'http_accept_language'
p1617
asbag67
(g88
g69
NtRp1618
(dp1619
g72
(dp1620
g99
g100
ssg81
g1609
sg74
(lp1621
S':'
asbag67
(g88
g69
NtRp1622
(dp1623
g72
(dp1624
sg81
g1609
sg74
(lp1625
g67
(g68
g69
NtRp1626
(dp1627
g72
(dp1628
g80
I4
ssg81
g1622
sg74
(lp1629
S'es-ES,es;q=0.8'
p1630
asbasbasbag67
(g83
g69
NtRp1631
(dp1632
g72
(dp1633
sg81
g1387
sg74
(lp1634
g67
(g88
g69
NtRp1635
(dp1636
g72
(dp1637
g92
g93
ssg81
g1631
sg74
(lp1638
S'http_cache_control'
p1639
asbag67
(g88
g69
NtRp1640
(dp1641
g72
(dp1642
g99
g100
ssg81
g1631
sg74
(lp1643
S':'
asbag67
(g88
g69
NtRp1644
(dp1645
g72
(dp1646
sg81
g1631
sg74
(lp1647
g67
(g68
g69
NtRp1648
(dp1649
g72
(dp1650
g80
I4
ssg81
g1644
sg74
(lp1651
S'max-age=0'
p1652
asbasbasbag67
(g83
g69
NtRp1653
(dp1654
g72
(dp1655
sg81
g1387
sg74
(lp1656
g67
(g88
g69
NtRp1657
(dp1658
g72
(dp1659
g92
g93
ssg81
g1653
sg74
(lp1660
S'http_connection'
p1661
asbag67
(g88
g69
NtRp1662
(dp1663
g72
(dp1664
g99
g100
ssg81
g1653
sg74
(lp1665
S':'
asbag67
(g88
g69
NtRp1666
(dp1667
g72
(dp1668
sg81
g1653
sg74
(lp1669
g67
(g68
g69
NtRp1670
(dp1671
g72
(dp1672
g80
I4
ssg81
g1666
sg74
(lp1673
S'keep-alive'
p1674
asbasbasbag67
(g83
g69
NtRp1675
(dp1676
g72
(dp1677
sg81
g1387
sg74
(lp1678
g67
(g88
g69
NtRp1679
(dp1680
g72
(dp1681
g92
g93
ssg81
g1675
sg74
(lp1682
S'http_cookie'
p1683
asbag67
(g88
g69
NtRp1684
(dp1685
g72
(dp1686
g99
g100
ssg81
g1675
sg74
(lp1687
S':'
asbag67
(g88
g69
NtRp1688
(dp1689
g72
(dp1690
sg81
g1675
sg74
(lp1691
g67
(g68
g69
NtRp1692
(dp1693
g72
(dp1694
g80
I4
ssg81
g1688
sg74
(lp1695
S'session_id_contador=127.0.0.1-2b69a554-5d73-450d-a1a3-2f7111772fbb; session_id_nombres=127.0.0.1-84743359-6fda-477d-8d9d-bdd73eec2878; session_id_randomwords=127.0.0.1-5b6c85d6-c0b7-4009-b803-334737663b75; session_id_welcome=127.0.0.1-26ca6cd3-84d7-4753-ad50-3b7ae1bcfc78; session_id_fayol=127.0.0.1-1c8d1e9a-36a1-4136-9a56-0cae7ede4ac3; session_id_admin=127.0.0.1-eb1bfc92-b1d7-40f5-bac2-0727bba915fa'
p1696
asbasbasbag67
(g83
g69
NtRp1697
(dp1698
g72
(dp1699
sg81
g1387
sg74
(lp1700
g67
(g88
g69
NtRp1701
(dp1702
g72
(dp1703
g92
g93
ssg81
g1697
sg74
(lp1704
S'http_host'
p1705
asbag67
(g88
g69
NtRp1706
(dp1707
g72
(dp1708
g99
g100
ssg81
g1697
sg74
(lp1709
S':'
asbag67
(g88
g69
NtRp1710
(dp1711
g72
(dp1712
sg81
g1697
sg74
(lp1713
g67
(g68
g69
NtRp1714
(dp1715
g72
(dp1716
g80
I4
ssg81
g1710
sg74
(lp1717
S'web2py'
p1718
asbasbasbag67
(g83
g69
NtRp1719
(dp1720
g72
(dp1721
sg81
g1387
sg74
(lp1722
g67
(g88
g69
NtRp1723
(dp1724
g72
(dp1725
g92
g93
ssg81
g1719
sg74
(lp1726
S'http_user_agent'
p1727
asbag67
(g88
g69
NtRp1728
(dp1729
g72
(dp1730
g99
g100
ssg81
g1719
sg74
(lp1731
S':'
asbag67
(g88
g69
NtRp1732
(dp1733
g72
(dp1734
sg81
g1719
sg74
(lp1735
g67
(g68
g69
NtRp1736
(dp1737
g72
(dp1738
g80
I4
ssg81
g1732
sg74
(lp1739
S'Mozilla/5.0 (Macintosh; Intel Mac OS X 10_8_0) AppleWebKit/537.1 (KHTML, like Gecko) Chrome/21.0.1180.75 Safari/537.1'
p1740
asbasbasbag67
(g83
g69
NtRp1741
(dp1742
g72
(dp1743
sg81
g1387
sg74
(lp1744
g67
(g88
g69
NtRp1745
(dp1746
g72
(dp1747
g92
g93
ssg81
g1741
sg74
(lp1748
S'is_jython'
p1749
asbag67
(g88
g69
NtRp1750
(dp1751
g72
(dp1752
g99
g100
ssg81
g1741
sg74
(lp1753
S':'
asbag67
(g88
g69
NtRp1754
(dp1755
g72
(dp1756
sg81
g1741
sg74
(lp1757
g67
(g68
g69
NtRp1758
(dp1759
g72
(dp1760
g80
I4
ssg81
g1754
sg74
(lp1761
g110
asbasbasbag67
(g83
g69
NtRp1762
(dp1763
g72
(dp1764
sg81
g1387
sg74
(lp1765
g67
(g88
g69
NtRp1766
(dp1767
g72
(dp1768
g92
g93
ssg81
g1762
sg74
(lp1769
S'is_pypy'
p1770
asbag67
(g88
g69
NtRp1771
(dp1772
g72
(dp1773
g99
g100
ssg81
g1762
sg74
(lp1774
S':'
asbag67
(g88
g69
NtRp1775
(dp1776
g72
(dp1777
sg81
g1762
sg74
(lp1778
g67
(g68
g69
NtRp1779
(dp1780
g72
(dp1781
g80
I4
ssg81
g1775
sg74
(lp1782
g110
asbasbasbag67
(g83
g69
NtRp1783
(dp1784
g72
(dp1785
sg81
g1387
sg74
(lp1786
g67
(g88
g69
NtRp1787
(dp1788
g72
(dp1789
g92
g93
ssg81
g1783
sg74
(lp1790
S'mod_wsgi_application_group'
p1791
asbag67
(g88
g69
NtRp1792
(dp1793
g72
(dp1794
g99
g100
ssg81
g1783
sg74
(lp1795
S':'
asbag67
(g88
g69
NtRp1796
(dp1797
g72
(dp1798
sg81
g1783
sg74
(lp1799
g67
(g68
g69
NtRp1800
(dp1801
g72
(dp1802
g80
I4
ssg81
g1796
sg74
(lp1803
S'web2py|'
p1804
asbasbasbag67
(g83
g69
NtRp1805
(dp1806
g72
(dp1807
sg81
g1387
sg74
(lp1808
g67
(g88
g69
NtRp1809
(dp1810
g72
(dp1811
g92
g93
ssg81
g1805
sg74
(lp1812
S'mod_wsgi_callable_object'
p1813
asbag67
(g88
g69
NtRp1814
(dp1815
g72
(dp1816
g99
g100
ssg81
g1805
sg74
(lp1817
S':'
asbag67
(g88
g69
NtRp1818
(dp1819
g72
(dp1820
sg81
g1805
sg74
(lp1821
g67
(g68
g69
NtRp1822
(dp1823
g72
(dp1824
g80
I4
ssg81
g1818
sg74
(lp1825
S'application'
p1826
asbasbasbag67
(g83
g69
NtRp1827
(dp1828
g72
(dp1829
sg81
g1387
sg74
(lp1830
g67
(g88
g69
NtRp1831
(dp1832
g72
(dp1833
g92
g93
ssg81
g1827
sg74
(lp1834
S'mod_wsgi_handler_script'
p1835
asbag67
(g88
g69
NtRp1836
(dp1837
g72
(dp1838
g99
g100
ssg81
g1827
sg74
(lp1839
S':'
asbag67
(g88
g69
NtRp1840
(dp1841
g72
(dp1842
sg81
g1827
sg74
(lp1843
g67
(g68
g69
NtRp1844
(dp1845
g72
(dp1846
g80
I4
ssg81
g1840
sg74
(lp1847
S''
asbasbasbag67
(g83
g69
NtRp1848
(dp1849
g72
(dp1850
sg81
g1387
sg74
(lp1851
g67
(g88
g69
NtRp1852
(dp1853
g72
(dp1854
g92
g93
ssg81
g1848
sg74
(lp1855
S'mod_wsgi_input_chunked'
p1856
asbag67
(g88
g69
NtRp1857
(dp1858
g72
(dp1859
g99
g100
ssg81
g1848
sg74
(lp1860
S':'
asbag67
(g88
g69
NtRp1861
(dp1862
g72
(dp1863
sg81
g1848
sg74
(lp1864
g67
(g68
g69
NtRp1865
(dp1866
g72
(dp1867
g80
I4
ssg81
g1861
sg74
(lp1868
S'0'
asbasbasbag67
(g83
g69
NtRp1869
(dp1870
g72
(dp1871
sg81
g1387
sg74
(lp1872
g67
(g88
g69
NtRp1873
(dp1874
g72
(dp1875
g92
g93
ssg81
g1869
sg74
(lp1876
S'mod_wsgi_listener_host'
p1877
asbag67
(g88
g69
NtRp1878
(dp1879
g72
(dp1880
g99
g100
ssg81
g1869
sg74
(lp1881
S':'
asbag67
(g88
g69
NtRp1882
(dp1883
g72
(dp1884
sg81
g1869
sg74
(lp1885
g67
(g68
g69
NtRp1886
(dp1887
g72
(dp1888
g80
I4
ssg81
g1882
sg74
(lp1889
S''
asbasbasbag67
(g83
g69
NtRp1890
(dp1891
g72
(dp1892
sg81
g1387
sg74
(lp1893
g67
(g88
g69
NtRp1894
(dp1895
g72
(dp1896
g92
g93
ssg81
g1890
sg74
(lp1897
S'mod_wsgi_listener_port'
p1898
asbag67
(g88
g69
NtRp1899
(dp1900
g72
(dp1901
g99
g100
ssg81
g1890
sg74
(lp1902
S':'
asbag67
(g88
g69
NtRp1903
(dp1904
g72
(dp1905
sg81
g1890
sg74
(lp1906
g67
(g68
g69
NtRp1907
(dp1908
g72
(dp1909
g80
I4
ssg81
g1903
sg74
(lp1910
S'80'
p1911
asbasbasbag67
(g83
g69
NtRp1912
(dp1913
g72
(dp1914
sg81
g1387
sg74
(lp1915
g67
(g88
g69
NtRp1916
(dp1917
g72
(dp1918
g92
g93
ssg81
g1912
sg74
(lp1919
S'mod_wsgi_process_group'
p1920
asbag67
(g88
g69
NtRp1921
(dp1922
g72
(dp1923
g99
g100
ssg81
g1912
sg74
(lp1924
S':'
asbag67
(g88
g69
NtRp1925
(dp1926
g72
(dp1927
sg81
g1912
sg74
(lp1928
g67
(g68
g69
NtRp1929
(dp1930
g72
(dp1931
g80
I4
ssg81
g1925
sg74
(lp1932
S''
asbasbasbag67
(g83
g69
NtRp1933
(dp1934
g72
(dp1935
sg81
g1387
sg74
(lp1936
g67
(g88
g69
NtRp1937
(dp1938
g72
(dp1939
g92
g93
ssg81
g1933
sg74
(lp1940
S'mod_wsgi_request_handler'
p1941
asbag67
(g88
g69
NtRp1942
(dp1943
g72
(dp1944
g99
g100
ssg81
g1933
sg74
(lp1945
S':'
asbag67
(g88
g69
NtRp1946
(dp1947
g72
(dp1948
sg81
g1933
sg74
(lp1949
g67
(g68
g69
NtRp1950
(dp1951
g72
(dp1952
g80
I4
ssg81
g1946
sg74
(lp1953
S'wsgi-script'
p1954
asbasbasbag67
(g83
g69
NtRp1955
(dp1956
g72
(dp1957
sg81
g1387
sg74
(lp1958
g67
(g88
g69
NtRp1959
(dp1960
g72
(dp1961
g92
g93
ssg81
g1955
sg74
(lp1962
S'mod_wsgi_script_reloading'
p1963
asbag67
(g88
g69
NtRp1964
(dp1965
g72
(dp1966
g99
g100
ssg81
g1955
sg74
(lp1967
S':'
asbag67
(g88
g69
NtRp1968
(dp1969
g72
(dp1970
sg81
g1955
sg74
(lp1971
g67
(g68
g69
NtRp1972
(dp1973
g72
(dp1974
g80
I4
ssg81
g1968
sg74
(lp1975
S'1'
asbasbasbag67
(g83
g69
NtRp1976
(dp1977
g72
(dp1978
sg81
g1387
sg74
(lp1979
g67
(g88
g69
NtRp1980
(dp1981
g72
(dp1982
g92
g93
ssg81
g1976
sg74
(lp1983
S'mod_wsgi_version'
p1984
asbag67
(g88
g69
NtRp1985
(dp1986
g72
(dp1987
g99
g100
ssg81
g1976
sg74
(lp1988
S':'
asbag67
(g88
g69
NtRp1989
(dp1990
g72
(dp1991
sg81
g1976
sg74
(lp1992
g67
(g68
g69
NtRp1993
(dp1994
g72
(dp1995
g80
I4
ssg81
g1989
sg74
(lp1996
g67
(g76
g69
NtRp1997
(dp1998
g72
(dp1999
g80
I3
ssg81
Nsg74
(lp2000
g67
(g83
g69
NtRp2001
(dp2002
g72
(dp2003
sg81
g1997
sg74
(lp2004
g67
(g88
g69
NtRp2005
(dp2006
g72
(dp2007
sg81
g2001
sg74
(lp2008
g67
(g68
g69
NtRp2009
(dp2010
g72
(dp2011
g80
I3
ssg81
g2005
sg74
(lp2012
S'3'
asbasbasbag67
(g83
g69
NtRp2013
(dp2014
g72
(dp2015
sg81
g1997
sg74
(lp2016
g67
(g88
g69
NtRp2017
(dp2018
g72
(dp2019
sg81
g2013
sg74
(lp2020
g67
(g68
g69
NtRp2021
(dp2022
g72
(dp2023
g80
I3
ssg81
g2017
sg74
(lp2024
S'3'
asbasbasbasbasbasbasbag67
(g83
g69
NtRp2025
(dp2026
g72
(dp2027
sg81
g1387
sg74
(lp2028
g67
(g88
g69
NtRp2029
(dp2030
g72
(dp2031
g92
g93
ssg81
g2025
sg74
(lp2032
S'path_info'
p2033
asbag67
(g88
g69
NtRp2034
(dp2035
g72
(dp2036
g99
g100
ssg81
g2025
sg74
(lp2037
S':'
asbag67
(g88
g69
NtRp2038
(dp2039
g72
(dp2040
sg81
g2025
sg74
(lp2041
g67
(g68
g69
NtRp2042
(dp2043
g72
(dp2044
g80
I4
ssg81
g2038
sg74
(lp2045
S'/fayol'
p2046
asbasbasbag67
(g83
g69
NtRp2047
(dp2048
g72
(dp2049
sg81
g1387
sg74
(lp2050
g67
(g88
g69
NtRp2051
(dp2052
g72
(dp2053
g92
g93
ssg81
g2047
sg74
(lp2054
S'path_translated'
p2055
asbag67
(g88
g69
NtRp2056
(dp2057
g72
(dp2058
g99
g100
ssg81
g2047
sg74
(lp2059
S':'
asbag67
(g88
g69
NtRp2060
(dp2061
g72
(dp2062
sg81
g2047
sg74
(lp2063
g67
(g68
g69
NtRp2064
(dp2065
g72
(dp2066
g80
I4
ssg81
g2060
sg74
(lp2067
S'/Users/emir/Documents/beardcode/web2py/wsgihandler.py/fayol'
p2068
asbasbasbag67
(g83
g69
NtRp2069
(dp2070
g72
(dp2071
sg81
g1387
sg74
(lp2072
g67
(g88
g69
NtRp2073
(dp2074
g72
(dp2075
g92
g93
ssg81
g2069
sg74
(lp2076
S'query_string'
p2077
asbag67
(g88
g69
NtRp2078
(dp2079
g72
(dp2080
g99
g100
ssg81
g2069
sg74
(lp2081
S':'
asbag67
(g88
g69
NtRp2082
(dp2083
g72
(dp2084
sg81
g2069
sg74
(lp2085
g67
(g68
g69
NtRp2086
(dp2087
g72
(dp2088
g80
I4
ssg81
g2082
sg74
(lp2089
S''
asbasbasbag67
(g83
g69
NtRp2090
(dp2091
g72
(dp2092
sg81
g1387
sg74
(lp2093
g67
(g88
g69
NtRp2094
(dp2095
g72
(dp2096
g92
g93
ssg81
g2090
sg74
(lp2097
S'remote_addr'
p2098
asbag67
(g88
g69
NtRp2099
(dp2100
g72
(dp2101
g99
g100
ssg81
g2090
sg74
(lp2102
S':'
asbag67
(g88
g69
NtRp2103
(dp2104
g72
(dp2105
sg81
g2090
sg74
(lp2106
g67
(g68
g69
NtRp2107
(dp2108
g72
(dp2109
g80
I4
ssg81
g2103
sg74
(lp2110
g200
asbasbasbag67
(g83
g69
NtRp2111
(dp2112
g72
(dp2113
sg81
g1387
sg74
(lp2114
g67
(g88
g69
NtRp2115
(dp2116
g72
(dp2117
g92
g93
ssg81
g2111
sg74
(lp2118
S'remote_port'
p2119
asbag67
(g88
g69
NtRp2120
(dp2121
g72
(dp2122
g99
g100
ssg81
g2111
sg74
(lp2123
S':'
asbag67
(g88
g69
NtRp2124
(dp2125
g72
(dp2126
sg81
g2111
sg74
(lp2127
g67
(g68
g69
NtRp2128
(dp2129
g72
(dp2130
g80
I4
ssg81
g2124
sg74
(lp2131
S'61142'
p2132
asbasbasbag67
(g83
g69
NtRp2133
(dp2134
g72
(dp2135
sg81
g1387
sg74
(lp2136
g67
(g88
g69
NtRp2137
(dp2138
g72
(dp2139
g92
g93
ssg81
g2133
sg74
(lp2140
S'request_method'
p2141
asbag67
(g88
g69
NtRp2142
(dp2143
g72
(dp2144
g99
g100
ssg81
g2133
sg74
(lp2145
S':'
asbag67
(g88
g69
NtRp2146
(dp2147
g72
(dp2148
sg81
g2133
sg74
(lp2149
g67
(g68
g69
NtRp2150
(dp2151
g72
(dp2152
g80
I4
ssg81
g2146
sg74
(lp2153
S'GET'
p2154
asbasbasbag67
(g83
g69
NtRp2155
(dp2156
g72
(dp2157
sg81
g1387
sg74
(lp2158
g67
(g88
g69
NtRp2159
(dp2160
g72
(dp2161
g92
g93
ssg81
g2155
sg74
(lp2162
S'request_uri'
p2163
asbag67
(g88
g69
NtRp2164
(dp2165
g72
(dp2166
g99
g100
ssg81
g2155
sg74
(lp2167
S':'
asbag67
(g88
g69
NtRp2168
(dp2169
g72
(dp2170
sg81
g2155
sg74
(lp2171
g67
(g68
g69
NtRp2172
(dp2173
g72
(dp2174
g80
I4
ssg81
g2168
sg74
(lp2175
S'/fayol'
p2176
asbasbasbag67
(g83
g69
NtRp2177
(dp2178
g72
(dp2179
sg81
g1387
sg74
(lp2180
g67
(g88
g69
NtRp2181
(dp2182
g72
(dp2183
g92
g93
ssg81
g2177
sg74
(lp2184
S'script_filename'
p2185
asbag67
(g88
g69
NtRp2186
(dp2187
g72
(dp2188
g99
g100
ssg81
g2177
sg74
(lp2189
S':'
asbag67
(g88
g69
NtRp2190
(dp2191
g72
(dp2192
sg81
g2177
sg74
(lp2193
g67
(g68
g69
NtRp2194
(dp2195
g72
(dp2196
g80
I4
ssg81
g2190
sg74
(lp2197
S'/Users/emir/Documents/beardcode/web2py/wsgihandler.py'
p2198
asbasbasbag67
(g83
g69
NtRp2199
(dp2200
g72
(dp2201
sg81
g1387
sg74
(lp2202
g67
(g88
g69
NtRp2203
(dp2204
g72
(dp2205
g92
g93
ssg81
g2199
sg74
(lp2206
S'script_name'
p2207
asbag67
(g88
g69
NtRp2208
(dp2209
g72
(dp2210
g99
g100
ssg81
g2199
sg74
(lp2211
S':'
asbag67
(g88
g69
NtRp2212
(dp2213
g72
(dp2214
sg81
g2199
sg74
(lp2215
g67
(g68
g69
NtRp2216
(dp2217
g72
(dp2218
g80
I4
ssg81
g2212
sg74
(lp2219
S''
asbasbasbag67
(g83
g69
NtRp2220
(dp2221
g72
(dp2222
sg81
g1387
sg74
(lp2223
g67
(g88
g69
NtRp2224
(dp2225
g72
(dp2226
g92
g93
ssg81
g2220
sg74
(lp2227
S'server_addr'
p2228
asbag67
(g88
g69
NtRp2229
(dp2230
g72
(dp2231
g99
g100
ssg81
g2220
sg74
(lp2232
S':'
asbag67
(g88
g69
NtRp2233
(dp2234
g72
(dp2235
sg81
g2220
sg74
(lp2236
g67
(g68
g69
NtRp2237
(dp2238
g72
(dp2239
g80
I4
ssg81
g2233
sg74
(lp2240
S'127.0.0.1'
p2241
asbasbasbag67
(g83
g69
NtRp2242
(dp2243
g72
(dp2244
sg81
g1387
sg74
(lp2245
g67
(g88
g69
NtRp2246
(dp2247
g72
(dp2248
g92
g93
ssg81
g2242
sg74
(lp2249
S'server_admin'
p2250
asbag67
(g88
g69
NtRp2251
(dp2252
g72
(dp2253
g99
g100
ssg81
g2242
sg74
(lp2254
S':'
asbag67
(g88
g69
NtRp2255
(dp2256
g72
(dp2257
sg81
g2242
sg74
(lp2258
g67
(g68
g69
NtRp2259
(dp2260
g72
(dp2261
g80
I4
ssg81
g2255
sg74
(lp2262
S'you@example.com'
p2263
asbasbasbag67
(g83
g69
NtRp2264
(dp2265
g72
(dp2266
sg81
g1387
sg74
(lp2267
g67
(g88
g69
NtRp2268
(dp2269
g72
(dp2270
g92
g93
ssg81
g2264
sg74
(lp2271
S'server_name'
p2272
asbag67
(g88
g69
NtRp2273
(dp2274
g72
(dp2275
g99
g100
ssg81
g2264
sg74
(lp2276
S':'
asbag67
(g88
g69
NtRp2277
(dp2278
g72
(dp2279
sg81
g2264
sg74
(lp2280
g67
(g68
g69
NtRp2281
(dp2282
g72
(dp2283
g80
I4
ssg81
g2277
sg74
(lp2284
S'web2py'
p2285
asbasbasbag67
(g83
g69
NtRp2286
(dp2287
g72
(dp2288
sg81
g1387
sg74
(lp2289
g67
(g88
g69
NtRp2290
(dp2291
g72
(dp2292
g92
g93
ssg81
g2286
sg74
(lp2293
S'server_port'
p2294
asbag67
(g88
g69
NtRp2295
(dp2296
g72
(dp2297
g99
g100
ssg81
g2286
sg74
(lp2298
S':'
asbag67
(g88
g69
NtRp2299
(dp2300
g72
(dp2301
sg81
g2286
sg74
(lp2302
g67
(g68
g69
NtRp2303
(dp2304
g72
(dp2305
g80
I4
ssg81
g2299
sg74
(lp2306
S'80'
p2307
asbasbasbag67
(g83
g69
NtRp2308
(dp2309
g72
(dp2310
sg81
g1387
sg74
(lp2311
g67
(g88
g69
NtRp2312
(dp2313
g72
(dp2314
g92
g93
ssg81
g2308
sg74
(lp2315
S'server_protocol'
p2316
asbag67
(g88
g69
NtRp2317
(dp2318
g72
(dp2319
g99
g100
ssg81
g2308
sg74
(lp2320
S':'
asbag67
(g88
g69
NtRp2321
(dp2322
g72
(dp2323
sg81
g2308
sg74
(lp2324
g67
(g68
g69
NtRp2325
(dp2326
g72
(dp2327
g80
I4
ssg81
g2321
sg74
(lp2328
S'HTTP/1.1'
p2329
asbasbasbag67
(g83
g69
NtRp2330
(dp2331
g72
(dp2332
sg81
g1387
sg74
(lp2333
g67
(g88
g69
NtRp2334
(dp2335
g72
(dp2336
g92
g93
ssg81
g2330
sg74
(lp2337
S'server_signature'
p2338
asbag67
(g88
g69
NtRp2339
(dp2340
g72
(dp2341
g99
g100
ssg81
g2330
sg74
(lp2342
S':'
asbag67
(g88
g69
NtRp2343
(dp2344
g72
(dp2345
sg81
g2330
sg74
(lp2346
g67
(g68
g69
NtRp2347
(dp2348
g72
(dp2349
g80
I4
ssg81
g2343
sg74
(lp2350
S''
asbasbasbag67
(g83
g69
NtRp2351
(dp2352
g72
(dp2353
sg81
g1387
sg74
(lp2354
g67
(g88
g69
NtRp2355
(dp2356
g72
(dp2357
g92
g93
ssg81
g2351
sg74
(lp2358
S'server_software'
p2359
asbag67
(g88
g69
NtRp2360
(dp2361
g72
(dp2362
g99
g100
ssg81
g2351
sg74
(lp2363
S':'
asbag67
(g88
g69
NtRp2364
(dp2365
g72
(dp2366
sg81
g2351
sg74
(lp2367
g67
(g68
g69
NtRp2368
(dp2369
g72
(dp2370
g80
I4
ssg81
g2364
sg74
(lp2371
S'Apache/2.2.22 (Unix) DAV/2 mod_wsgi/3.3 Python/2.6.7 PHP/5.3.13 with Suhosin-Patch mod_ssl/2.2.22 OpenSSL/0.9.8r'
p2372
asbasbasbag67
(g83
g69
NtRp2373
(dp2374
g72
(dp2375
sg81
g1387
sg74
(lp2376
g67
(g88
g69
NtRp2377
(dp2378
g72
(dp2379
g92
g93
ssg81
g2373
sg74
(lp2380
S'web2py_path'
p2381
asbag67
(g88
g69
NtRp2382
(dp2383
g72
(dp2384
g99
g100
ssg81
g2373
sg74
(lp2385
S':'
asbag67
(g88
g69
NtRp2386
(dp2387
g72
(dp2388
sg81
g2373
sg74
(lp2389
g67
(g68
g69
NtRp2390
(dp2391
g72
(dp2392
g80
I4
ssg81
g2386
sg74
(lp2393
g1434
asbasbasbag67
(g83
g69
NtRp2394
(dp2395
g72
(dp2396
sg81
g1387
sg74
(lp2397
g67
(g88
g69
NtRp2398
(dp2399
g72
(dp2400
g92
g93
ssg81
g2394
sg74
(lp2401
S'web2py_version'
p2402
asbag67
(g88
g69
NtRp2403
(dp2404
g72
(dp2405
g99
g100
ssg81
g2394
sg74
(lp2406
S':'
asbag67
(g88
g69
NtRp2407
(dp2408
g72
(dp2409
sg81
g2394
sg74
(lp2410
g67
(g68
g69
NtRp2411
(dp2412
g72
(dp2413
g80
I4
ssg81
g2407
sg74
(lp2414
g67
(g76
g69
NtRp2415
(dp2416
g72
(dp2417
g80
I3
ssg81
Nsg74
(lp2418
g67
(g83
g69
NtRp2419
(dp2420
g72
(dp2421
sg81
g2415
sg74
(lp2422
g67
(g88
g69
NtRp2423
(dp2424
g72
(dp2425
sg81
g2419
sg74
(lp2426
g67
(g68
g69
NtRp2427
(dp2428
g72
(dp2429
g80
I3
ssg81
g2423
sg74
(lp2430
S'1'
asbasbasbag67
(g83
g69
NtRp2431
(dp2432
g72
(dp2433
sg81
g2415
sg74
(lp2434
g67
(g88
g69
NtRp2435
(dp2436
g72
(dp2437
sg81
g2431
sg74
(lp2438
g67
(g68
g69
NtRp2439
(dp2440
g72
(dp2441
g80
I3
ssg81
g2435
sg74
(lp2442
S'99'
p2443
asbasbasbag67
(g83
g69
NtRp2444
(dp2445
g72
(dp2446
sg81
g2415
sg74
(lp2447
g67
(g88
g69
NtRp2448
(dp2449
g72
(dp2450
sg81
g2444
sg74
(lp2451
g67
(g68
g69
NtRp2452
(dp2453
g72
(dp2454
g80
I3
ssg81
g2448
sg74
(lp2455
S'7'
asbasbasbag67
(g83
g69
NtRp2456
(dp2457
g72
(dp2458
sg81
g2415
sg74
(lp2459
g67
(g88
g69
NtRp2460
(dp2461
g72
(dp2462
sg81
g2456
sg74
(lp2463
g67
(g68
g69
NtRp2464
(dp2465
g72
(dp2466
g80
I3
ssg81
g2460
sg74
(lp2467
S'datetime.datetime(2012, 3, 4, 22, 12, 8)'
p2468
asbasbasbag67
(g83
g69
NtRp2469
(dp2470
g72
(dp2471
sg81
g2415
sg74
(lp2472
g67
(g88
g69
NtRp2473
(dp2474
g72
(dp2475
sg81
g2469
sg74
(lp2476
g67
(g68
g69
NtRp2477
(dp2478
g72
(dp2479
g80
I3
ssg81
g2473
sg74
(lp2480
S'stable'
p2481
asbasbasbasbasbasbasbag67
(g83
g69
NtRp2482
(dp2483
g72
(dp2484
sg81
g1387
sg74
(lp2485
g67
(g88
g69
NtRp2486
(dp2487
g72
(dp2488
g92
g93
ssg81
g2482
sg74
(lp2489
S'wsgi_errors'
p2490
asbag67
(g88
g69
NtRp2491
(dp2492
g72
(dp2493
g99
g100
ssg81
g2482
sg74
(lp2494
S':'
asbag67
(g88
g69
NtRp2495
(dp2496
g72
(dp2497
sg81
g2482
sg74
(lp2498
g67
(g68
g69
NtRp2499
(dp2500
g72
(dp2501
g80
I4
ssg81
g2495
sg74
(lp2502
S'<mod_wsgi.Log object at 0x104931870>'
p2503
asbasbasbag67
(g83
g69
NtRp2504
(dp2505
g72
(dp2506
sg81
g1387
sg74
(lp2507
g67
(g88
g69
NtRp2508
(dp2509
g72
(dp2510
g92
g93
ssg81
g2504
sg74
(lp2511
S'wsgi_file_wrapper'
p2512
asbag67
(g88
g69
NtRp2513
(dp2514
g72
(dp2515
g99
g100
ssg81
g2504
sg74
(lp2516
S':'
asbag67
(g88
g69
NtRp2517
(dp2518
g72
(dp2519
sg81
g2504
sg74
(lp2520
g67
(g68
g69
NtRp2521
(dp2522
g72
(dp2523
g80
I4
ssg81
g2517
sg74
(lp2524
S'<built-in method file_wrapper of mod_wsgi.Adapter object at 0x104930300>'
p2525
asbasbasbag67
(g83
g69
NtRp2526
(dp2527
g72
(dp2528
sg81
g1387
sg74
(lp2529
g67
(g88
g69
NtRp2530
(dp2531
g72
(dp2532
g92
g93
ssg81
g2526
sg74
(lp2533
S'wsgi_input'
p2534
asbag67
(g88
g69
NtRp2535
(dp2536
g72
(dp2537
g99
g100
ssg81
g2526
sg74
(lp2538
S':'
asbag67
(g88
g69
NtRp2539
(dp2540
g72
(dp2541
sg81
g2526
sg74
(lp2542
g67
(g68
g69
NtRp2543
(dp2544
g72
(dp2545
g80
I4
ssg81
g2539
sg74
(lp2546
S'<mod_wsgi.Input object at 0x104931830>'
p2547
asbasbasbag67
(g83
g69
NtRp2548
(dp2549
g72
(dp2550
sg81
g1387
sg74
(lp2551
g67
(g88
g69
NtRp2552
(dp2553
g72
(dp2554
g92
g93
ssg81
g2548
sg74
(lp2555
S'wsgi_multiprocess'
p2556
asbag67
(g88
g69
NtRp2557
(dp2558
g72
(dp2559
g99
g100
ssg81
g2548
sg74
(lp2560
S':'
asbag67
(g88
g69
NtRp2561
(dp2562
g72
(dp2563
sg81
g2548
sg74
(lp2564
g67
(g68
g69
NtRp2565
(dp2566
g72
(dp2567
g80
I4
ssg81
g2561
sg74
(lp2568
S'True'
p2569
asbasbasbag67
(g83
g69
NtRp2570
(dp2571
g72
(dp2572
sg81
g1387
sg74
(lp2573
g67
(g88
g69
NtRp2574
(dp2575
g72
(dp2576
g92
g93
ssg81
g2570
sg74
(lp2577
S'wsgi_multithread'
p2578
asbag67
(g88
g69
NtRp2579
(dp2580
g72
(dp2581
g99
g100
ssg81
g2570
sg74
(lp2582
S':'
asbag67
(g88
g69
NtRp2583
(dp2584
g72
(dp2585
sg81
g2570
sg74
(lp2586
g67
(g68
g69
NtRp2587
(dp2588
g72
(dp2589
g80
I4
ssg81
g2583
sg74
(lp2590
g110
asbasbasbag67
(g83
g69
NtRp2591
(dp2592
g72
(dp2593
sg81
g1387
sg74
(lp2594
g67
(g88
g69
NtRp2595
(dp2596
g72
(dp2597
g92
g93
ssg81
g2591
sg74
(lp2598
S'wsgi_run_once'
p2599
asbag67
(g88
g69
NtRp2600
(dp2601
g72
(dp2602
g99
g100
ssg81
g2591
sg74
(lp2603
S':'
asbag67
(g88
g69
NtRp2604
(dp2605
g72
(dp2606
sg81
g2591
sg74
(lp2607
g67
(g68
g69
NtRp2608
(dp2609
g72
(dp2610
g80
I4
ssg81
g2604
sg74
(lp2611
g110
asbasbasbag67
(g83
g69
NtRp2612
(dp2613
g72
(dp2614
sg81
g1387
sg74
(lp2615
g67
(g88
g69
NtRp2616
(dp2617
g72
(dp2618
g92
g93
ssg81
g2612
sg74
(lp2619
S'wsgi_url_scheme'
p2620
asbag67
(g88
g69
NtRp2621
(dp2622
g72
(dp2623
g99
g100
ssg81
g2612
sg74
(lp2624
S':'
asbag67
(g88
g69
NtRp2625
(dp2626
g72
(dp2627
sg81
g2612
sg74
(lp2628
g67
(g68
g69
NtRp2629
(dp2630
g72
(dp2631
g80
I4
ssg81
g2625
sg74
(lp2632
S'http'
p2633
asbasbasbag67
(g83
g69
NtRp2634
(dp2635
g72
(dp2636
sg81
g1387
sg74
(lp2637
g67
(g88
g69
NtRp2638
(dp2639
g72
(dp2640
g92
g93
ssg81
g2634
sg74
(lp2641
S'wsgi_version'
p2642
asbag67
(g88
g69
NtRp2643
(dp2644
g72
(dp2645
g99
g100
ssg81
g2634
sg74
(lp2646
S':'
asbag67
(g88
g69
NtRp2647
(dp2648
g72
(dp2649
sg81
g2634
sg74
(lp2650
g67
(g68
g69
NtRp2651
(dp2652
g72
(dp2653
g80
I4
ssg81
g2647
sg74
(lp2654
g67
(g76
g69
NtRp2655
(dp2656
g72
(dp2657
g80
I3
ssg81
Nsg74
(lp2658
g67
(g83
g69
NtRp2659
(dp2660
g72
(dp2661
sg81
g2655
sg74
(lp2662
g67
(g88
g69
NtRp2663
(dp2664
g72
(dp2665
sg81
g2659
sg74
(lp2666
g67
(g68
g69
NtRp2667
(dp2668
g72
(dp2669
g80
I3
ssg81
g2663
sg74
(lp2670
S'1'
asbasbasbag67
(g83
g69
NtRp2671
(dp2672
g72
(dp2673
sg81
g2655
sg74
(lp2674
g67
(g88
g69
NtRp2675
(dp2676
g72
(dp2677
sg81
g2671
sg74
(lp2678
g67
(g68
g69
NtRp2679
(dp2680
g72
(dp2681
g80
I3
ssg81
g2675
sg74
(lp2682
S'1'
asbasbasbasbasbasbasbasbasbasbasbag67
(g83
g69
NtRp2683
(dp2684
g72
(dp2685
sg81
g77
sg74
(lp2686
g67
(g88
g69
NtRp2687
(dp2688
g72
(dp2689
g92
g93
ssg81
g2683
sg74
(lp2690
S'extension'
p2691
asbag67
(g88
g69
NtRp2692
(dp2693
g72
(dp2694
g99
g100
ssg81
g2683
sg74
(lp2695
S':'
asbag67
(g88
g69
NtRp2696
(dp2697
g72
(dp2698
sg81
g2683
sg74
(lp2699
g67
(g68
g69
NtRp2700
(dp2701
g72
(dp2702
g80
I5
ssg81
g2696
sg74
(lp2703
S'html'
p2704
asbasbasbag67
(g83
g69
NtRp2705
(dp2706
g72
(dp2707
sg81
g77
sg74
(lp2708
g67
(g88
g69
NtRp2709
(dp2710
g72
(dp2711
g92
g93
ssg81
g2705
sg74
(lp2712
S'folder'
p2713
asbag67
(g88
g69
NtRp2714
(dp2715
g72
(dp2716
g99
g100
ssg81
g2705
sg74
(lp2717
S':'
asbag67
(g88
g69
NtRp2718
(dp2719
g72
(dp2720
sg81
g2705
sg74
(lp2721
g67
(g68
g69
NtRp2722
(dp2723
g72
(dp2724
g80
I5
ssg81
g2718
sg74
(lp2725
S'/Users/emir/Documents/beardcode/web2py/applications/fayol/'
p2726
asbasbasbag67
(g83
g69
NtRp2727
(dp2728
g72
(dp2729
sg81
g77
sg74
(lp2730
g67
(g88
g69
NtRp2731
(dp2732
g72
(dp2733
g92
g93
ssg81
g2727
sg74
(lp2734
S'function'
p2735
asbag67
(g88
g69
NtRp2736
(dp2737
g72
(dp2738
g99
g100
ssg81
g2727
sg74
(lp2739
S':'
asbag67
(g88
g69
NtRp2740
(dp2741
g72
(dp2742
sg81
g2727
sg74
(lp2743
g67
(g68
g69
NtRp2744
(dp2745
g72
(dp2746
g80
I5
ssg81
g2740
sg74
(lp2747
S'index'
p2748
asbasbasbag67
(g83
g69
NtRp2749
(dp2750
g72
(dp2751
sg81
g77
sg74
(lp2752
g67
(g88
g69
NtRp2753
(dp2754
g72
(dp2755
g92
g93
ssg81
g2749
sg74
(lp2756
S'get_vars'
p2757
asbag67
(g88
g69
NtRp2758
(dp2759
g72
(dp2760
g99
g100
ssg81
g2749
sg74
(lp2761
S':'
asbag67
(g88
g69
NtRp2762
(dp2763
g72
(dp2764
sg81
g2749
sg74
(lp2765
g67
(g68
g69
NtRp2766
(dp2767
g72
(dp2768
g80
I5
ssg81
g2762
sg74
(lp2769
g67
(g76
g69
NtRp2770
(dp2771
g72
(dp2772
g80
I4
ssg81
Nsg74
(lp2773
sbasbasbasbag67
(g83
g69
NtRp2774
(dp2775
g72
(dp2776
sg81
g77
sg74
(lp2777
g67
(g88
g69
NtRp2778
(dp2779
g72
(dp2780
g92
g93
ssg81
g2774
sg74
(lp2781
S'global_settings'
p2782
asbag67
(g88
g69
NtRp2783
(dp2784
g72
(dp2785
g99
g100
ssg81
g2774
sg74
(lp2786
S':'
asbag67
(g88
g69
NtRp2787
(dp2788
g72
(dp2789
sg81
g2774
sg74
(lp2790
g67
(g68
g69
NtRp2791
(dp2792
g72
(dp2793
g80
I5
ssg81
g2787
sg74
(lp2794
g67
(g76
g69
NtRp2795
(dp2796
g72
(dp2797
g80
I4
ssg81
Nsg74
(lp2798
g67
(g83
g69
NtRp2799
(dp2800
g72
(dp2801
sg81
g2795
sg74
(lp2802
g67
(g88
g69
NtRp2803
(dp2804
g72
(dp2805
g92
g93
ssg81
g2799
sg74
(lp2806
g1399
asbag67
(g88
g69
NtRp2807
(dp2808
g72
(dp2809
g99
g100
ssg81
g2799
sg74
(lp2810
S':'
asbag67
(g88
g69
NtRp2811
(dp2812
g72
(dp2813
sg81
g2799
sg74
(lp2814
g67
(g68
g69
NtRp2815
(dp2816
g72
(dp2817
g80
I4
ssg81
g2811
sg74
(lp2818
S"set(['/Users/emir/Documents/beardcode/web2py/applications/randomwords/', '/Users/emir/Documents/beardcode/web2py/applications/admin/', '/Users/emir/Documents/beardcode/web2py/applications/fayol/'])"
p2819
asbasbasbag67
(g83
g69
NtRp2820
(dp2821
g72
(dp2822
sg81
g2795
sg74
(lp2823
g67
(g88
g69
NtRp2824
(dp2825
g72
(dp2826
g92
g93
ssg81
g2820
sg74
(lp2827
g1421
asbag67
(g88
g69
NtRp2828
(dp2829
g72
(dp2830
g99
g100
ssg81
g2820
sg74
(lp2831
S':'
asbag67
(g88
g69
NtRp2832
(dp2833
g72
(dp2834
sg81
g2820
sg74
(lp2835
g67
(g68
g69
NtRp2836
(dp2837
g72
(dp2838
g80
I4
ssg81
g2832
sg74
(lp2839
g1434
asbasbasbag67
(g83
g69
NtRp2840
(dp2841
g72
(dp2842
sg81
g2795
sg74
(lp2843
g67
(g88
g69
NtRp2844
(dp2845
g72
(dp2846
g92
g93
ssg81
g2840
sg74
(lp2847
g1443
asbag67
(g88
g69
NtRp2848
(dp2849
g72
(dp2850
g99
g100
ssg81
g2840
sg74
(lp2851
S':'
asbag67
(g88
g69
NtRp2852
(dp2853
g72
(dp2854
sg81
g2840
sg74
(lp2855
g67
(g68
g69
NtRp2856
(dp2857
g72
(dp2858
g80
I4
ssg81
g2852
sg74
(lp2859
S'set([])'
p2860
asbasbasbag67
(g83
g69
NtRp2861
(dp2862
g72
(dp2863
sg81
g2795
sg74
(lp2864
g67
(g88
g69
NtRp2865
(dp2866
g72
(dp2867
g92
g93
ssg81
g2861
sg74
(lp2868
g1465
asbag67
(g88
g69
NtRp2869
(dp2870
g72
(dp2871
g99
g100
ssg81
g2861
sg74
(lp2872
S':'
asbag67
(g88
g69
NtRp2873
(dp2874
g72
(dp2875
sg81
g2861
sg74
(lp2876
g67
(g68
g69
NtRp2877
(dp2878
g72
(dp2879
g80
I4
ssg81
g2873
sg74
(lp2880
g110
asbasbasbag67
(g83
g69
NtRp2881
(dp2882
g72
(dp2883
sg81
g2795
sg74
(lp2884
g67
(g88
g69
NtRp2885
(dp2886
g72
(dp2887
g92
g93
ssg81
g2881
sg74
(lp2888
g1530
asbag67
(g88
g69
NtRp2889
(dp2890
g72
(dp2891
g99
g100
ssg81
g2881
sg74
(lp2892
S':'
asbag67
(g88
g69
NtRp2893
(dp2894
g72
(dp2895
sg81
g2881
sg74
(lp2896
g67
(g68
g69
NtRp2897
(dp2898
g72
(dp2899
g80
I4
ssg81
g2893
sg74
(lp2900
g1434
asbasbasbag67
(g83
g69
NtRp2901
(dp2902
g72
(dp2903
sg81
g2795
sg74
(lp2904
g67
(g88
g69
NtRp2905
(dp2906
g72
(dp2907
g92
g93
ssg81
g2901
sg74
(lp2908
g1749
asbag67
(g88
g69
NtRp2909
(dp2910
g72
(dp2911
g99
g100
ssg81
g2901
sg74
(lp2912
S':'
asbag67
(g88
g69
NtRp2913
(dp2914
g72
(dp2915
sg81
g2901
sg74
(lp2916
g67
(g68
g69
NtRp2917
(dp2918
g72
(dp2919
g80
I4
ssg81
g2913
sg74
(lp2920
g110
asbasbasbag67
(g83
g69
NtRp2921
(dp2922
g72
(dp2923
sg81
g2795
sg74
(lp2924
g67
(g88
g69
NtRp2925
(dp2926
g72
(dp2927
g92
g93
ssg81
g2921
sg74
(lp2928
g1770
asbag67
(g88
g69
NtRp2929
(dp2930
g72
(dp2931
g99
g100
ssg81
g2921
sg74
(lp2932
S':'
asbag67
(g88
g69
NtRp2933
(dp2934
g72
(dp2935
sg81
g2921
sg74
(lp2936
g67
(g68
g69
NtRp2937
(dp2938
g72
(dp2939
g80
I4
ssg81
g2933
sg74
(lp2940
g110
asbasbasbag67
(g83
g69
NtRp2941
(dp2942
g72
(dp2943
sg81
g2795
sg74
(lp2944
g67
(g88
g69
NtRp2945
(dp2946
g72
(dp2947
g92
g93
ssg81
g2941
sg74
(lp2948
g2402
asbag67
(g88
g69
NtRp2949
(dp2950
g72
(dp2951
g99
g100
ssg81
g2941
sg74
(lp2952
S':'
asbag67
(g88
g69
NtRp2953
(dp2954
g72
(dp2955
sg81
g2941
sg74
(lp2956
g67
(g68
g69
NtRp2957
(dp2958
g72
(dp2959
g80
I4
ssg81
g2953
sg74
(lp2960
g67
(g76
g69
NtRp2961
(dp2962
g72
(dp2963
g80
I3
ssg81
Nsg74
(lp2964
g67
(g83
g69
NtRp2965
(dp2966
g72
(dp2967
sg81
g2961
sg74
(lp2968
g67
(g88
g69
NtRp2969
(dp2970
g72
(dp2971
sg81
g2965
sg74
(lp2972
g67
(g68
g69
NtRp2973
(dp2974
g72
(dp2975
g80
I3
ssg81
g2969
sg74
(lp2976
S'1'
asbasbasbag67
(g83
g69
NtRp2977
(dp2978
g72
(dp2979
sg81
g2961
sg74
(lp2980
g67
(g88
g69
NtRp2981
(dp2982
g72
(dp2983
sg81
g2977
sg74
(lp2984
g67
(g68
g69
NtRp2985
(dp2986
g72
(dp2987
g80
I3
ssg81
g2981
sg74
(lp2988
S'99'
p2989
asbasbasbag67
(g83
g69
NtRp2990
(dp2991
g72
(dp2992
sg81
g2961
sg74
(lp2993
g67
(g88
g69
NtRp2994
(dp2995
g72
(dp2996
sg81
g2990
sg74
(lp2997
g67
(g68
g69
NtRp2998
(dp2999
g72
(dp3000
g80
I3
ssg81
g2994
sg74
(lp3001
S'7'
asbasbasbag67
(g83
g69
NtRp3002
(dp3003
g72
(dp3004
sg81
g2961
sg74
(lp3005
g67
(g88
g69
NtRp3006
(dp3007
g72
(dp3008
sg81
g3002
sg74
(lp3009
g67
(g68
g69
NtRp3010
(dp3011
g72
(dp3012
g80
I3
ssg81
g3006
sg74
(lp3013
S'datetime.datetime(2012, 3, 4, 22, 12, 8)'
p3014
asbasbasbag67
(g83
g69
NtRp3015
(dp3016
g72
(dp3017
sg81
g2961
sg74
(lp3018
g67
(g88
g69
NtRp3019
(dp3020
g72
(dp3021
sg81
g3015
sg74
(lp3022
g67
(g68
g69
NtRp3023
(dp3024
g72
(dp3025
g80
I3
ssg81
g3019
sg74
(lp3026
g2481
asbasbasbasbasbasbasbasbasbasbasbag67
(g83
g69
NtRp3027
(dp3028
g72
(dp3029
sg81
g77
sg74
(lp3030
g67
(g88
g69
NtRp3031
(dp3032
g72
(dp3033
g92
g93
ssg81
g3027
sg74
(lp3034
S'is_https'
p3035
asbag67
(g88
g69
NtRp3036
(dp3037
g72
(dp3038
g99
g100
ssg81
g3027
sg74
(lp3039
S':'
asbag67
(g88
g69
NtRp3040
(dp3041
g72
(dp3042
sg81
g3027
sg74
(lp3043
g67
(g68
g69
NtRp3044
(dp3045
g72
(dp3046
g80
I5
ssg81
g3040
sg74
(lp3047
g110
asbasbasbag67
(g83
g69
NtRp3048
(dp3049
g72
(dp3050
sg81
g77
sg74
(lp3051
g67
(g88
g69
NtRp3052
(dp3053
g72
(dp3054
g92
g93
ssg81
g3048
sg74
(lp3055
S'is_local'
p3056
asbag67
(g88
g69
NtRp3057
(dp3058
g72
(dp3059
g99
g100
ssg81
g3048
sg74
(lp3060
S':'
asbag67
(g88
g69
NtRp3061
(dp3062
g72
(dp3063
sg81
g3048
sg74
(lp3064
g67
(g68
g69
NtRp3065
(dp3066
g72
(dp3067
g80
I5
ssg81
g3061
sg74
(lp3068
g2569
asbasbasbag67
(g83
g69
NtRp3069
(dp3070
g72
(dp3071
sg81
g77
sg74
(lp3072
g67
(g88
g69
NtRp3073
(dp3074
g72
(dp3075
g92
g93
ssg81
g3069
sg74
(lp3076
S'is_restful'
p3077
asbag67
(g88
g69
NtRp3078
(dp3079
g72
(dp3080
g99
g100
ssg81
g3069
sg74
(lp3081
S':'
asbag67
(g88
g69
NtRp3082
(dp3083
g72
(dp3084
sg81
g3069
sg74
(lp3085
g67
(g68
g69
NtRp3086
(dp3087
g72
(dp3088
g80
I5
ssg81
g3082
sg74
(lp3089
g110
asbasbasbag67
(g83
g69
NtRp3090
(dp3091
g72
(dp3092
sg81
g77
sg74
(lp3093
g67
(g88
g69
NtRp3094
(dp3095
g72
(dp3096
g92
g93
ssg81
g3090
sg74
(lp3097
S'now'
p3098
asbag67
(g88
g69
NtRp3099
(dp3100
g72
(dp3101
g99
g100
ssg81
g3090
sg74
(lp3102
S':'
asbag67
(g88
g69
NtRp3103
(dp3104
g72
(dp3105
sg81
g3090
sg74
(lp3106
g67
(g68
g69
NtRp3107
(dp3108
g72
(dp3109
g80
I5
ssg81
g3103
sg74
(lp3110
S'datetime.datetime(2012, 8, 13, 13, 39, 14, 597698)'
p3111
asbasbasbag67
(g83
g69
NtRp3112
(dp3113
g72
(dp3114
sg81
g77
sg74
(lp3115
g67
(g88
g69
NtRp3116
(dp3117
g72
(dp3118
g92
g93
ssg81
g3112
sg74
(lp3119
S'post_vars'
p3120
asbag67
(g88
g69
NtRp3121
(dp3122
g72
(dp3123
g99
g100
ssg81
g3112
sg74
(lp3124
S':'
asbag67
(g88
g69
NtRp3125
(dp3126
g72
(dp3127
sg81
g3112
sg74
(lp3128
g67
(g68
g69
NtRp3129
(dp3130
g72
(dp3131
g80
I5
ssg81
g3125
sg74
(lp3132
g67
(g76
g69
NtRp3133
(dp3134
g72
(dp3135
g80
I4
ssg81
Nsg74
(lp3136
sbasbasbasbag67
(g83
g69
NtRp3137
(dp3138
g72
(dp3139
sg81
g77
sg74
(lp3140
g67
(g88
g69
NtRp3141
(dp3142
g72
(dp3143
g92
g93
ssg81
g3137
sg74
(lp3144
S'url'
p3145
asbag67
(g88
g69
NtRp3146
(dp3147
g72
(dp3148
g99
g100
ssg81
g3137
sg74
(lp3149
S':'
asbag67
(g88
g69
NtRp3150
(dp3151
g72
(dp3152
sg81
g3137
sg74
(lp3153
g67
(g68
g69
NtRp3154
(dp3155
g72
(dp3156
g80
I5
ssg81
g3150
sg74
(lp3157
S'/fayol/default/index'
p3158
asbasbasbag67
(g83
g69
NtRp3159
(dp3160
g72
(dp3161
sg81
g77
sg74
(lp3162
g67
(g88
g69
NtRp3163
(dp3164
g72
(dp3165
g92
g93
ssg81
g3159
sg74
(lp3166
S'utcnow'
p3167
asbag67
(g88
g69
NtRp3168
(dp3169
g72
(dp3170
g99
g100
ssg81
g3159
sg74
(lp3171
S':'
asbag67
(g88
g69
NtRp3172
(dp3173
g72
(dp3174
sg81
g3159
sg74
(lp3175
g67
(g68
g69
NtRp3176
(dp3177
g72
(dp3178
g80
I5
ssg81
g3172
sg74
(lp3179
S'datetime.datetime(2012, 8, 13, 18, 39, 14, 597787)'
p3180
asbasbasbag67
(g83
g69
NtRp3181
(dp3182
g72
(dp3183
sg81
g77
sg74
(lp3184
g67
(g88
g69
NtRp3185
(dp3186
g72
(dp3187
g92
g93
ssg81
g3181
sg74
(lp3188
S'uuid'
p3189
asbag67
(g88
g69
NtRp3190
(dp3191
g72
(dp3192
g99
g100
ssg81
g3181
sg74
(lp3193
S':'
asbag67
(g88
g69
NtRp3194
(dp3195
g72
(dp3196
sg81
g3181
sg74
(lp3197
g67
(g68
g69
NtRp3198
(dp3199
g72
(dp3200
g80
I5
ssg81
g3194
sg74
(lp3201
S'fayol/127.0.0.1.2012-08-13.13-39-14.549da957-1958-42e7-bb81-602d7d8e9cab'
p3202
asbasbasbag67
(g83
g69
NtRp3203
(dp3204
g72
(dp3205
sg81
g77
sg74
(lp3206
g67
(g88
g69
NtRp3207
(dp3208
g72
(dp3209
g92
g93
ssg81
g3203
sg74
(lp3210
S'vars'
p3211
asbag67
(g88
g69
NtRp3212
(dp3213
g72
(dp3214
g99
g100
ssg81
g3203
sg74
(lp3215
S':'
asbag67
(g88
g69
NtRp3216
(dp3217
g72
(dp3218
sg81
g3203
sg74
(lp3219
g67
(g68
g69
NtRp3220
(dp3221
g72
(dp3222
g80
I5
ssg81
g3216
sg74
(lp3223
g67
(g76
g69
NtRp3224
(dp3225
g72
(dp3226
g80
I4
ssg81
Nsg74
(lp3227
sbasbasbasbag67
(g83
g69
NtRp3228
(dp3229
g72
(dp3230
sg81
g77
sg74
(lp3231
g67
(g88
g69
NtRp3232
(dp3233
g72
(dp3234
g92
g93
ssg81
g3228
sg74
(lp3235
S'wsgi'
p3236
asbag67
(g88
g69
NtRp3237
(dp3238
g72
(dp3239
g99
g100
ssg81
g3228
sg74
(lp3240
S':'
asbag67
(g88
g69
NtRp3241
(dp3242
g72
(dp3243
sg81
g3228
sg74
(lp3244
g67
(g68
g69
NtRp3245
(dp3246
g72
(dp3247
g80
I5
ssg81
g3241
sg74
(lp3248
g67
(g76
g69
NtRp3249
(dp3250
g72
(dp3251
g80
I4
ssg81
Nsg74
(lp3252
g67
(g83
g69
NtRp3253
(dp3254
g72
(dp3255
sg81
g3249
sg74
(lp3256
g67
(g88
g69
NtRp3257
(dp3258
g72
(dp3259
g92
g93
ssg81
g3253
sg74
(lp3260
S'environ'
p3261
asbag67
(g88
g69
NtRp3262
(dp3263
g72
(dp3264
g99
g100
ssg81
g3253
sg74
(lp3265
S':'
asbag67
(g88
g69
NtRp3266
(dp3267
g72
(dp3268
sg81
g3253
sg74
(lp3269
g67
(g68
g69
NtRp3270
(dp3271
g72
(dp3272
g80
I4
ssg81
g3266
sg74
(lp3273
g67
(g76
g69
NtRp3274
(dp3275
g72
(dp3276
g80
I3
ssg81
Nsg74
(lp3277
g67
(g83
g69
NtRp3278
(dp3279
g72
(dp3280
sg81
g3274
sg74
(lp3281
g67
(g88
g69
NtRp3282
(dp3283
g72
(dp3284
g92
g93
ssg81
g3278
sg74
(lp3285
S'DOCUMENT_ROOT'
p3286
asbag67
(g88
g69
NtRp3287
(dp3288
g72
(dp3289
g99
g100
ssg81
g3278
sg74
(lp3290
S':'
asbag67
(g88
g69
NtRp3291
(dp3292
g72
(dp3293
sg81
g3278
sg74
(lp3294
g67
(g68
g69
NtRp3295
(dp3296
g72
(dp3297
g80
I3
ssg81
g3291
sg74
(lp3298
g1499
asbasbasbag67
(g83
g69
NtRp3299
(dp3300
g72
(dp3301
sg81
g3274
sg74
(lp3302
g67
(g88
g69
NtRp3303
(dp3304
g72
(dp3305
g92
g93
ssg81
g3299
sg74
(lp3306
S'GATEWAY_INTERFACE'
p3307
asbag67
(g88
g69
NtRp3308
(dp3309
g72
(dp3310
g99
g100
ssg81
g3299
sg74
(lp3311
S':'
asbag67
(g88
g69
NtRp3312
(dp3313
g72
(dp3314
sg81
g3299
sg74
(lp3315
g67
(g68
g69
NtRp3316
(dp3317
g72
(dp3318
g80
I3
ssg81
g3312
sg74
(lp3319
g1521
asbasbasbag67
(g83
g69
NtRp3320
(dp3321
g72
(dp3322
sg81
g3274
sg74
(lp3323
g67
(g88
g69
NtRp3324
(dp3325
g72
(dp3326
g92
g93
ssg81
g3320
sg74
(lp3327
S'HTTP_ACCEPT'
p3328
asbag67
(g88
g69
NtRp3329
(dp3330
g72
(dp3331
g99
g100
ssg81
g3320
sg74
(lp3332
S':'
asbag67
(g88
g69
NtRp3333
(dp3334
g72
(dp3335
sg81
g3320
sg74
(lp3336
g67
(g68
g69
NtRp3337
(dp3338
g72
(dp3339
g80
I3
ssg81
g3333
sg74
(lp3340
g1564
asbasbasbag67
(g83
g69
NtRp3341
(dp3342
g72
(dp3343
sg81
g3274
sg74
(lp3344
g67
(g88
g69
NtRp3345
(dp3346
g72
(dp3347
g92
g93
ssg81
g3341
sg74
(lp3348
S'HTTP_ACCEPT_CHARSET'
p3349
asbag67
(g88
g69
NtRp3350
(dp3351
g72
(dp3352
g99
g100
ssg81
g3341
sg74
(lp3353
S':'
asbag67
(g88
g69
NtRp3354
(dp3355
g72
(dp3356
sg81
g3341
sg74
(lp3357
g67
(g68
g69
NtRp3358
(dp3359
g72
(dp3360
g80
I3
ssg81
g3354
sg74
(lp3361
g1586
asbasbasbag67
(g83
g69
NtRp3362
(dp3363
g72
(dp3364
sg81
g3274
sg74
(lp3365
g67
(g88
g69
NtRp3366
(dp3367
g72
(dp3368
g92
g93
ssg81
g3362
sg74
(lp3369
S'HTTP_ACCEPT_ENCODING'
p3370
asbag67
(g88
g69
NtRp3371
(dp3372
g72
(dp3373
g99
g100
ssg81
g3362
sg74
(lp3374
S':'
asbag67
(g88
g69
NtRp3375
(dp3376
g72
(dp3377
sg81
g3362
sg74
(lp3378
g67
(g68
g69
NtRp3379
(dp3380
g72
(dp3381
g80
I3
ssg81
g3375
sg74
(lp3382
g1608
asbasbasbag67
(g83
g69
NtRp3383
(dp3384
g72
(dp3385
sg81
g3274
sg74
(lp3386
g67
(g88
g69
NtRp3387
(dp3388
g72
(dp3389
g92
g93
ssg81
g3383
sg74
(lp3390
S'HTTP_ACCEPT_LANGUAGE'
p3391
asbag67
(g88
g69
NtRp3392
(dp3393
g72
(dp3394
g99
g100
ssg81
g3383
sg74
(lp3395
S':'
asbag67
(g88
g69
NtRp3396
(dp3397
g72
(dp3398
sg81
g3383
sg74
(lp3399
g67
(g68
g69
NtRp3400
(dp3401
g72
(dp3402
g80
I3
ssg81
g3396
sg74
(lp3403
g1630
asbasbasbag67
(g83
g69
NtRp3404
(dp3405
g72
(dp3406
sg81
g3274
sg74
(lp3407
g67
(g88
g69
NtRp3408
(dp3409
g72
(dp3410
g92
g93
ssg81
g3404
sg74
(lp3411
S'HTTP_CACHE_CONTROL'
p3412
asbag67
(g88
g69
NtRp3413
(dp3414
g72
(dp3415
g99
g100
ssg81
g3404
sg74
(lp3416
S':'
asbag67
(g88
g69
NtRp3417
(dp3418
g72
(dp3419
sg81
g3404
sg74
(lp3420
g67
(g68
g69
NtRp3421
(dp3422
g72
(dp3423
g80
I3
ssg81
g3417
sg74
(lp3424
g1652
asbasbasbag67
(g83
g69
NtRp3425
(dp3426
g72
(dp3427
sg81
g3274
sg74
(lp3428
g67
(g88
g69
NtRp3429
(dp3430
g72
(dp3431
g92
g93
ssg81
g3425
sg74
(lp3432
S'HTTP_CONNECTION'
p3433
asbag67
(g88
g69
NtRp3434
(dp3435
g72
(dp3436
g99
g100
ssg81
g3425
sg74
(lp3437
S':'
asbag67
(g88
g69
NtRp3438
(dp3439
g72
(dp3440
sg81
g3425
sg74
(lp3441
g67
(g68
g69
NtRp3442
(dp3443
g72
(dp3444
g80
I3
ssg81
g3438
sg74
(lp3445
g1674
asbasbasbag67
(g83
g69
NtRp3446
(dp3447
g72
(dp3448
sg81
g3274
sg74
(lp3449
g67
(g88
g69
NtRp3450
(dp3451
g72
(dp3452
g92
g93
ssg81
g3446
sg74
(lp3453
S'HTTP_COOKIE'
p3454
asbag67
(g88
g69
NtRp3455
(dp3456
g72
(dp3457
g99
g100
ssg81
g3446
sg74
(lp3458
S':'
asbag67
(g88
g69
NtRp3459
(dp3460
g72
(dp3461
sg81
g3446
sg74
(lp3462
g67
(g68
g69
NtRp3463
(dp3464
g72
(dp3465
g80
I3
ssg81
g3459
sg74
(lp3466
g1696
asbasbasbag67
(g83
g69
NtRp3467
(dp3468
g72
(dp3469
sg81
g3274
sg74
(lp3470
g67
(g88
g69
NtRp3471
(dp3472
g72
(dp3473
g92
g93
ssg81
g3467
sg74
(lp3474
S'HTTP_HOST'
p3475
asbag67
(g88
g69
NtRp3476
(dp3477
g72
(dp3478
g99
g100
ssg81
g3467
sg74
(lp3479
S':'
asbag67
(g88
g69
NtRp3480
(dp3481
g72
(dp3482
sg81
g3467
sg74
(lp3483
g67
(g68
g69
NtRp3484
(dp3485
g72
(dp3486
g80
I3
ssg81
g3480
sg74
(lp3487
g1718
asbasbasbag67
(g83
g69
NtRp3488
(dp3489
g72
(dp3490
sg81
g3274
sg74
(lp3491
g67
(g88
g69
NtRp3492
(dp3493
g72
(dp3494
g92
g93
ssg81
g3488
sg74
(lp3495
S'HTTP_USER_AGENT'
p3496
asbag67
(g88
g69
NtRp3497
(dp3498
g72
(dp3499
g99
g100
ssg81
g3488
sg74
(lp3500
S':'
asbag67
(g88
g69
NtRp3501
(dp3502
g72
(dp3503
sg81
g3488
sg74
(lp3504
g67
(g68
g69
NtRp3505
(dp3506
g72
(dp3507
g80
I3
ssg81
g3501
sg74
(lp3508
g1740
asbasbasbag67
(g83
g69
NtRp3509
(dp3510
g72
(dp3511
sg81
g3274
sg74
(lp3512
g67
(g88
g69
NtRp3513
(dp3514
g72
(dp3515
g92
g93
ssg81
g3509
sg74
(lp3516
S'PATH_INFO'
p3517
asbag67
(g88
g69
NtRp3518
(dp3519
g72
(dp3520
g99
g100
ssg81
g3509
sg74
(lp3521
S':'
asbag67
(g88
g69
NtRp3522
(dp3523
g72
(dp3524
sg81
g3509
sg74
(lp3525
g67
(g68
g69
NtRp3526
(dp3527
g72
(dp3528
g80
I3
ssg81
g3522
sg74
(lp3529
g2046
asbasbasbag67
(g83
g69
NtRp3530
(dp3531
g72
(dp3532
sg81
g3274
sg74
(lp3533
g67
(g88
g69
NtRp3534
(dp3535
g72
(dp3536
g92
g93
ssg81
g3530
sg74
(lp3537
S'PATH_TRANSLATED'
p3538
asbag67
(g88
g69
NtRp3539
(dp3540
g72
(dp3541
g99
g100
ssg81
g3530
sg74
(lp3542
S':'
asbag67
(g88
g69
NtRp3543
(dp3544
g72
(dp3545
sg81
g3530
sg74
(lp3546
g67
(g68
g69
NtRp3547
(dp3548
g72
(dp3549
g80
I3
ssg81
g3543
sg74
(lp3550
g2068
asbasbasbag67
(g83
g69
NtRp3551
(dp3552
g72
(dp3553
sg81
g3274
sg74
(lp3554
g67
(g88
g69
NtRp3555
(dp3556
g72
(dp3557
g92
g93
ssg81
g3551
sg74
(lp3558
S'QUERY_STRING'
p3559
asbag67
(g88
g69
NtRp3560
(dp3561
g72
(dp3562
g99
g100
ssg81
g3551
sg74
(lp3563
S':'
asbag67
(g88
g69
NtRp3564
(dp3565
g72
(dp3566
sg81
g3551
sg74
(lp3567
g67
(g68
g69
NtRp3568
(dp3569
g72
(dp3570
g80
I3
ssg81
g3564
sg74
(lp3571
S''
asbasbasbag67
(g83
g69
NtRp3572
(dp3573
g72
(dp3574
sg81
g3274
sg74
(lp3575
g67
(g88
g69
NtRp3576
(dp3577
g72
(dp3578
g92
g93
ssg81
g3572
sg74
(lp3579
S'REMOTE_ADDR'
p3580
asbag67
(g88
g69
NtRp3581
(dp3582
g72
(dp3583
g99
g100
ssg81
g3572
sg74
(lp3584
S':'
asbag67
(g88
g69
NtRp3585
(dp3586
g72
(dp3587
sg81
g3572
sg74
(lp3588
g67
(g68
g69
NtRp3589
(dp3590
g72
(dp3591
g80
I3
ssg81
g3585
sg74
(lp3592
g200
asbasbasbag67
(g83
g69
NtRp3593
(dp3594
g72
(dp3595
sg81
g3274
sg74
(lp3596
g67
(g88
g69
NtRp3597
(dp3598
g72
(dp3599
g92
g93
ssg81
g3593
sg74
(lp3600
S'REMOTE_PORT'
p3601
asbag67
(g88
g69
NtRp3602
(dp3603
g72
(dp3604
g99
g100
ssg81
g3593
sg74
(lp3605
S':'
asbag67
(g88
g69
NtRp3606
(dp3607
g72
(dp3608
sg81
g3593
sg74
(lp3609
g67
(g68
g69
NtRp3610
(dp3611
g72
(dp3612
g80
I3
ssg81
g3606
sg74
(lp3613
g2132
asbasbasbag67
(g83
g69
NtRp3614
(dp3615
g72
(dp3616
sg81
g3274
sg74
(lp3617
g67
(g88
g69
NtRp3618
(dp3619
g72
(dp3620
g92
g93
ssg81
g3614
sg74
(lp3621
S'REQUEST_METHOD'
p3622
asbag67
(g88
g69
NtRp3623
(dp3624
g72
(dp3625
g99
g100
ssg81
g3614
sg74
(lp3626
S':'
asbag67
(g88
g69
NtRp3627
(dp3628
g72
(dp3629
sg81
g3614
sg74
(lp3630
g67
(g68
g69
NtRp3631
(dp3632
g72
(dp3633
g80
I3
ssg81
g3627
sg74
(lp3634
g2154
asbasbasbag67
(g83
g69
NtRp3635
(dp3636
g72
(dp3637
sg81
g3274
sg74
(lp3638
g67
(g88
g69
NtRp3639
(dp3640
g72
(dp3641
g92
g93
ssg81
g3635
sg74
(lp3642
S'REQUEST_URI'
p3643
asbag67
(g88
g69
NtRp3644
(dp3645
g72
(dp3646
g99
g100
ssg81
g3635
sg74
(lp3647
S':'
asbag67
(g88
g69
NtRp3648
(dp3649
g72
(dp3650
sg81
g3635
sg74
(lp3651
g67
(g68
g69
NtRp3652
(dp3653
g72
(dp3654
g80
I3
ssg81
g3648
sg74
(lp3655
g2176
asbasbasbag67
(g83
g69
NtRp3656
(dp3657
g72
(dp3658
sg81
g3274
sg74
(lp3659
g67
(g88
g69
NtRp3660
(dp3661
g72
(dp3662
g92
g93
ssg81
g3656
sg74
(lp3663
S'SCRIPT_FILENAME'
p3664
asbag67
(g88
g69
NtRp3665
(dp3666
g72
(dp3667
g99
g100
ssg81
g3656
sg74
(lp3668
S':'
asbag67
(g88
g69
NtRp3669
(dp3670
g72
(dp3671
sg81
g3656
sg74
(lp3672
g67
(g68
g69
NtRp3673
(dp3674
g72
(dp3675
g80
I3
ssg81
g3669
sg74
(lp3676
g2198
asbasbasbag67
(g83
g69
NtRp3677
(dp3678
g72
(dp3679
sg81
g3274
sg74
(lp3680
g67
(g88
g69
NtRp3681
(dp3682
g72
(dp3683
g92
g93
ssg81
g3677
sg74
(lp3684
S'SCRIPT_NAME'
p3685
asbag67
(g88
g69
NtRp3686
(dp3687
g72
(dp3688
g99
g100
ssg81
g3677
sg74
(lp3689
S':'
asbag67
(g88
g69
NtRp3690
(dp3691
g72
(dp3692
sg81
g3677
sg74
(lp3693
g67
(g68
g69
NtRp3694
(dp3695
g72
(dp3696
g80
I3
ssg81
g3690
sg74
(lp3697
S''
asbasbasbag67
(g83
g69
NtRp3698
(dp3699
g72
(dp3700
sg81
g3274
sg74
(lp3701
g67
(g88
g69
NtRp3702
(dp3703
g72
(dp3704
g92
g93
ssg81
g3698
sg74
(lp3705
S'SERVER_ADDR'
p3706
asbag67
(g88
g69
NtRp3707
(dp3708
g72
(dp3709
g99
g100
ssg81
g3698
sg74
(lp3710
S':'
asbag67
(g88
g69
NtRp3711
(dp3712
g72
(dp3713
sg81
g3698
sg74
(lp3714
g67
(g68
g69
NtRp3715
(dp3716
g72
(dp3717
g80
I3
ssg81
g3711
sg74
(lp3718
g2241
asbasbasbag67
(g83
g69
NtRp3719
(dp3720
g72
(dp3721
sg81
g3274
sg74
(lp3722
g67
(g88
g69
NtRp3723
(dp3724
g72
(dp3725
g92
g93
ssg81
g3719
sg74
(lp3726
S'SERVER_ADMIN'
p3727
asbag67
(g88
g69
NtRp3728
(dp3729
g72
(dp3730
g99
g100
ssg81
g3719
sg74
(lp3731
S':'
asbag67
(g88
g69
NtRp3732
(dp3733
g72
(dp3734
sg81
g3719
sg74
(lp3735
g67
(g68
g69
NtRp3736
(dp3737
g72
(dp3738
g80
I3
ssg81
g3732
sg74
(lp3739
g2263
asbasbasbag67
(g83
g69
NtRp3740
(dp3741
g72
(dp3742
sg81
g3274
sg74
(lp3743
g67
(g88
g69
NtRp3744
(dp3745
g72
(dp3746
g92
g93
ssg81
g3740
sg74
(lp3747
S'SERVER_NAME'
p3748
asbag67
(g88
g69
NtRp3749
(dp3750
g72
(dp3751
g99
g100
ssg81
g3740
sg74
(lp3752
S':'
asbag67
(g88
g69
NtRp3753
(dp3754
g72
(dp3755
sg81
g3740
sg74
(lp3756
g67
(g68
g69
NtRp3757
(dp3758
g72
(dp3759
g80
I3
ssg81
g3753
sg74
(lp3760
g2285
asbasbasbag67
(g83
g69
NtRp3761
(dp3762
g72
(dp3763
sg81
g3274
sg74
(lp3764
g67
(g88
g69
NtRp3765
(dp3766
g72
(dp3767
g92
g93
ssg81
g3761
sg74
(lp3768
S'SERVER_PORT'
p3769
asbag67
(g88
g69
NtRp3770
(dp3771
g72
(dp3772
g99
g100
ssg81
g3761
sg74
(lp3773
S':'
asbag67
(g88
g69
NtRp3774
(dp3775
g72
(dp3776
sg81
g3761
sg74
(lp3777
g67
(g68
g69
NtRp3778
(dp3779
g72
(dp3780
g80
I3
ssg81
g3774
sg74
(lp3781
g2307
asbasbasbag67
(g83
g69
NtRp3782
(dp3783
g72
(dp3784
sg81
g3274
sg74
(lp3785
g67
(g88
g69
NtRp3786
(dp3787
g72
(dp3788
g92
g93
ssg81
g3782
sg74
(lp3789
S'SERVER_PROTOCOL'
p3790
asbag67
(g88
g69
NtRp3791
(dp3792
g72
(dp3793
g99
g100
ssg81
g3782
sg74
(lp3794
S':'
asbag67
(g88
g69
NtRp3795
(dp3796
g72
(dp3797
sg81
g3782
sg74
(lp3798
g67
(g68
g69
NtRp3799
(dp3800
g72
(dp3801
g80
I3
ssg81
g3795
sg74
(lp3802
g2329
asbasbasbag67
(g83
g69
NtRp3803
(dp3804
g72
(dp3805
sg81
g3274
sg74
(lp3806
g67
(g88
g69
NtRp3807
(dp3808
g72
(dp3809
g92
g93
ssg81
g3803
sg74
(lp3810
S'SERVER_SIGNATURE'
p3811
asbag67
(g88
g69
NtRp3812
(dp3813
g72
(dp3814
g99
g100
ssg81
g3803
sg74
(lp3815
S':'
asbag67
(g88
g69
NtRp3816
(dp3817
g72
(dp3818
sg81
g3803
sg74
(lp3819
g67
(g68
g69
NtRp3820
(dp3821
g72
(dp3822
g80
I3
ssg81
g3816
sg74
(lp3823
S''
asbasbasbag67
(g83
g69
NtRp3824
(dp3825
g72
(dp3826
sg81
g3274
sg74
(lp3827
g67
(g88
g69
NtRp3828
(dp3829
g72
(dp3830
g92
g93
ssg81
g3824
sg74
(lp3831
S'SERVER_SOFTWARE'
p3832
asbag67
(g88
g69
NtRp3833
(dp3834
g72
(dp3835
g99
g100
ssg81
g3824
sg74
(lp3836
S':'
asbag67
(g88
g69
NtRp3837
(dp3838
g72
(dp3839
sg81
g3824
sg74
(lp3840
g67
(g68
g69
NtRp3841
(dp3842
g72
(dp3843
g80
I3
ssg81
g3837
sg74
(lp3844
g2372
asbasbasbag67
(g83
g69
NtRp3845
(dp3846
g72
(dp3847
sg81
g3274
sg74
(lp3848
g67
(g88
g69
NtRp3849
(dp3850
g72
(dp3851
g92
g93
ssg81
g3845
sg74
(lp3852
S'mod_wsgi.application_group'
p3853
asbag67
(g88
g69
NtRp3854
(dp3855
g72
(dp3856
g99
g100
ssg81
g3845
sg74
(lp3857
S':'
asbag67
(g88
g69
NtRp3858
(dp3859
g72
(dp3860
sg81
g3845
sg74
(lp3861
g67
(g68
g69
NtRp3862
(dp3863
g72
(dp3864
g80
I3
ssg81
g3858
sg74
(lp3865
g1804
asbasbasbag67
(g83
g69
NtRp3866
(dp3867
g72
(dp3868
sg81
g3274
sg74
(lp3869
g67
(g88
g69
NtRp3870
(dp3871
g72
(dp3872
g92
g93
ssg81
g3866
sg74
(lp3873
S'mod_wsgi.callable_object'
p3874
asbag67
(g88
g69
NtRp3875
(dp3876
g72
(dp3877
g99
g100
ssg81
g3866
sg74
(lp3878
S':'
asbag67
(g88
g69
NtRp3879
(dp3880
g72
(dp3881
sg81
g3866
sg74
(lp3882
g67
(g68
g69
NtRp3883
(dp3884
g72
(dp3885
g80
I3
ssg81
g3879
sg74
(lp3886
g1826
asbasbasbag67
(g83
g69
NtRp3887
(dp3888
g72
(dp3889
sg81
g3274
sg74
(lp3890
g67
(g88
g69
NtRp3891
(dp3892
g72
(dp3893
g92
g93
ssg81
g3887
sg74
(lp3894
S'mod_wsgi.handler_script'
p3895
asbag67
(g88
g69
NtRp3896
(dp3897
g72
(dp3898
g99
g100
ssg81
g3887
sg74
(lp3899
S':'
asbag67
(g88
g69
NtRp3900
(dp3901
g72
(dp3902
sg81
g3887
sg74
(lp3903
g67
(g68
g69
NtRp3904
(dp3905
g72
(dp3906
g80
I3
ssg81
g3900
sg74
(lp3907
S''
asbasbasbag67
(g83
g69
NtRp3908
(dp3909
g72
(dp3910
sg81
g3274
sg74
(lp3911
g67
(g88
g69
NtRp3912
(dp3913
g72
(dp3914
g92
g93
ssg81
g3908
sg74
(lp3915
S'mod_wsgi.input_chunked'
p3916
asbag67
(g88
g69
NtRp3917
(dp3918
g72
(dp3919
g99
g100
ssg81
g3908
sg74
(lp3920
S':'
asbag67
(g88
g69
NtRp3921
(dp3922
g72
(dp3923
sg81
g3908
sg74
(lp3924
g67
(g68
g69
NtRp3925
(dp3926
g72
(dp3927
g80
I3
ssg81
g3921
sg74
(lp3928
S'0'
asbasbasbag67
(g83
g69
NtRp3929
(dp3930
g72
(dp3931
sg81
g3274
sg74
(lp3932
g67
(g88
g69
NtRp3933
(dp3934
g72
(dp3935
g92
g93
ssg81
g3929
sg74
(lp3936
S'mod_wsgi.listener_host'
p3937
asbag67
(g88
g69
NtRp3938
(dp3939
g72
(dp3940
g99
g100
ssg81
g3929
sg74
(lp3941
S':'
asbag67
(g88
g69
NtRp3942
(dp3943
g72
(dp3944
sg81
g3929
sg74
(lp3945
g67
(g68
g69
NtRp3946
(dp3947
g72
(dp3948
g80
I3
ssg81
g3942
sg74
(lp3949
S''
asbasbasbag67
(g83
g69
NtRp3950
(dp3951
g72
(dp3952
sg81
g3274
sg74
(lp3953
g67
(g88
g69
NtRp3954
(dp3955
g72
(dp3956
g92
g93
ssg81
g3950
sg74
(lp3957
S'mod_wsgi.listener_port'
p3958
asbag67
(g88
g69
NtRp3959
(dp3960
g72
(dp3961
g99
g100
ssg81
g3950
sg74
(lp3962
S':'
asbag67
(g88
g69
NtRp3963
(dp3964
g72
(dp3965
sg81
g3950
sg74
(lp3966
g67
(g68
g69
NtRp3967
(dp3968
g72
(dp3969
g80
I3
ssg81
g3963
sg74
(lp3970
g1911
asbasbasbag67
(g83
g69
NtRp3971
(dp3972
g72
(dp3973
sg81
g3274
sg74
(lp3974
g67
(g88
g69
NtRp3975
(dp3976
g72
(dp3977
g92
g93
ssg81
g3971
sg74
(lp3978
S'mod_wsgi.process_group'
p3979
asbag67
(g88
g69
NtRp3980
(dp3981
g72
(dp3982
g99
g100
ssg81
g3971
sg74
(lp3983
S':'
asbag67
(g88
g69
NtRp3984
(dp3985
g72
(dp3986
sg81
g3971
sg74
(lp3987
g67
(g68
g69
NtRp3988
(dp3989
g72
(dp3990
g80
I3
ssg81
g3984
sg74
(lp3991
S''
asbasbasbag67
(g83
g69
NtRp3992
(dp3993
g72
(dp3994
sg81
g3274
sg74
(lp3995
g67
(g88
g69
NtRp3996
(dp3997
g72
(dp3998
g92
g93
ssg81
g3992
sg74
(lp3999
S'mod_wsgi.request_handler'
p4000
asbag67
(g88
g69
NtRp4001
(dp4002
g72
(dp4003
g99
g100
ssg81
g3992
sg74
(lp4004
S':'
asbag67
(g88
g69
NtRp4005
(dp4006
g72
(dp4007
sg81
g3992
sg74
(lp4008
g67
(g68
g69
NtRp4009
(dp4010
g72
(dp4011
g80
I3
ssg81
g4005
sg74
(lp4012
g1954
asbasbasbag67
(g83
g69
NtRp4013
(dp4014
g72
(dp4015
sg81
g3274
sg74
(lp4016
g67
(g88
g69
NtRp4017
(dp4018
g72
(dp4019
g92
g93
ssg81
g4013
sg74
(lp4020
S'mod_wsgi.script_reloading'
p4021
asbag67
(g88
g69
NtRp4022
(dp4023
g72
(dp4024
g99
g100
ssg81
g4013
sg74
(lp4025
S':'
asbag67
(g88
g69
NtRp4026
(dp4027
g72
(dp4028
sg81
g4013
sg74
(lp4029
g67
(g68
g69
NtRp4030
(dp4031
g72
(dp4032
g80
I3
ssg81
g4026
sg74
(lp4033
S'1'
asbasbasbag67
(g83
g69
NtRp4034
(dp4035
g72
(dp4036
sg81
g3274
sg74
(lp4037
g67
(g88
g69
NtRp4038
(dp4039
g72
(dp4040
g92
g93
ssg81
g4034
sg74
(lp4041
S'mod_wsgi.version'
p4042
asbag67
(g88
g69
NtRp4043
(dp4044
g72
(dp4045
g99
g100
ssg81
g4034
sg74
(lp4046
S':'
asbag67
(g88
g69
NtRp4047
(dp4048
g72
(dp4049
sg81
g4034
sg74
(lp4050
g67
(g68
g69
NtRp4051
(dp4052
g72
(dp4053
g80
I3
ssg81
g4047
sg74
(lp4054
g67
(g76
g69
NtRp4055
(dp4056
g72
(dp4057
g80
I2
ssg81
Nsg74
(lp4058
g67
(g83
g69
NtRp4059
(dp4060
g72
(dp4061
sg81
g4055
sg74
(lp4062
g67
(g88
g69
NtRp4063
(dp4064
g72
(dp4065
sg81
g4059
sg74
(lp4066
g67
(g68
g69
NtRp4067
(dp4068
g72
(dp4069
g80
I2
ssg81
g4063
sg74
(lp4070
S'3'
asbasbasbag67
(g83
g69
NtRp4071
(dp4072
g72
(dp4073
sg81
g4055
sg74
(lp4074
g67
(g88
g69
NtRp4075
(dp4076
g72
(dp4077
sg81
g4071
sg74
(lp4078
g67
(g68
g69
NtRp4079
(dp4080
g72
(dp4081
g80
I2
ssg81
g4075
sg74
(lp4082
S'3'
asbasbasbasbasbasbasbag67
(g83
g69
NtRp4083
(dp4084
g72
(dp4085
sg81
g3274
sg74
(lp4086
g67
(g88
g69
NtRp4087
(dp4088
g72
(dp4089
g92
g93
ssg81
g4083
sg74
(lp4090
S'wsgi.errors'
p4091
asbag67
(g88
g69
NtRp4092
(dp4093
g72
(dp4094
g99
g100
ssg81
g4083
sg74
(lp4095
S':'
asbag67
(g88
g69
NtRp4096
(dp4097
g72
(dp4098
sg81
g4083
sg74
(lp4099
g67
(g68
g69
NtRp4100
(dp4101
g72
(dp4102
g80
I3
ssg81
g4096
sg74
(lp4103
S'<mod_wsgi.Log object at 0x104931870>'
p4104
asbasbasbag67
(g83
g69
NtRp4105
(dp4106
g72
(dp4107
sg81
g3274
sg74
(lp4108
g67
(g88
g69
NtRp4109
(dp4110
g72
(dp4111
g92
g93
ssg81
g4105
sg74
(lp4112
S'wsgi.file_wrapper'
p4113
asbag67
(g88
g69
NtRp4114
(dp4115
g72
(dp4116
g99
g100
ssg81
g4105
sg74
(lp4117
S':'
asbag67
(g88
g69
NtRp4118
(dp4119
g72
(dp4120
sg81
g4105
sg74
(lp4121
g67
(g68
g69
NtRp4122
(dp4123
g72
(dp4124
g80
I3
ssg81
g4118
sg74
(lp4125
S'<built-in method file_wrapper of mod_wsgi.Adapter object at 0x104930300>'
p4126
asbasbasbag67
(g83
g69
NtRp4127
(dp4128
g72
(dp4129
sg81
g3274
sg74
(lp4130
g67
(g88
g69
NtRp4131
(dp4132
g72
(dp4133
g92
g93
ssg81
g4127
sg74
(lp4134
S'wsgi.input'
p4135
asbag67
(g88
g69
NtRp4136
(dp4137
g72
(dp4138
g99
g100
ssg81
g4127
sg74
(lp4139
S':'
asbag67
(g88
g69
NtRp4140
(dp4141
g72
(dp4142
sg81
g4127
sg74
(lp4143
g67
(g68
g69
NtRp4144
(dp4145
g72
(dp4146
g80
I3
ssg81
g4140
sg74
(lp4147
S'<cStringIO.StringO object at 0x10492ec70>'
p4148
asbasbasbag67
(g83
g69
NtRp4149
(dp4150
g72
(dp4151
sg81
g3274
sg74
(lp4152
g67
(g88
g69
NtRp4153
(dp4154
g72
(dp4155
g92
g93
ssg81
g4149
sg74
(lp4156
S'wsgi.multiprocess'
p4157
asbag67
(g88
g69
NtRp4158
(dp4159
g72
(dp4160
g99
g100
ssg81
g4149
sg74
(lp4161
S':'
asbag67
(g88
g69
NtRp4162
(dp4163
g72
(dp4164
sg81
g4149
sg74
(lp4165
g67
(g68
g69
NtRp4166
(dp4167
g72
(dp4168
g80
I3
ssg81
g4162
sg74
(lp4169
g2569
asbasbasbag67
(g83
g69
NtRp4170
(dp4171
g72
(dp4172
sg81
g3274
sg74
(lp4173
g67
(g88
g69
NtRp4174
(dp4175
g72
(dp4176
g92
g93
ssg81
g4170
sg74
(lp4177
S'wsgi.multithread'
p4178
asbag67
(g88
g69
NtRp4179
(dp4180
g72
(dp4181
g99
g100
ssg81
g4170
sg74
(lp4182
S':'
asbag67
(g88
g69
NtRp4183
(dp4184
g72
(dp4185
sg81
g4170
sg74
(lp4186
g67
(g68
g69
NtRp4187
(dp4188
g72
(dp4189
g80
I3
ssg81
g4183
sg74
(lp4190
g110
asbasbasbag67
(g83
g69
NtRp4191
(dp4192
g72
(dp4193
sg81
g3274
sg74
(lp4194
g67
(g88
g69
NtRp4195
(dp4196
g72
(dp4197
g92
g93
ssg81
g4191
sg74
(lp4198
S'wsgi.run_once'
p4199
asbag67
(g88
g69
NtRp4200
(dp4201
g72
(dp4202
g99
g100
ssg81
g4191
sg74
(lp4203
S':'
asbag67
(g88
g69
NtRp4204
(dp4205
g72
(dp4206
sg81
g4191
sg74
(lp4207
g67
(g68
g69
NtRp4208
(dp4209
g72
(dp4210
g80
I3
ssg81
g4204
sg74
(lp4211
g110
asbasbasbag67
(g83
g69
NtRp4212
(dp4213
g72
(dp4214
sg81
g3274
sg74
(lp4215
g67
(g88
g69
NtRp4216
(dp4217
g72
(dp4218
g92
g93
ssg81
g4212
sg74
(lp4219
S'wsgi.url_scheme'
p4220
asbag67
(g88
g69
NtRp4221
(dp4222
g72
(dp4223
g99
g100
ssg81
g4212
sg74
(lp4224
S':'
asbag67
(g88
g69
NtRp4225
(dp4226
g72
(dp4227
sg81
g4212
sg74
(lp4228
g67
(g68
g69
NtRp4229
(dp4230
g72
(dp4231
g80
I3
ssg81
g4225
sg74
(lp4232
g2633
asbasbasbag67
(g83
g69
NtRp4233
(dp4234
g72
(dp4235
sg81
g3274
sg74
(lp4236
g67
(g88
g69
NtRp4237
(dp4238
g72
(dp4239
g92
g93
ssg81
g4233
sg74
(lp4240
S'wsgi.version'
p4241
asbag67
(g88
g69
NtRp4242
(dp4243
g72
(dp4244
g99
g100
ssg81
g4233
sg74
(lp4245
S':'
asbag67
(g88
g69
NtRp4246
(dp4247
g72
(dp4248
sg81
g4233
sg74
(lp4249
g67
(g68
g69
NtRp4250
(dp4251
g72
(dp4252
g80
I3
ssg81
g4246
sg74
(lp4253
S'1'
asbasbasbasbasbasbasbasbasbasbasbasbasbsS'frames'
p4254
(lp4255
(dp4256
S'file'
p4257
S'/Users/emir/Documents/beardcode/web2py/gluon/restricted.py'
p4258
sS'dump'
p4259
(dp4260
S'code'
p4261
S"'# -*- coding: utf-8 -*-\\n\\n\\ndef index():\\n\\tfrom dat... dict()\\n\\n\\nresponse._vars=response._caller(index)\\n'"
p4262
sS'layer'
p4263
S"'/Users/emir/Documents/beardcode/web2py/applications/fayol/controllers/default.py'"
p4264
sS'global compile2'
p4265
S'<function compile2>'
p4266
sS'ccode'
p4267
S'undefined'
p4268
ssS'lnum'
p4269
I204
sS'lines'
p4270
(dp4271
I199
S"    environment['__name__'] = '__restricted__'"
p4272
sI200
S'    try:'
p4273
sI201
S'        if type(code) == types.CodeType:'
p4274
sI202
S'            ccode = code'
p4275
sI203
S'        else:'
p4276
sI204
S'            ccode = compile2(code,layer)'
p4277
sI205
S'        exec ccode in environment'
p4278
sI206
S'    except HTTP:'
p4279
sI207
S'        raise'
p4280
sI208
S'    except RestrictedError:'
p4281
ssS'call'
p4282
S"(code='# -*- coding: utf-8 -*-\\n\\n\\ndef index():\\n\\tfrom dat... dict()\\n\\n\\nresponse._vars=response._caller(index)\\n', environment={'A': <class 'gluon.html.A'>, 'B': <class 'gluon.html.B'>, 'BEAUTIFY': <class 'gluon.html.BEAUTIFY'>, 'BODY': <class 'gluon.html.BODY'>, 'BR': <class 'gluon.html.BR'>, 'BUTTON': <class 'gluon.html.BUTTON'>, 'CAT': <class 'gluon.html.CAT'>, 'CENTER': <class 'gluon.html.CENTER'>, 'CLEANUP': <class 'gluon.validators.CLEANUP'>, 'CODE': <class 'gluon.html.CODE'>, ...}, layer='/Users/emir/Documents/beardcode/web2py/applications/fayol/controllers/default.py')"
p4283
sS'func'
p4284
S'restricted'
p4285
sa(dp4286
g4257
S'/Users/emir/Documents/beardcode/web2py/gluon/restricted.py'
p4287
sg4259
(dp4288
S'builtincompile'
p4289
S'<built-in function compile>'
p4290
sS'code'
p4291
S"'# -*- coding: utf-8 -*-\\n\\n\\ndef index():\\n\\tfrom dat... dict()\\n\\n\\nresponse._vars=response._caller(index)\\n'"
p4292
sS'code.rstrip'
p4293
S'<built-in method rstrip of str object>'
p4294
sS').replace'
p4295
g4268
sS'layer'
p4296
S"'/Users/emir/Documents/beardcode/web2py/applications/fayol/controllers/default.py'"
p4297
ssg4269
I189
sg4270
(dp4298
I192
S'    """'
p4299
sI193
S'    runs code in environment and returns the output. if an exception occurs'
p4300
sI184
S''
sI185
S'def compile2(code,layer):'
p4301
sI186
S'    """'
p4302
sI187
S"    The +'\\n' is necessary else compile fails when code ends in a comment."
p4303
sI188
S'    """'
p4304
sI189
S"    return compile(code.rstrip().replace('\\r\\n','\\n')+'\\n', layer, 'exec')"
p4305
sI190
S''
sI191
S"def restricted(code, environment=None, layer='Unknown'):"
p4306
ssg4282
S"(code='# -*- coding: utf-8 -*-\\n\\n\\ndef index():\\n\\tfrom dat... dict()\\n\\n\\nresponse._vars=response._caller(index)\\n', layer='/Users/emir/Documents/beardcode/web2py/applications/fayol/controllers/default.py')"
p4307
sg4284
S'compile2'
p4308
sasS'pyver'
p4309
S'Python 2.6.7: /usr/bin/python'
p4310
sS'session'
p4311
g67
(g68
g69
NtRp4312
(dp4313
g72
(dp4314
sg74
(lp4315
g67
(g76
g69
NtRp4316
(dp4317
g72
(dp4318
g80
I5
ssg81
Nsg74
(lp4319
sbasbsS'etype'
p4320
S"<type 'exceptions.IndentationError'>"
p4321
sS'date'
p4322
S'Mon Aug 13 13:39:14 2012'
p4323
sS'response'
p4324
g67
(g68
g69
NtRp4325
(dp4326
g72
(dp4327
sg74
(lp4328
g67
(g76
g69
NtRp4329
(dp4330
g72
(dp4331
g80
I5
ssg81
Nsg74
(lp4332
g67
(g83
g69
NtRp4333
(dp4334
g72
(dp4335
sg81
g4329
sg74
(lp4336
g67
(g88
g69
NtRp4337
(dp4338
g72
(dp4339
g92
g93
ssg81
g4333
sg74
(lp4340
g165
asbag67
(g88
g69
NtRp4341
(dp4342
g72
(dp4343
g99
g100
ssg81
g4333
sg74
(lp4344
S':'
asbag67
(g88
g69
NtRp4345
(dp4346
g72
(dp4347
sg81
g4333
sg74
(lp4348
g67
(g68
g69
NtRp4349
(dp4350
g72
(dp4351
g80
I5
ssg81
g4345
sg74
(lp4352
S'<cStringIO.StringO object at 0x10492eab0>'
p4353
asbasbasbag67
(g83
g69
NtRp4354
(dp4355
g72
(dp4356
sg81
g4329
sg74
(lp4357
g67
(g88
g69
NtRp4358
(dp4359
g72
(dp4360
g92
g93
ssg81
g4354
sg74
(lp4361
g231
asbag67
(g88
g69
NtRp4362
(dp4363
g72
(dp4364
g99
g100
ssg81
g4354
sg74
(lp4365
S':'
asbag67
(g88
g69
NtRp4366
(dp4367
g72
(dp4368
sg81
g4354
sg74
(lp4369
g67
(g68
g69
NtRp4370
(dp4371
g72
(dp4372
g80
I5
ssg81
g4366
sg74
(lp4373
g67
(g76
g69
NtRp4374
(dp4375
g72
(dp4376
g80
I4
ssg81
Nsg74
(lp4377
g67
(g83
g69
NtRp4378
(dp4379
g72
(dp4380
sg81
g4374
sg74
(lp4381
g67
(g88
g69
NtRp4382
(dp4383
g72
(dp4384
g92
g93
ssg81
g4378
sg74
(lp4385
S'session_id_fayol'
p4386
asbag67
(g88
g69
NtRp4387
(dp4388
g72
(dp4389
g99
g100
ssg81
g4378
sg74
(lp4390
S':'
asbag67
(g88
g69
NtRp4391
(dp4392
g72
(dp4393
sg81
g4378
sg74
(lp4394
g67
(g68
g69
NtRp4395
(dp4396
g72
(dp4397
g80
I4
ssg81
g4391
sg74
(lp4398
g67
(g76
g69
NtRp4399
(dp4400
g72
(dp4401
g80
I3
ssg81
Nsg74
(lp4402
g67
(g83
g69
NtRp4403
(dp4404
g72
(dp4405
sg81
g4399
sg74
(lp4406
g67
(g88
g69
NtRp4407
(dp4408
g72
(dp4409
g92
g93
ssg81
g4403
sg74
(lp4410
g281
asbag67
(g88
g69
NtRp4411
(dp4412
g72
(dp4413
g99
g100
ssg81
g4403
sg74
(lp4414
S':'
asbag67
(g88
g69
NtRp4415
(dp4416
g72
(dp4417
sg81
g4403
sg74
(lp4418
g67
(g68
g69
NtRp4419
(dp4420
g72
(dp4421
g80
I3
ssg81
g4415
sg74
(lp4422
S''
asbasbasbag67
(g83
g69
NtRp4423
(dp4424
g72
(dp4425
sg81
g4399
sg74
(lp4426
g67
(g88
g69
NtRp4427
(dp4428
g72
(dp4429
g92
g93
ssg81
g4423
sg74
(lp4430
g302
asbag67
(g88
g69
NtRp4431
(dp4432
g72
(dp4433
g99
g100
ssg81
g4423
sg74
(lp4434
S':'
asbag67
(g88
g69
NtRp4435
(dp4436
g72
(dp4437
sg81
g4423
sg74
(lp4438
g67
(g68
g69
NtRp4439
(dp4440
g72
(dp4441
g80
I3
ssg81
g4435
sg74
(lp4442
S''
asbasbasbag67
(g83
g69
NtRp4443
(dp4444
g72
(dp4445
sg81
g4399
sg74
(lp4446
g67
(g88
g69
NtRp4447
(dp4448
g72
(dp4449
g92
g93
ssg81
g4443
sg74
(lp4450
g323
asbag67
(g88
g69
NtRp4451
(dp4452
g72
(dp4453
g99
g100
ssg81
g4443
sg74
(lp4454
S':'
asbag67
(g88
g69
NtRp4455
(dp4456
g72
(dp4457
sg81
g4443
sg74
(lp4458
g67
(g68
g69
NtRp4459
(dp4460
g72
(dp4461
g80
I3
ssg81
g4455
sg74
(lp4462
S''
asbasbasbag67
(g83
g69
NtRp4463
(dp4464
g72
(dp4465
sg81
g4399
sg74
(lp4466
g67
(g88
g69
NtRp4467
(dp4468
g72
(dp4469
g92
g93
ssg81
g4463
sg74
(lp4470
g344
asbag67
(g88
g69
NtRp4471
(dp4472
g72
(dp4473
g99
g100
ssg81
g4463
sg74
(lp4474
S':'
asbag67
(g88
g69
NtRp4475
(dp4476
g72
(dp4477
sg81
g4463
sg74
(lp4478
g67
(g68
g69
NtRp4479
(dp4480
g72
(dp4481
g80
I3
ssg81
g4475
sg74
(lp4482
S''
asbasbasbag67
(g83
g69
NtRp4483
(dp4484
g72
(dp4485
sg81
g4399
sg74
(lp4486
g67
(g88
g69
NtRp4487
(dp4488
g72
(dp4489
g92
g93
ssg81
g4483
sg74
(lp4490
g365
asbag67
(g88
g69
NtRp4491
(dp4492
g72
(dp4493
g99
g100
ssg81
g4483
sg74
(lp4494
S':'
asbag67
(g88
g69
NtRp4495
(dp4496
g72
(dp4497
sg81
g4483
sg74
(lp4498
g67
(g68
g69
NtRp4499
(dp4500
g72
(dp4501
g80
I3
ssg81
g4495
sg74
(lp4502
S''
asbasbasbag67
(g83
g69
NtRp4503
(dp4504
g72
(dp4505
sg81
g4399
sg74
(lp4506
g67
(g88
g69
NtRp4507
(dp4508
g72
(dp4509
g92
g93
ssg81
g4503
sg74
(lp4510
g386
asbag67
(g88
g69
NtRp4511
(dp4512
g72
(dp4513
g99
g100
ssg81
g4503
sg74
(lp4514
S':'
asbag67
(g88
g69
NtRp4515
(dp4516
g72
(dp4517
sg81
g4503
sg74
(lp4518
g67
(g68
g69
NtRp4519
(dp4520
g72
(dp4521
g80
I3
ssg81
g4515
sg74
(lp4522
S'/'
asbasbasbag67
(g83
g69
NtRp4523
(dp4524
g72
(dp4525
sg81
g4399
sg74
(lp4526
g67
(g88
g69
NtRp4527
(dp4528
g72
(dp4529
g92
g93
ssg81
g4523
sg74
(lp4530
g407
asbag67
(g88
g69
NtRp4531
(dp4532
g72
(dp4533
g99
g100
ssg81
g4523
sg74
(lp4534
S':'
asbag67
(g88
g69
NtRp4535
(dp4536
g72
(dp4537
sg81
g4523
sg74
(lp4538
g67
(g68
g69
NtRp4539
(dp4540
g72
(dp4541
g80
I3
ssg81
g4535
sg74
(lp4542
S''
asbasbasbag67
(g83
g69
NtRp4543
(dp4544
g72
(dp4545
sg81
g4399
sg74
(lp4546
g67
(g88
g69
NtRp4547
(dp4548
g72
(dp4549
g92
g93
ssg81
g4543
sg74
(lp4550
g428
asbag67
(g88
g69
NtRp4551
(dp4552
g72
(dp4553
g99
g100
ssg81
g4543
sg74
(lp4554
S':'
asbag67
(g88
g69
NtRp4555
(dp4556
g72
(dp4557
sg81
g4543
sg74
(lp4558
g67
(g68
g69
NtRp4559
(dp4560
g72
(dp4561
g80
I3
ssg81
g4555
sg74
(lp4562
S''
asbasbasbasbasbasbasbasbasbasbasbag67
(g83
g69
NtRp4563
(dp4564
g72
(dp4565
sg81
g4329
sg74
(lp4566
g67
(g88
g69
NtRp4567
(dp4568
g72
(dp4569
g92
g93
ssg81
g4563
sg74
(lp4570
S'delimiters'
p4571
asbag67
(g88
g69
NtRp4572
(dp4573
g72
(dp4574
g99
g100
ssg81
g4563
sg74
(lp4575
S':'
asbag67
(g88
g69
NtRp4576
(dp4577
g72
(dp4578
sg81
g4563
sg74
(lp4579
g67
(g68
g69
NtRp4580
(dp4581
g72
(dp4582
g80
I5
ssg81
g4576
sg74
(lp4583
g67
(g76
g69
NtRp4584
(dp4585
g72
(dp4586
g80
I4
ssg81
Nsg74
(lp4587
g67
(g83
g69
NtRp4588
(dp4589
g72
(dp4590
sg81
g4584
sg74
(lp4591
g67
(g88
g69
NtRp4592
(dp4593
g72
(dp4594
sg81
g4588
sg74
(lp4595
g67
(g68
g69
NtRp4596
(dp4597
g72
(dp4598
g80
I4
ssg81
g4592
sg74
(lp4599
S'{{'
p4600
asbasbasbag67
(g83
g69
NtRp4601
(dp4602
g72
(dp4603
sg81
g4584
sg74
(lp4604
g67
(g88
g69
NtRp4605
(dp4606
g72
(dp4607
sg81
g4601
sg74
(lp4608
g67
(g68
g69
NtRp4609
(dp4610
g72
(dp4611
g80
I4
ssg81
g4605
sg74
(lp4612
S'}}'
p4613
asbasbasbasbasbasbasbag67
(g83
g69
NtRp4614
(dp4615
g72
(dp4616
sg81
g4329
sg74
(lp4617
g67
(g88
g69
NtRp4618
(dp4619
g72
(dp4620
g92
g93
ssg81
g4614
sg74
(lp4621
S'files'
p4622
asbag67
(g88
g69
NtRp4623
(dp4624
g72
(dp4625
g99
g100
ssg81
g4614
sg74
(lp4626
S':'
asbag67
(g88
g69
NtRp4627
(dp4628
g72
(dp4629
sg81
g4614
sg74
(lp4630
g67
(g68
g69
NtRp4631
(dp4632
g72
(dp4633
g80
I5
ssg81
g4627
sg74
(lp4634
g67
(g76
g69
NtRp4635
(dp4636
g72
(dp4637
g80
I4
ssg81
Nsg74
(lp4638
sbasbasbasbag67
(g83
g69
NtRp4639
(dp4640
g72
(dp4641
sg81
g4329
sg74
(lp4642
g67
(g88
g69
NtRp4643
(dp4644
g72
(dp4645
g92
g93
ssg81
g4639
sg74
(lp4646
S'flash'
p4647
asbag67
(g88
g69
NtRp4648
(dp4649
g72
(dp4650
g99
g100
ssg81
g4639
sg74
(lp4651
S':'
asbag67
(g88
g69
NtRp4652
(dp4653
g72
(dp4654
sg81
g4639
sg74
(lp4655
g67
(g68
g69
NtRp4656
(dp4657
g72
(dp4658
g80
I5
ssg81
g4652
sg74
(lp4659
S''
asbasbasbag67
(g83
g69
NtRp4660
(dp4661
g72
(dp4662
sg81
g4329
sg74
(lp4663
g67
(g88
g69
NtRp4664
(dp4665
g72
(dp4666
g92
g93
ssg81
g4660
sg74
(lp4667
S'generic_patterns'
p4668
asbag67
(g88
g69
NtRp4669
(dp4670
g72
(dp4671
g99
g100
ssg81
g4660
sg74
(lp4672
S':'
asbag67
(g88
g69
NtRp4673
(dp4674
g72
(dp4675
sg81
g4660
sg74
(lp4676
g67
(g68
g69
NtRp4677
(dp4678
g72
(dp4679
g80
I5
ssg81
g4673
sg74
(lp4680
g67
(g76
g69
NtRp4681
(dp4682
g72
(dp4683
g80
I4
ssg81
Nsg74
(lp4684
sbasbasbasbag67
(g83
g69
NtRp4685
(dp4686
g72
(dp4687
sg81
g4329
sg74
(lp4688
g67
(g88
g69
NtRp4689
(dp4690
g72
(dp4691
g92
g93
ssg81
g4685
sg74
(lp4692
S'headers'
p4693
asbag67
(g88
g69
NtRp4694
(dp4695
g72
(dp4696
g99
g100
ssg81
g4685
sg74
(lp4697
S':'
asbag67
(g88
g69
NtRp4698
(dp4699
g72
(dp4700
sg81
g4685
sg74
(lp4701
g67
(g68
g69
NtRp4702
(dp4703
g72
(dp4704
g80
I5
ssg81
g4698
sg74
(lp4705
g67
(g76
g69
NtRp4706
(dp4707
g72
(dp4708
g80
I4
ssg81
Nsg74
(lp4709
g67
(g83
g69
NtRp4710
(dp4711
g72
(dp4712
sg81
g4706
sg74
(lp4713
g67
(g88
g69
NtRp4714
(dp4715
g72
(dp4716
g92
g93
ssg81
g4710
sg74
(lp4717
S'Cache-Control'
p4718
asbag67
(g88
g69
NtRp4719
(dp4720
g72
(dp4721
g99
g100
ssg81
g4710
sg74
(lp4722
S':'
asbag67
(g88
g69
NtRp4723
(dp4724
g72
(dp4725
sg81
g4710
sg74
(lp4726
g67
(g68
g69
NtRp4727
(dp4728
g72
(dp4729
g80
I4
ssg81
g4723
sg74
(lp4730
S'no-store, no-cache, must-revalidate, post-check=0, pre-check=0'
p4731
asbasbasbag67
(g83
g69
NtRp4732
(dp4733
g72
(dp4734
sg81
g4706
sg74
(lp4735
g67
(g88
g69
NtRp4736
(dp4737
g72
(dp4738
g92
g93
ssg81
g4732
sg74
(lp4739
S'Content-Type'
p4740
asbag67
(g88
g69
NtRp4741
(dp4742
g72
(dp4743
g99
g100
ssg81
g4732
sg74
(lp4744
S':'
asbag67
(g88
g69
NtRp4745
(dp4746
g72
(dp4747
sg81
g4732
sg74
(lp4748
g67
(g68
g69
NtRp4749
(dp4750
g72
(dp4751
g80
I4
ssg81
g4745
sg74
(lp4752
S'text/html; charset=utf-8'
p4753
asbasbasbag67
(g83
g69
NtRp4754
(dp4755
g72
(dp4756
sg81
g4706
sg74
(lp4757
g67
(g88
g69
NtRp4758
(dp4759
g72
(dp4760
g92
g93
ssg81
g4754
sg74
(lp4761
S'Expires'
p4762
asbag67
(g88
g69
NtRp4763
(dp4764
g72
(dp4765
g99
g100
ssg81
g4754
sg74
(lp4766
S':'
asbag67
(g88
g69
NtRp4767
(dp4768
g72
(dp4769
sg81
g4754
sg74
(lp4770
g67
(g68
g69
NtRp4771
(dp4772
g72
(dp4773
g80
I4
ssg81
g4767
sg74
(lp4774
S'Mon, 13 Aug 2012 18:39:14 GMT'
p4775
asbasbasbag67
(g83
g69
NtRp4776
(dp4777
g72
(dp4778
sg81
g4706
sg74
(lp4779
g67
(g88
g69
NtRp4780
(dp4781
g72
(dp4782
g92
g93
ssg81
g4776
sg74
(lp4783
S'Pragma'
p4784
asbag67
(g88
g69
NtRp4785
(dp4786
g72
(dp4787
g99
g100
ssg81
g4776
sg74
(lp4788
S':'
asbag67
(g88
g69
NtRp4789
(dp4790
g72
(dp4791
sg81
g4776
sg74
(lp4792
g67
(g68
g69
NtRp4793
(dp4794
g72
(dp4795
g80
I4
ssg81
g4789
sg74
(lp4796
S'no-cache'
p4797
asbasbasbag67
(g83
g69
NtRp4798
(dp4799
g72
(dp4800
sg81
g4706
sg74
(lp4801
g67
(g88
g69
NtRp4802
(dp4803
g72
(dp4804
g92
g93
ssg81
g4798
sg74
(lp4805
S'X-Powered-By'
p4806
asbag67
(g88
g69
NtRp4807
(dp4808
g72
(dp4809
g99
g100
ssg81
g4798
sg74
(lp4810
S':'
asbag67
(g88
g69
NtRp4811
(dp4812
g72
(dp4813
sg81
g4798
sg74
(lp4814
g67
(g68
g69
NtRp4815
(dp4816
g72
(dp4817
g80
I4
ssg81
g4811
sg74
(lp4818
S'web2py'
p4819
asbasbasbasbasbasbasbag67
(g83
g69
NtRp4820
(dp4821
g72
(dp4822
sg81
g4329
sg74
(lp4823
g67
(g88
g69
NtRp4824
(dp4825
g72
(dp4826
g92
g93
ssg81
g4820
sg74
(lp4827
S'menu'
p4828
asbag67
(g88
g69
NtRp4829
(dp4830
g72
(dp4831
g99
g100
ssg81
g4820
sg74
(lp4832
S':'
asbag67
(g88
g69
NtRp4833
(dp4834
g72
(dp4835
sg81
g4820
sg74
(lp4836
g67
(g68
g69
NtRp4837
(dp4838
g72
(dp4839
g80
I5
ssg81
g4833
sg74
(lp4840
g67
(g76
g69
NtRp4841
(dp4842
g72
(dp4843
g80
I4
ssg81
Nsg74
(lp4844
sbasbasbasbag67
(g83
g69
NtRp4845
(dp4846
g72
(dp4847
sg81
g4329
sg74
(lp4848
g67
(g88
g69
NtRp4849
(dp4850
g72
(dp4851
g92
g93
ssg81
g4845
sg74
(lp4852
S'meta'
p4853
asbag67
(g88
g69
NtRp4854
(dp4855
g72
(dp4856
g99
g100
ssg81
g4845
sg74
(lp4857
S':'
asbag67
(g88
g69
NtRp4858
(dp4859
g72
(dp4860
sg81
g4845
sg74
(lp4861
g67
(g68
g69
NtRp4862
(dp4863
g72
(dp4864
g80
I5
ssg81
g4858
sg74
(lp4865
g67
(g76
g69
NtRp4866
(dp4867
g72
(dp4868
g80
I4
ssg81
Nsg74
(lp4869
sbasbasbasbag67
(g83
g69
NtRp4870
(dp4871
g72
(dp4872
sg81
g4329
sg74
(lp4873
g67
(g88
g69
NtRp4874
(dp4875
g72
(dp4876
g92
g93
ssg81
g4870
sg74
(lp4877
S'postprocessing'
p4878
asbag67
(g88
g69
NtRp4879
(dp4880
g72
(dp4881
g99
g100
ssg81
g4870
sg74
(lp4882
S':'
asbag67
(g88
g69
NtRp4883
(dp4884
g72
(dp4885
sg81
g4870
sg74
(lp4886
g67
(g68
g69
NtRp4887
(dp4888
g72
(dp4889
g80
I5
ssg81
g4883
sg74
(lp4890
g67
(g76
g69
NtRp4891
(dp4892
g72
(dp4893
g80
I4
ssg81
Nsg74
(lp4894
sbasbasbasbag67
(g83
g69
NtRp4895
(dp4896
g72
(dp4897
sg81
g4329
sg74
(lp4898
g67
(g88
g69
NtRp4899
(dp4900
g72
(dp4901
g92
g93
ssg81
g4895
sg74
(lp4902
S'session_filename'
p4903
asbag67
(g88
g69
NtRp4904
(dp4905
g72
(dp4906
g99
g100
ssg81
g4895
sg74
(lp4907
S':'
asbag67
(g88
g69
NtRp4908
(dp4909
g72
(dp4910
sg81
g4895
sg74
(lp4911
g67
(g68
g69
NtRp4912
(dp4913
g72
(dp4914
g80
I5
ssg81
g4908
sg74
(lp4915
S'/Users/emir/Documents/beardcode/web2py/applications/fayol/sessions/127.0.0.1-3895a18d-888c-4940-b4c7-4817707d7692'
p4916
asbasbasbag67
(g83
g69
NtRp4917
(dp4918
g72
(dp4919
sg81
g4329
sg74
(lp4920
g67
(g88
g69
NtRp4921
(dp4922
g72
(dp4923
g92
g93
ssg81
g4917
sg74
(lp4924
S'session_id'
p4925
asbag67
(g88
g69
NtRp4926
(dp4927
g72
(dp4928
g99
g100
ssg81
g4917
sg74
(lp4929
S':'
asbag67
(g88
g69
NtRp4930
(dp4931
g72
(dp4932
sg81
g4917
sg74
(lp4933
g67
(g68
g69
NtRp4934
(dp4935
g72
(dp4936
g80
I5
ssg81
g4930
sg74
(lp4937
S'127.0.0.1-3895a18d-888c-4940-b4c7-4817707d7692'
p4938
asbasbasbag67
(g83
g69
NtRp4939
(dp4940
g72
(dp4941
sg81
g4329
sg74
(lp4942
g67
(g88
g69
NtRp4943
(dp4944
g72
(dp4945
g92
g93
ssg81
g4939
sg74
(lp4946
S'session_id_name'
p4947
asbag67
(g88
g69
NtRp4948
(dp4949
g72
(dp4950
g99
g100
ssg81
g4939
sg74
(lp4951
S':'
asbag67
(g88
g69
NtRp4952
(dp4953
g72
(dp4954
sg81
g4939
sg74
(lp4955
g67
(g68
g69
NtRp4956
(dp4957
g72
(dp4958
g80
I5
ssg81
g4952
sg74
(lp4959
g4386
asbasbasbag67
(g83
g69
NtRp4960
(dp4961
g72
(dp4962
sg81
g4329
sg74
(lp4963
g67
(g88
g69
NtRp4964
(dp4965
g72
(dp4966
g92
g93
ssg81
g4960
sg74
(lp4967
S'session_new'
p4968
asbag67
(g88
g69
NtRp4969
(dp4970
g72
(dp4971
g99
g100
ssg81
g4960
sg74
(lp4972
S':'
asbag67
(g88
g69
NtRp4973
(dp4974
g72
(dp4975
sg81
g4960
sg74
(lp4976
g67
(g68
g69
NtRp4977
(dp4978
g72
(dp4979
g80
I5
ssg81
g4973
sg74
(lp4980
g2569
asbasbasbag67
(g83
g69
NtRp4981
(dp4982
g72
(dp4983
sg81
g4329
sg74
(lp4984
g67
(g88
g69
NtRp4985
(dp4986
g72
(dp4987
g92
g93
ssg81
g4981
sg74
(lp4988
S'status'
p4989
asbag67
(g88
g69
NtRp4990
(dp4991
g72
(dp4992
g99
g100
ssg81
g4981
sg74
(lp4993
S':'
asbag67
(g88
g69
NtRp4994
(dp4995
g72
(dp4996
sg81
g4981
sg74
(lp4997
g67
(g68
g69
NtRp4998
(dp4999
g72
(dp5000
g80
I5
ssg81
g4994
sg74
(lp5001
S'200'
p5002
asbasbasbag67
(g83
g69
NtRp5003
(dp5004
g72
(dp5005
sg81
g4329
sg74
(lp5006
g67
(g88
g69
NtRp5007
(dp5008
g72
(dp5009
g92
g93
ssg81
g5003
sg74
(lp5010
g3189
asbag67
(g88
g69
NtRp5011
(dp5012
g72
(dp5013
g99
g100
ssg81
g5003
sg74
(lp5014
S':'
asbag67
(g88
g69
NtRp5015
(dp5016
g72
(dp5017
sg81
g5003
sg74
(lp5018
g67
(g68
g69
NtRp5019
(dp5020
g72
(dp5021
g80
I5
ssg81
g5015
sg74
(lp5022
g3202
asbasbasbag67
(g83
g69
NtRp5023
(dp5024
g72
(dp5025
sg81
g4329
sg74
(lp5026
g67
(g88
g69
NtRp5027
(dp5028
g72
(dp5029
g92
g93
ssg81
g5023
sg74
(lp5030
S'view'
p5031
asbag67
(g88
g69
NtRp5032
(dp5033
g72
(dp5034
g99
g100
ssg81
g5023
sg74
(lp5035
S':'
asbag67
(g88
g69
NtRp5036
(dp5037
g72
(dp5038
sg81
g5023
sg74
(lp5039
g67
(g68
g69
NtRp5040
(dp5041
g72
(dp5042
g80
I5
ssg81
g5036
sg74
(lp5043
S'default/index.html'
p5044
asbasbasbasbasbsS'locals'
p5045
(dp5046
g4
S"'/Users/emir/Documents/beardcode/web2py/applications/fayol/controllers/default.py'"
p5047
sg6
S"'# -*- coding: utf-8 -*-\\n\\n\\ndef index():\\n\\tfrom dat... dict()\\n\\n\\nresponse._vars=response._caller(index)\\n'"
p5048
sssS'traceback'
p5049
S'Traceback (most recent call last):\n  File "/Users/emir/Documents/beardcode/web2py/gluon/restricted.py", line 204, in restricted\n    ccode = compile2(code,layer)\n  File "/Users/emir/Documents/beardcode/web2py/gluon/restricted.py", line 189, in compile2\n    return compile(code.rstrip().replace(\'\\r\\n\',\'\\n\')+\'\\n\', layer, \'exec\')\n  File "/Users/emir/Documents/beardcode/web2py/applications/fayol/controllers/default.py", line 7\n    year = now.year\n   ^\nIndentationError: unexpected indent\n'
p5050
s.