(dp1
S'output'
p2
S"<type 'exceptions.IndentationError'> unindent does not match any outer indentation level (default.py, line 7)"
p3
sS'layer'
p4
S'/Users/emir/Documents/beardcode/web2py/applications/fayol/controllers/default.py'
p5
sS'code'
p6
S'# -*- coding: utf-8 -*-\nfrom datetime import datetime\nnow = datetime.now()\n\ndef index():\n\tyear = now.year\n    return dict(y=year)\n\ndef error():\n    return dict()\n\n\nresponse._vars=response._caller(index)\n'
p7
sS'snapshot'
p8
(dp9
S'exception'
p10
(dp11
S'__getslice__'
p12
S"<method-wrapper '__getslice__' of exceptions.IndentationError object>"
p13
sS'text'
p14
S"'    return dict(y=year)\\n'"
p15
sS'__str__'
p16
S"<method-wrapper '__str__' of exceptions.IndentationError object>"
p17
sS'__reduce__'
p18
S'<built-in method __reduce__ of exceptions.IndentationError object>'
p19
sS'__dict__'
p20
S'{}'
p21
sS'__sizeof__'
p22
S'<built-in method __sizeof__ of exceptions.IndentationError object>'
p23
sS'__init__'
p24
S"<method-wrapper '__init__' of exceptions.IndentationError object>"
p25
sS'__setattr__'
p26
S"<method-wrapper '__setattr__' of exceptions.IndentationError object>"
p27
sS'__reduce_ex__'
p28
S'<built-in method __reduce_ex__ of exceptions.IndentationError object>'
p29
sS'__new__'
p30
S'<built-in method __new__ of type object>'
p31
sS'__format__'
p32
S'<built-in method __format__ of exceptions.IndentationError object>'
p33
sS'__class__'
p34
S"<type 'exceptions.IndentationError'>"
p35
sS'filename'
p36
S"'/Users/emir/Documents/beardcode/web2py/applications/fayol/controllers/default.py'"
p37
sS'lineno'
p38
S'7'
sS'msg'
p39
S"'unindent does not match any outer indentation level'"
p40
sS'__doc__'
p41
S"'Improper indentation.'"
p42
sS'__getitem__'
p43
S"<method-wrapper '__getitem__' of exceptions.IndentationError object>"
p44
sS'__setstate__'
p45
S'<built-in method __setstate__ of exceptions.IndentationError object>'
p46
sS'__getattribute__'
p47
S"<method-wrapper '__getattribute__' of exceptions.IndentationError object>"
p48
sS'print_file_and_line'
p49
S'None'
p50
sS'args'
p51
S"('unindent does not match any outer indentation level', ('/Users/emir/Documents/beardcode/web2py/applications/fayol/controllers/default.py', 7, 24, '    return dict(y=year)\\n'))"
p52
sS'__subclasshook__'
p53
S'<built-in method __subclasshook__ of type object>'
p54
sS'offset'
p55
S'24'
p56
sS'__unicode__'
p57
S'<built-in method __unicode__ of exceptions.IndentationError object>'
p58
sS'__delattr__'
p59
S"<method-wrapper '__delattr__' of exceptions.IndentationError object>"
p60
sS'__repr__'
p61
S"<method-wrapper '__repr__' of exceptions.IndentationError object>"
p62
sS'__hash__'
p63
S"<method-wrapper '__hash__' of exceptions.IndentationError object>"
p64
ssS'evalue'
p65
S'unindent does not match any outer indentation level (default.py, line 7)'
p66
sS'request'
p67
ccopy_reg
_reconstructor
p68
(cgluon.html
BEAUTIFY
p69
c__builtin__
object
p70
NtRp71
(dp72
S'attributes'
p73
(dp74
sS'components'
p75
(lp76
g68
(cgluon.html
TABLE
p77
g70
NtRp78
(dp79
g73
(dp80
S'level'
p81
I5
ssS'parent'
p82
Nsg75
(lp83
g68
(cgluon.html
TR
p84
g70
NtRp85
(dp86
g73
(dp87
sg82
g78
sg75
(lp88
g68
(cgluon.html
TD
p89
g70
NtRp90
(dp91
g73
(dp92
S'_style'
p93
S'font-weight:bold;vertical-align:top'
p94
ssg82
g85
sg75
(lp95
S'ajax'
p96
asbag68
(g89
g70
NtRp97
(dp98
g73
(dp99
S'_valign'
p100
S'top'
p101
ssg82
g85
sg75
(lp102
S':'
asbag68
(g89
g70
NtRp103
(dp104
g73
(dp105
sg82
g85
sg75
(lp106
g68
(g69
g70
NtRp107
(dp108
g73
(dp109
g81
I5
ssg82
g103
sg75
(lp110
S'False'
p111
asbasbasbag68
(g84
g70
NtRp112
(dp113
g73
(dp114
sg82
g78
sg75
(lp115
g68
(g89
g70
NtRp116
(dp117
g73
(dp118
g93
g94
ssg82
g112
sg75
(lp119
S'application'
p120
asbag68
(g89
g70
NtRp121
(dp122
g73
(dp123
g100
g101
ssg82
g112
sg75
(lp124
S':'
asbag68
(g89
g70
NtRp125
(dp126
g73
(dp127
sg82
g112
sg75
(lp128
g68
(g69
g70
NtRp129
(dp130
g73
(dp131
g81
I5
ssg82
g125
sg75
(lp132
S'fayol'
p133
asbasbasbag68
(g84
g70
NtRp134
(dp135
g73
(dp136
sg82
g78
sg75
(lp137
g68
(g89
g70
NtRp138
(dp139
g73
(dp140
g93
g94
ssg82
g134
sg75
(lp141
g51
asbag68
(g89
g70
NtRp142
(dp143
g73
(dp144
g100
g101
ssg82
g134
sg75
(lp145
S':'
asbag68
(g89
g70
NtRp146
(dp147
g73
(dp148
sg82
g134
sg75
(lp149
g68
(g69
g70
NtRp150
(dp151
g73
(dp152
g81
I5
ssg82
g146
sg75
(lp153
g68
(g77
g70
NtRp154
(dp155
g73
(dp156
g81
I4
ssg82
Nsg75
(lp157
sbasbasbasbag68
(g84
g70
NtRp158
(dp159
g73
(dp160
sg82
g78
sg75
(lp161
g68
(g89
g70
NtRp162
(dp163
g73
(dp164
g93
g94
ssg82
g158
sg75
(lp165
S'body'
p166
asbag68
(g89
g70
NtRp167
(dp168
g73
(dp169
g100
g101
ssg82
g158
sg75
(lp170
S':'
asbag68
(g89
g70
NtRp171
(dp172
g73
(dp173
sg82
g158
sg75
(lp174
g68
(g69
g70
NtRp175
(dp176
g73
(dp177
g81
I5
ssg82
g171
sg75
(lp178
S'<cStringIO.StringO object at 0x1049a60a0>'
p179
asbasbasbag68
(g84
g70
NtRp180
(dp181
g73
(dp182
sg82
g78
sg75
(lp183
g68
(g89
g70
NtRp184
(dp185
g73
(dp186
g93
g94
ssg82
g180
sg75
(lp187
S'client'
p188
asbag68
(g89
g70
NtRp189
(dp190
g73
(dp191
g100
g101
ssg82
g180
sg75
(lp192
S':'
asbag68
(g89
g70
NtRp193
(dp194
g73
(dp195
sg82
g180
sg75
(lp196
g68
(g69
g70
NtRp197
(dp198
g73
(dp199
g81
I5
ssg82
g193
sg75
(lp200
S'127.0.0.1'
p201
asbasbasbag68
(g84
g70
NtRp202
(dp203
g73
(dp204
sg82
g78
sg75
(lp205
g68
(g89
g70
NtRp206
(dp207
g73
(dp208
g93
g94
ssg82
g202
sg75
(lp209
S'controller'
p210
asbag68
(g89
g70
NtRp211
(dp212
g73
(dp213
g100
g101
ssg82
g202
sg75
(lp214
S':'
asbag68
(g89
g70
NtRp215
(dp216
g73
(dp217
sg82
g202
sg75
(lp218
g68
(g69
g70
NtRp219
(dp220
g73
(dp221
g81
I5
ssg82
g215
sg75
(lp222
S'default'
p223
asbasbasbag68
(g84
g70
NtRp224
(dp225
g73
(dp226
sg82
g78
sg75
(lp227
g68
(g89
g70
NtRp228
(dp229
g73
(dp230
g93
g94
ssg82
g224
sg75
(lp231
S'cookies'
p232
asbag68
(g89
g70
NtRp233
(dp234
g73
(dp235
g100
g101
ssg82
g224
sg75
(lp236
S':'
asbag68
(g89
g70
NtRp237
(dp238
g73
(dp239
sg82
g224
sg75
(lp240
g68
(g69
g70
NtRp241
(dp242
g73
(dp243
g81
I5
ssg82
g237
sg75
(lp244
g68
(g77
g70
NtRp245
(dp246
g73
(dp247
g81
I4
ssg82
Nsg75
(lp248
g68
(g84
g70
NtRp249
(dp250
g73
(dp251
sg82
g245
sg75
(lp252
g68
(g89
g70
NtRp253
(dp254
g73
(dp255
g93
g94
ssg82
g249
sg75
(lp256
S'session_id_admin'
p257
asbag68
(g89
g70
NtRp258
(dp259
g73
(dp260
g100
g101
ssg82
g249
sg75
(lp261
S':'
asbag68
(g89
g70
NtRp262
(dp263
g73
(dp264
sg82
g249
sg75
(lp265
g68
(g69
g70
NtRp266
(dp267
g73
(dp268
g81
I4
ssg82
g262
sg75
(lp269
g68
(g77
g70
NtRp270
(dp271
g73
(dp272
g81
I3
ssg82
Nsg75
(lp273
g68
(g84
g70
NtRp274
(dp275
g73
(dp276
sg82
g270
sg75
(lp277
g68
(g89
g70
NtRp278
(dp279
g73
(dp280
g93
g94
ssg82
g274
sg75
(lp281
S'comment'
p282
asbag68
(g89
g70
NtRp283
(dp284
g73
(dp285
g100
g101
ssg82
g274
sg75
(lp286
S':'
asbag68
(g89
g70
NtRp287
(dp288
g73
(dp289
sg82
g274
sg75
(lp290
g68
(g69
g70
NtRp291
(dp292
g73
(dp293
g81
I3
ssg82
g287
sg75
(lp294
S''
asbasbasbag68
(g84
g70
NtRp295
(dp296
g73
(dp297
sg82
g270
sg75
(lp298
g68
(g89
g70
NtRp299
(dp300
g73
(dp301
g93
g94
ssg82
g295
sg75
(lp302
S'domain'
p303
asbag68
(g89
g70
NtRp304
(dp305
g73
(dp306
g100
g101
ssg82
g295
sg75
(lp307
S':'
asbag68
(g89
g70
NtRp308
(dp309
g73
(dp310
sg82
g295
sg75
(lp311
g68
(g69
g70
NtRp312
(dp313
g73
(dp314
g81
I3
ssg82
g308
sg75
(lp315
S''
asbasbasbag68
(g84
g70
NtRp316
(dp317
g73
(dp318
sg82
g270
sg75
(lp319
g68
(g89
g70
NtRp320
(dp321
g73
(dp322
g93
g94
ssg82
g316
sg75
(lp323
S'expires'
p324
asbag68
(g89
g70
NtRp325
(dp326
g73
(dp327
g100
g101
ssg82
g316
sg75
(lp328
S':'
asbag68
(g89
g70
NtRp329
(dp330
g73
(dp331
sg82
g316
sg75
(lp332
g68
(g69
g70
NtRp333
(dp334
g73
(dp335
g81
I3
ssg82
g329
sg75
(lp336
S''
asbasbasbag68
(g84
g70
NtRp337
(dp338
g73
(dp339
sg82
g270
sg75
(lp340
g68
(g89
g70
NtRp341
(dp342
g73
(dp343
g93
g94
ssg82
g337
sg75
(lp344
S'httponly'
p345
asbag68
(g89
g70
NtRp346
(dp347
g73
(dp348
g100
g101
ssg82
g337
sg75
(lp349
S':'
asbag68
(g89
g70
NtRp350
(dp351
g73
(dp352
sg82
g337
sg75
(lp353
g68
(g69
g70
NtRp354
(dp355
g73
(dp356
g81
I3
ssg82
g350
sg75
(lp357
S''
asbasbasbag68
(g84
g70
NtRp358
(dp359
g73
(dp360
sg82
g270
sg75
(lp361
g68
(g89
g70
NtRp362
(dp363
g73
(dp364
g93
g94
ssg82
g358
sg75
(lp365
S'max-age'
p366
asbag68
(g89
g70
NtRp367
(dp368
g73
(dp369
g100
g101
ssg82
g358
sg75
(lp370
S':'
asbag68
(g89
g70
NtRp371
(dp372
g73
(dp373
sg82
g358
sg75
(lp374
g68
(g69
g70
NtRp375
(dp376
g73
(dp377
g81
I3
ssg82
g371
sg75
(lp378
S''
asbasbasbag68
(g84
g70
NtRp379
(dp380
g73
(dp381
sg82
g270
sg75
(lp382
g68
(g89
g70
NtRp383
(dp384
g73
(dp385
g93
g94
ssg82
g379
sg75
(lp386
S'path'
p387
asbag68
(g89
g70
NtRp388
(dp389
g73
(dp390
g100
g101
ssg82
g379
sg75
(lp391
S':'
asbag68
(g89
g70
NtRp392
(dp393
g73
(dp394
sg82
g379
sg75
(lp395
g68
(g69
g70
NtRp396
(dp397
g73
(dp398
g81
I3
ssg82
g392
sg75
(lp399
S''
asbasbasbag68
(g84
g70
NtRp400
(dp401
g73
(dp402
sg82
g270
sg75
(lp403
g68
(g89
g70
NtRp404
(dp405
g73
(dp406
g93
g94
ssg82
g400
sg75
(lp407
S'secure'
p408
asbag68
(g89
g70
NtRp409
(dp410
g73
(dp411
g100
g101
ssg82
g400
sg75
(lp412
S':'
asbag68
(g89
g70
NtRp413
(dp414
g73
(dp415
sg82
g400
sg75
(lp416
g68
(g69
g70
NtRp417
(dp418
g73
(dp419
g81
I3
ssg82
g413
sg75
(lp420
S''
asbasbasbag68
(g84
g70
NtRp421
(dp422
g73
(dp423
sg82
g270
sg75
(lp424
g68
(g89
g70
NtRp425
(dp426
g73
(dp427
g93
g94
ssg82
g421
sg75
(lp428
S'version'
p429
asbag68
(g89
g70
NtRp430
(dp431
g73
(dp432
g100
g101
ssg82
g421
sg75
(lp433
S':'
asbag68
(g89
g70
NtRp434
(dp435
g73
(dp436
sg82
g421
sg75
(lp437
g68
(g69
g70
NtRp438
(dp439
g73
(dp440
g81
I3
ssg82
g434
sg75
(lp441
S''
asbasbasbasbasbasbasbag68
(g84
g70
NtRp442
(dp443
g73
(dp444
sg82
g245
sg75
(lp445
g68
(g89
g70
NtRp446
(dp447
g73
(dp448
g93
g94
ssg82
g442
sg75
(lp449
S'session_id_contador'
p450
asbag68
(g89
g70
NtRp451
(dp452
g73
(dp453
g100
g101
ssg82
g442
sg75
(lp454
S':'
asbag68
(g89
g70
NtRp455
(dp456
g73
(dp457
sg82
g442
sg75
(lp458
g68
(g69
g70
NtRp459
(dp460
g73
(dp461
g81
I4
ssg82
g455
sg75
(lp462
g68
(g77
g70
NtRp463
(dp464
g73
(dp465
g81
I3
ssg82
Nsg75
(lp466
g68
(g84
g70
NtRp467
(dp468
g73
(dp469
sg82
g463
sg75
(lp470
g68
(g89
g70
NtRp471
(dp472
g73
(dp473
g93
g94
ssg82
g467
sg75
(lp474
g282
asbag68
(g89
g70
NtRp475
(dp476
g73
(dp477
g100
g101
ssg82
g467
sg75
(lp478
S':'
asbag68
(g89
g70
NtRp479
(dp480
g73
(dp481
sg82
g467
sg75
(lp482
g68
(g69
g70
NtRp483
(dp484
g73
(dp485
g81
I3
ssg82
g479
sg75
(lp486
S''
asbasbasbag68
(g84
g70
NtRp487
(dp488
g73
(dp489
sg82
g463
sg75
(lp490
g68
(g89
g70
NtRp491
(dp492
g73
(dp493
g93
g94
ssg82
g487
sg75
(lp494
g303
asbag68
(g89
g70
NtRp495
(dp496
g73
(dp497
g100
g101
ssg82
g487
sg75
(lp498
S':'
asbag68
(g89
g70
NtRp499
(dp500
g73
(dp501
sg82
g487
sg75
(lp502
g68
(g69
g70
NtRp503
(dp504
g73
(dp505
g81
I3
ssg82
g499
sg75
(lp506
S''
asbasbasbag68
(g84
g70
NtRp507
(dp508
g73
(dp509
sg82
g463
sg75
(lp510
g68
(g89
g70
NtRp511
(dp512
g73
(dp513
g93
g94
ssg82
g507
sg75
(lp514
g324
asbag68
(g89
g70
NtRp515
(dp516
g73
(dp517
g100
g101
ssg82
g507
sg75
(lp518
S':'
asbag68
(g89
g70
NtRp519
(dp520
g73
(dp521
sg82
g507
sg75
(lp522
g68
(g69
g70
NtRp523
(dp524
g73
(dp525
g81
I3
ssg82
g519
sg75
(lp526
S''
asbasbasbag68
(g84
g70
NtRp527
(dp528
g73
(dp529
sg82
g463
sg75
(lp530
g68
(g89
g70
NtRp531
(dp532
g73
(dp533
g93
g94
ssg82
g527
sg75
(lp534
g345
asbag68
(g89
g70
NtRp535
(dp536
g73
(dp537
g100
g101
ssg82
g527
sg75
(lp538
S':'
asbag68
(g89
g70
NtRp539
(dp540
g73
(dp541
sg82
g527
sg75
(lp542
g68
(g69
g70
NtRp543
(dp544
g73
(dp545
g81
I3
ssg82
g539
sg75
(lp546
S''
asbasbasbag68
(g84
g70
NtRp547
(dp548
g73
(dp549
sg82
g463
sg75
(lp550
g68
(g89
g70
NtRp551
(dp552
g73
(dp553
g93
g94
ssg82
g547
sg75
(lp554
g366
asbag68
(g89
g70
NtRp555
(dp556
g73
(dp557
g100
g101
ssg82
g547
sg75
(lp558
S':'
asbag68
(g89
g70
NtRp559
(dp560
g73
(dp561
sg82
g547
sg75
(lp562
g68
(g69
g70
NtRp563
(dp564
g73
(dp565
g81
I3
ssg82
g559
sg75
(lp566
S''
asbasbasbag68
(g84
g70
NtRp567
(dp568
g73
(dp569
sg82
g463
sg75
(lp570
g68
(g89
g70
NtRp571
(dp572
g73
(dp573
g93
g94
ssg82
g567
sg75
(lp574
g387
asbag68
(g89
g70
NtRp575
(dp576
g73
(dp577
g100
g101
ssg82
g567
sg75
(lp578
S':'
asbag68
(g89
g70
NtRp579
(dp580
g73
(dp581
sg82
g567
sg75
(lp582
g68
(g69
g70
NtRp583
(dp584
g73
(dp585
g81
I3
ssg82
g579
sg75
(lp586
S''
asbasbasbag68
(g84
g70
NtRp587
(dp588
g73
(dp589
sg82
g463
sg75
(lp590
g68
(g89
g70
NtRp591
(dp592
g73
(dp593
g93
g94
ssg82
g587
sg75
(lp594
g408
asbag68
(g89
g70
NtRp595
(dp596
g73
(dp597
g100
g101
ssg82
g587
sg75
(lp598
S':'
asbag68
(g89
g70
NtRp599
(dp600
g73
(dp601
sg82
g587
sg75
(lp602
g68
(g69
g70
NtRp603
(dp604
g73
(dp605
g81
I3
ssg82
g599
sg75
(lp606
S''
asbasbasbag68
(g84
g70
NtRp607
(dp608
g73
(dp609
sg82
g463
sg75
(lp610
g68
(g89
g70
NtRp611
(dp612
g73
(dp613
g93
g94
ssg82
g607
sg75
(lp614
g429
asbag68
(g89
g70
NtRp615
(dp616
g73
(dp617
g100
g101
ssg82
g607
sg75
(lp618
S':'
asbag68
(g89
g70
NtRp619
(dp620
g73
(dp621
sg82
g607
sg75
(lp622
g68
(g69
g70
NtRp623
(dp624
g73
(dp625
g81
I3
ssg82
g619
sg75
(lp626
S''
asbasbasbasbasbasbasbag68
(g84
g70
NtRp627
(dp628
g73
(dp629
sg82
g245
sg75
(lp630
g68
(g89
g70
NtRp631
(dp632
g73
(dp633
g93
g94
ssg82
g627
sg75
(lp634
S'session_id_fayol'
p635
asbag68
(g89
g70
NtRp636
(dp637
g73
(dp638
g100
g101
ssg82
g627
sg75
(lp639
S':'
asbag68
(g89
g70
NtRp640
(dp641
g73
(dp642
sg82
g627
sg75
(lp643
g68
(g69
g70
NtRp644
(dp645
g73
(dp646
g81
I4
ssg82
g640
sg75
(lp647
g68
(g77
g70
NtRp648
(dp649
g73
(dp650
g81
I3
ssg82
Nsg75
(lp651
g68
(g84
g70
NtRp652
(dp653
g73
(dp654
sg82
g648
sg75
(lp655
g68
(g89
g70
NtRp656
(dp657
g73
(dp658
g93
g94
ssg82
g652
sg75
(lp659
g282
asbag68
(g89
g70
NtRp660
(dp661
g73
(dp662
g100
g101
ssg82
g652
sg75
(lp663
S':'
asbag68
(g89
g70
NtRp664
(dp665
g73
(dp666
sg82
g652
sg75
(lp667
g68
(g69
g70
NtRp668
(dp669
g73
(dp670
g81
I3
ssg82
g664
sg75
(lp671
S''
asbasbasbag68
(g84
g70
NtRp672
(dp673
g73
(dp674
sg82
g648
sg75
(lp675
g68
(g89
g70
NtRp676
(dp677
g73
(dp678
g93
g94
ssg82
g672
sg75
(lp679
g303
asbag68
(g89
g70
NtRp680
(dp681
g73
(dp682
g100
g101
ssg82
g672
sg75
(lp683
S':'
asbag68
(g89
g70
NtRp684
(dp685
g73
(dp686
sg82
g672
sg75
(lp687
g68
(g69
g70
NtRp688
(dp689
g73
(dp690
g81
I3
ssg82
g684
sg75
(lp691
S''
asbasbasbag68
(g84
g70
NtRp692
(dp693
g73
(dp694
sg82
g648
sg75
(lp695
g68
(g89
g70
NtRp696
(dp697
g73
(dp698
g93
g94
ssg82
g692
sg75
(lp699
g324
asbag68
(g89
g70
NtRp700
(dp701
g73
(dp702
g100
g101
ssg82
g692
sg75
(lp703
S':'
asbag68
(g89
g70
NtRp704
(dp705
g73
(dp706
sg82
g692
sg75
(lp707
g68
(g69
g70
NtRp708
(dp709
g73
(dp710
g81
I3
ssg82
g704
sg75
(lp711
S''
asbasbasbag68
(g84
g70
NtRp712
(dp713
g73
(dp714
sg82
g648
sg75
(lp715
g68
(g89
g70
NtRp716
(dp717
g73
(dp718
g93
g94
ssg82
g712
sg75
(lp719
g345
asbag68
(g89
g70
NtRp720
(dp721
g73
(dp722
g100
g101
ssg82
g712
sg75
(lp723
S':'
asbag68
(g89
g70
NtRp724
(dp725
g73
(dp726
sg82
g712
sg75
(lp727
g68
(g69
g70
NtRp728
(dp729
g73
(dp730
g81
I3
ssg82
g724
sg75
(lp731
S''
asbasbasbag68
(g84
g70
NtRp732
(dp733
g73
(dp734
sg82
g648
sg75
(lp735
g68
(g89
g70
NtRp736
(dp737
g73
(dp738
g93
g94
ssg82
g732
sg75
(lp739
g366
asbag68
(g89
g70
NtRp740
(dp741
g73
(dp742
g100
g101
ssg82
g732
sg75
(lp743
S':'
asbag68
(g89
g70
NtRp744
(dp745
g73
(dp746
sg82
g732
sg75
(lp747
g68
(g69
g70
NtRp748
(dp749
g73
(dp750
g81
I3
ssg82
g744
sg75
(lp751
S''
asbasbasbag68
(g84
g70
NtRp752
(dp753
g73
(dp754
sg82
g648
sg75
(lp755
g68
(g89
g70
NtRp756
(dp757
g73
(dp758
g93
g94
ssg82
g752
sg75
(lp759
g387
asbag68
(g89
g70
NtRp760
(dp761
g73
(dp762
g100
g101
ssg82
g752
sg75
(lp763
S':'
asbag68
(g89
g70
NtRp764
(dp765
g73
(dp766
sg82
g752
sg75
(lp767
g68
(g69
g70
NtRp768
(dp769
g73
(dp770
g81
I3
ssg82
g764
sg75
(lp771
S''
asbasbasbag68
(g84
g70
NtRp772
(dp773
g73
(dp774
sg82
g648
sg75
(lp775
g68
(g89
g70
NtRp776
(dp777
g73
(dp778
g93
g94
ssg82
g772
sg75
(lp779
g408
asbag68
(g89
g70
NtRp780
(dp781
g73
(dp782
g100
g101
ssg82
g772
sg75
(lp783
S':'
asbag68
(g89
g70
NtRp784
(dp785
g73
(dp786
sg82
g772
sg75
(lp787
g68
(g69
g70
NtRp788
(dp789
g73
(dp790
g81
I3
ssg82
g784
sg75
(lp791
S''
asbasbasbag68
(g84
g70
NtRp792
(dp793
g73
(dp794
sg82
g648
sg75
(lp795
g68
(g89
g70
NtRp796
(dp797
g73
(dp798
g93
g94
ssg82
g792
sg75
(lp799
g429
asbag68
(g89
g70
NtRp800
(dp801
g73
(dp802
g100
g101
ssg82
g792
sg75
(lp803
S':'
asbag68
(g89
g70
NtRp804
(dp805
g73
(dp806
sg82
g792
sg75
(lp807
g68
(g69
g70
NtRp808
(dp809
g73
(dp810
g81
I3
ssg82
g804
sg75
(lp811
S''
asbasbasbasbasbasbasbag68
(g84
g70
NtRp812
(dp813
g73
(dp814
sg82
g245
sg75
(lp815
g68
(g89
g70
NtRp816
(dp817
g73
(dp818
g93
g94
ssg82
g812
sg75
(lp819
S'session_id_nombres'
p820
asbag68
(g89
g70
NtRp821
(dp822
g73
(dp823
g100
g101
ssg82
g812
sg75
(lp824
S':'
asbag68
(g89
g70
NtRp825
(dp826
g73
(dp827
sg82
g812
sg75
(lp828
g68
(g69
g70
NtRp829
(dp830
g73
(dp831
g81
I4
ssg82
g825
sg75
(lp832
g68
(g77
g70
NtRp833
(dp834
g73
(dp835
g81
I3
ssg82
Nsg75
(lp836
g68
(g84
g70
NtRp837
(dp838
g73
(dp839
sg82
g833
sg75
(lp840
g68
(g89
g70
NtRp841
(dp842
g73
(dp843
g93
g94
ssg82
g837
sg75
(lp844
g282
asbag68
(g89
g70
NtRp845
(dp846
g73
(dp847
g100
g101
ssg82
g837
sg75
(lp848
S':'
asbag68
(g89
g70
NtRp849
(dp850
g73
(dp851
sg82
g837
sg75
(lp852
g68
(g69
g70
NtRp853
(dp854
g73
(dp855
g81
I3
ssg82
g849
sg75
(lp856
S''
asbasbasbag68
(g84
g70
NtRp857
(dp858
g73
(dp859
sg82
g833
sg75
(lp860
g68
(g89
g70
NtRp861
(dp862
g73
(dp863
g93
g94
ssg82
g857
sg75
(lp864
g303
asbag68
(g89
g70
NtRp865
(dp866
g73
(dp867
g100
g101
ssg82
g857
sg75
(lp868
S':'
asbag68
(g89
g70
NtRp869
(dp870
g73
(dp871
sg82
g857
sg75
(lp872
g68
(g69
g70
NtRp873
(dp874
g73
(dp875
g81
I3
ssg82
g869
sg75
(lp876
S''
asbasbasbag68
(g84
g70
NtRp877
(dp878
g73
(dp879
sg82
g833
sg75
(lp880
g68
(g89
g70
NtRp881
(dp882
g73
(dp883
g93
g94
ssg82
g877
sg75
(lp884
g324
asbag68
(g89
g70
NtRp885
(dp886
g73
(dp887
g100
g101
ssg82
g877
sg75
(lp888
S':'
asbag68
(g89
g70
NtRp889
(dp890
g73
(dp891
sg82
g877
sg75
(lp892
g68
(g69
g70
NtRp893
(dp894
g73
(dp895
g81
I3
ssg82
g889
sg75
(lp896
S''
asbasbasbag68
(g84
g70
NtRp897
(dp898
g73
(dp899
sg82
g833
sg75
(lp900
g68
(g89
g70
NtRp901
(dp902
g73
(dp903
g93
g94
ssg82
g897
sg75
(lp904
g345
asbag68
(g89
g70
NtRp905
(dp906
g73
(dp907
g100
g101
ssg82
g897
sg75
(lp908
S':'
asbag68
(g89
g70
NtRp909
(dp910
g73
(dp911
sg82
g897
sg75
(lp912
g68
(g69
g70
NtRp913
(dp914
g73
(dp915
g81
I3
ssg82
g909
sg75
(lp916
S''
asbasbasbag68
(g84
g70
NtRp917
(dp918
g73
(dp919
sg82
g833
sg75
(lp920
g68
(g89
g70
NtRp921
(dp922
g73
(dp923
g93
g94
ssg82
g917
sg75
(lp924
g366
asbag68
(g89
g70
NtRp925
(dp926
g73
(dp927
g100
g101
ssg82
g917
sg75
(lp928
S':'
asbag68
(g89
g70
NtRp929
(dp930
g73
(dp931
sg82
g917
sg75
(lp932
g68
(g69
g70
NtRp933
(dp934
g73
(dp935
g81
I3
ssg82
g929
sg75
(lp936
S''
asbasbasbag68
(g84
g70
NtRp937
(dp938
g73
(dp939
sg82
g833
sg75
(lp940
g68
(g89
g70
NtRp941
(dp942
g73
(dp943
g93
g94
ssg82
g937
sg75
(lp944
g387
asbag68
(g89
g70
NtRp945
(dp946
g73
(dp947
g100
g101
ssg82
g937
sg75
(lp948
S':'
asbag68
(g89
g70
NtRp949
(dp950
g73
(dp951
sg82
g937
sg75
(lp952
g68
(g69
g70
NtRp953
(dp954
g73
(dp955
g81
I3
ssg82
g949
sg75
(lp956
S''
asbasbasbag68
(g84
g70
NtRp957
(dp958
g73
(dp959
sg82
g833
sg75
(lp960
g68
(g89
g70
NtRp961
(dp962
g73
(dp963
g93
g94
ssg82
g957
sg75
(lp964
g408
asbag68
(g89
g70
NtRp965
(dp966
g73
(dp967
g100
g101
ssg82
g957
sg75
(lp968
S':'
asbag68
(g89
g70
NtRp969
(dp970
g73
(dp971
sg82
g957
sg75
(lp972
g68
(g69
g70
NtRp973
(dp974
g73
(dp975
g81
I3
ssg82
g969
sg75
(lp976
S''
asbasbasbag68
(g84
g70
NtRp977
(dp978
g73
(dp979
sg82
g833
sg75
(lp980
g68
(g89
g70
NtRp981
(dp982
g73
(dp983
g93
g94
ssg82
g977
sg75
(lp984
g429
asbag68
(g89
g70
NtRp985
(dp986
g73
(dp987
g100
g101
ssg82
g977
sg75
(lp988
S':'
asbag68
(g89
g70
NtRp989
(dp990
g73
(dp991
sg82
g977
sg75
(lp992
g68
(g69
g70
NtRp993
(dp994
g73
(dp995
g81
I3
ssg82
g989
sg75
(lp996
S''
asbasbasbasbasbasbasbag68
(g84
g70
NtRp997
(dp998
g73
(dp999
sg82
g245
sg75
(lp1000
g68
(g89
g70
NtRp1001
(dp1002
g73
(dp1003
g93
g94
ssg82
g997
sg75
(lp1004
S'session_id_randomwords'
p1005
asbag68
(g89
g70
NtRp1006
(dp1007
g73
(dp1008
g100
g101
ssg82
g997
sg75
(lp1009
S':'
asbag68
(g89
g70
NtRp1010
(dp1011
g73
(dp1012
sg82
g997
sg75
(lp1013
g68
(g69
g70
NtRp1014
(dp1015
g73
(dp1016
g81
I4
ssg82
g1010
sg75
(lp1017
g68
(g77
g70
NtRp1018
(dp1019
g73
(dp1020
g81
I3
ssg82
Nsg75
(lp1021
g68
(g84
g70
NtRp1022
(dp1023
g73
(dp1024
sg82
g1018
sg75
(lp1025
g68
(g89
g70
NtRp1026
(dp1027
g73
(dp1028
g93
g94
ssg82
g1022
sg75
(lp1029
g282
asbag68
(g89
g70
NtRp1030
(dp1031
g73
(dp1032
g100
g101
ssg82
g1022
sg75
(lp1033
S':'
asbag68
(g89
g70
NtRp1034
(dp1035
g73
(dp1036
sg82
g1022
sg75
(lp1037
g68
(g69
g70
NtRp1038
(dp1039
g73
(dp1040
g81
I3
ssg82
g1034
sg75
(lp1041
S''
asbasbasbag68
(g84
g70
NtRp1042
(dp1043
g73
(dp1044
sg82
g1018
sg75
(lp1045
g68
(g89
g70
NtRp1046
(dp1047
g73
(dp1048
g93
g94
ssg82
g1042
sg75
(lp1049
g303
asbag68
(g89
g70
NtRp1050
(dp1051
g73
(dp1052
g100
g101
ssg82
g1042
sg75
(lp1053
S':'
asbag68
(g89
g70
NtRp1054
(dp1055
g73
(dp1056
sg82
g1042
sg75
(lp1057
g68
(g69
g70
NtRp1058
(dp1059
g73
(dp1060
g81
I3
ssg82
g1054
sg75
(lp1061
S''
asbasbasbag68
(g84
g70
NtRp1062
(dp1063
g73
(dp1064
sg82
g1018
sg75
(lp1065
g68
(g89
g70
NtRp1066
(dp1067
g73
(dp1068
g93
g94
ssg82
g1062
sg75
(lp1069
g324
asbag68
(g89
g70
NtRp1070
(dp1071
g73
(dp1072
g100
g101
ssg82
g1062
sg75
(lp1073
S':'
asbag68
(g89
g70
NtRp1074
(dp1075
g73
(dp1076
sg82
g1062
sg75
(lp1077
g68
(g69
g70
NtRp1078
(dp1079
g73
(dp1080
g81
I3
ssg82
g1074
sg75
(lp1081
S''
asbasbasbag68
(g84
g70
NtRp1082
(dp1083
g73
(dp1084
sg82
g1018
sg75
(lp1085
g68
(g89
g70
NtRp1086
(dp1087
g73
(dp1088
g93
g94
ssg82
g1082
sg75
(lp1089
g345
asbag68
(g89
g70
NtRp1090
(dp1091
g73
(dp1092
g100
g101
ssg82
g1082
sg75
(lp1093
S':'
asbag68
(g89
g70
NtRp1094
(dp1095
g73
(dp1096
sg82
g1082
sg75
(lp1097
g68
(g69
g70
NtRp1098
(dp1099
g73
(dp1100
g81
I3
ssg82
g1094
sg75
(lp1101
S''
asbasbasbag68
(g84
g70
NtRp1102
(dp1103
g73
(dp1104
sg82
g1018
sg75
(lp1105
g68
(g89
g70
NtRp1106
(dp1107
g73
(dp1108
g93
g94
ssg82
g1102
sg75
(lp1109
g366
asbag68
(g89
g70
NtRp1110
(dp1111
g73
(dp1112
g100
g101
ssg82
g1102
sg75
(lp1113
S':'
asbag68
(g89
g70
NtRp1114
(dp1115
g73
(dp1116
sg82
g1102
sg75
(lp1117
g68
(g69
g70
NtRp1118
(dp1119
g73
(dp1120
g81
I3
ssg82
g1114
sg75
(lp1121
S''
asbasbasbag68
(g84
g70
NtRp1122
(dp1123
g73
(dp1124
sg82
g1018
sg75
(lp1125
g68
(g89
g70
NtRp1126
(dp1127
g73
(dp1128
g93
g94
ssg82
g1122
sg75
(lp1129
g387
asbag68
(g89
g70
NtRp1130
(dp1131
g73
(dp1132
g100
g101
ssg82
g1122
sg75
(lp1133
S':'
asbag68
(g89
g70
NtRp1134
(dp1135
g73
(dp1136
sg82
g1122
sg75
(lp1137
g68
(g69
g70
NtRp1138
(dp1139
g73
(dp1140
g81
I3
ssg82
g1134
sg75
(lp1141
S''
asbasbasbag68
(g84
g70
NtRp1142
(dp1143
g73
(dp1144
sg82
g1018
sg75
(lp1145
g68
(g89
g70
NtRp1146
(dp1147
g73
(dp1148
g93
g94
ssg82
g1142
sg75
(lp1149
g408
asbag68
(g89
g70
NtRp1150
(dp1151
g73
(dp1152
g100
g101
ssg82
g1142
sg75
(lp1153
S':'
asbag68
(g89
g70
NtRp1154
(dp1155
g73
(dp1156
sg82
g1142
sg75
(lp1157
g68
(g69
g70
NtRp1158
(dp1159
g73
(dp1160
g81
I3
ssg82
g1154
sg75
(lp1161
S''
asbasbasbag68
(g84
g70
NtRp1162
(dp1163
g73
(dp1164
sg82
g1018
sg75
(lp1165
g68
(g89
g70
NtRp1166
(dp1167
g73
(dp1168
g93
g94
ssg82
g1162
sg75
(lp1169
g429
asbag68
(g89
g70
NtRp1170
(dp1171
g73
(dp1172
g100
g101
ssg82
g1162
sg75
(lp1173
S':'
asbag68
(g89
g70
NtRp1174
(dp1175
g73
(dp1176
sg82
g1162
sg75
(lp1177
g68
(g69
g70
NtRp1178
(dp1179
g73
(dp1180
g81
I3
ssg82
g1174
sg75
(lp1181
S''
asbasbasbasbasbasbasbag68
(g84
g70
NtRp1182
(dp1183
g73
(dp1184
sg82
g245
sg75
(lp1185
g68
(g89
g70
NtRp1186
(dp1187
g73
(dp1188
g93
g94
ssg82
g1182
sg75
(lp1189
S'session_id_welcome'
p1190
asbag68
(g89
g70
NtRp1191
(dp1192
g73
(dp1193
g100
g101
ssg82
g1182
sg75
(lp1194
S':'
asbag68
(g89
g70
NtRp1195
(dp1196
g73
(dp1197
sg82
g1182
sg75
(lp1198
g68
(g69
g70
NtRp1199
(dp1200
g73
(dp1201
g81
I4
ssg82
g1195
sg75
(lp1202
g68
(g77
g70
NtRp1203
(dp1204
g73
(dp1205
g81
I3
ssg82
Nsg75
(lp1206
g68
(g84
g70
NtRp1207
(dp1208
g73
(dp1209
sg82
g1203
sg75
(lp1210
g68
(g89
g70
NtRp1211
(dp1212
g73
(dp1213
g93
g94
ssg82
g1207
sg75
(lp1214
g282
asbag68
(g89
g70
NtRp1215
(dp1216
g73
(dp1217
g100
g101
ssg82
g1207
sg75
(lp1218
S':'
asbag68
(g89
g70
NtRp1219
(dp1220
g73
(dp1221
sg82
g1207
sg75
(lp1222
g68
(g69
g70
NtRp1223
(dp1224
g73
(dp1225
g81
I3
ssg82
g1219
sg75
(lp1226
S''
asbasbasbag68
(g84
g70
NtRp1227
(dp1228
g73
(dp1229
sg82
g1203
sg75
(lp1230
g68
(g89
g70
NtRp1231
(dp1232
g73
(dp1233
g93
g94
ssg82
g1227
sg75
(lp1234
g303
asbag68
(g89
g70
NtRp1235
(dp1236
g73
(dp1237
g100
g101
ssg82
g1227
sg75
(lp1238
S':'
asbag68
(g89
g70
NtRp1239
(dp1240
g73
(dp1241
sg82
g1227
sg75
(lp1242
g68
(g69
g70
NtRp1243
(dp1244
g73
(dp1245
g81
I3
ssg82
g1239
sg75
(lp1246
S''
asbasbasbag68
(g84
g70
NtRp1247
(dp1248
g73
(dp1249
sg82
g1203
sg75
(lp1250
g68
(g89
g70
NtRp1251
(dp1252
g73
(dp1253
g93
g94
ssg82
g1247
sg75
(lp1254
g324
asbag68
(g89
g70
NtRp1255
(dp1256
g73
(dp1257
g100
g101
ssg82
g1247
sg75
(lp1258
S':'
asbag68
(g89
g70
NtRp1259
(dp1260
g73
(dp1261
sg82
g1247
sg75
(lp1262
g68
(g69
g70
NtRp1263
(dp1264
g73
(dp1265
g81
I3
ssg82
g1259
sg75
(lp1266
S''
asbasbasbag68
(g84
g70
NtRp1267
(dp1268
g73
(dp1269
sg82
g1203
sg75
(lp1270
g68
(g89
g70
NtRp1271
(dp1272
g73
(dp1273
g93
g94
ssg82
g1267
sg75
(lp1274
g345
asbag68
(g89
g70
NtRp1275
(dp1276
g73
(dp1277
g100
g101
ssg82
g1267
sg75
(lp1278
S':'
asbag68
(g89
g70
NtRp1279
(dp1280
g73
(dp1281
sg82
g1267
sg75
(lp1282
g68
(g69
g70
NtRp1283
(dp1284
g73
(dp1285
g81
I3
ssg82
g1279
sg75
(lp1286
S''
asbasbasbag68
(g84
g70
NtRp1287
(dp1288
g73
(dp1289
sg82
g1203
sg75
(lp1290
g68
(g89
g70
NtRp1291
(dp1292
g73
(dp1293
g93
g94
ssg82
g1287
sg75
(lp1294
g366
asbag68
(g89
g70
NtRp1295
(dp1296
g73
(dp1297
g100
g101
ssg82
g1287
sg75
(lp1298
S':'
asbag68
(g89
g70
NtRp1299
(dp1300
g73
(dp1301
sg82
g1287
sg75
(lp1302
g68
(g69
g70
NtRp1303
(dp1304
g73
(dp1305
g81
I3
ssg82
g1299
sg75
(lp1306
S''
asbasbasbag68
(g84
g70
NtRp1307
(dp1308
g73
(dp1309
sg82
g1203
sg75
(lp1310
g68
(g89
g70
NtRp1311
(dp1312
g73
(dp1313
g93
g94
ssg82
g1307
sg75
(lp1314
g387
asbag68
(g89
g70
NtRp1315
(dp1316
g73
(dp1317
g100
g101
ssg82
g1307
sg75
(lp1318
S':'
asbag68
(g89
g70
NtRp1319
(dp1320
g73
(dp1321
sg82
g1307
sg75
(lp1322
g68
(g69
g70
NtRp1323
(dp1324
g73
(dp1325
g81
I3
ssg82
g1319
sg75
(lp1326
S''
asbasbasbag68
(g84
g70
NtRp1327
(dp1328
g73
(dp1329
sg82
g1203
sg75
(lp1330
g68
(g89
g70
NtRp1331
(dp1332
g73
(dp1333
g93
g94
ssg82
g1327
sg75
(lp1334
g408
asbag68
(g89
g70
NtRp1335
(dp1336
g73
(dp1337
g100
g101
ssg82
g1327
sg75
(lp1338
S':'
asbag68
(g89
g70
NtRp1339
(dp1340
g73
(dp1341
sg82
g1327
sg75
(lp1342
g68
(g69
g70
NtRp1343
(dp1344
g73
(dp1345
g81
I3
ssg82
g1339
sg75
(lp1346
S''
asbasbasbag68
(g84
g70
NtRp1347
(dp1348
g73
(dp1349
sg82
g1203
sg75
(lp1350
g68
(g89
g70
NtRp1351
(dp1352
g73
(dp1353
g93
g94
ssg82
g1347
sg75
(lp1354
g429
asbag68
(g89
g70
NtRp1355
(dp1356
g73
(dp1357
g100
g101
ssg82
g1347
sg75
(lp1358
S':'
asbag68
(g89
g70
NtRp1359
(dp1360
g73
(dp1361
sg82
g1347
sg75
(lp1362
g68
(g69
g70
NtRp1363
(dp1364
g73
(dp1365
g81
I3
ssg82
g1359
sg75
(lp1366
S''
asbasbasbasbasbasbasbasbasbasbasbag68
(g84
g70
NtRp1367
(dp1368
g73
(dp1369
sg82
g78
sg75
(lp1370
g68
(g89
g70
NtRp1371
(dp1372
g73
(dp1373
g93
g94
ssg82
g1367
sg75
(lp1374
S'env'
p1375
asbag68
(g89
g70
NtRp1376
(dp1377
g73
(dp1378
g100
g101
ssg82
g1367
sg75
(lp1379
S':'
asbag68
(g89
g70
NtRp1380
(dp1381
g73
(dp1382
sg82
g1367
sg75
(lp1383
g68
(g69
g70
NtRp1384
(dp1385
g73
(dp1386
g81
I5
ssg82
g1380
sg75
(lp1387
g68
(g77
g70
NtRp1388
(dp1389
g73
(dp1390
g81
I4
ssg82
Nsg75
(lp1391
g68
(g84
g70
NtRp1392
(dp1393
g73
(dp1394
sg82
g1388
sg75
(lp1395
g68
(g89
g70
NtRp1396
(dp1397
g73
(dp1398
g93
g94
ssg82
g1392
sg75
(lp1399
S'app_folders'
p1400
asbag68
(g89
g70
NtRp1401
(dp1402
g73
(dp1403
g100
g101
ssg82
g1392
sg75
(lp1404
S':'
asbag68
(g89
g70
NtRp1405
(dp1406
g73
(dp1407
sg82
g1392
sg75
(lp1408
g68
(g69
g70
NtRp1409
(dp1410
g73
(dp1411
g81
I4
ssg82
g1405
sg75
(lp1412
S"set(['/Users/emir/Documents/beardcode/web2py/applications/randomwords/', '/Users/emir/Documents/beardcode/web2py/applications/admin/', '/Users/emir/Documents/beardcode/web2py/applications/fayol/'])"
p1413
asbasbasbag68
(g84
g70
NtRp1414
(dp1415
g73
(dp1416
sg82
g1388
sg75
(lp1417
g68
(g89
g70
NtRp1418
(dp1419
g73
(dp1420
g93
g94
ssg82
g1414
sg75
(lp1421
S'applications_parent'
p1422
asbag68
(g89
g70
NtRp1423
(dp1424
g73
(dp1425
g100
g101
ssg82
g1414
sg75
(lp1426
S':'
asbag68
(g89
g70
NtRp1427
(dp1428
g73
(dp1429
sg82
g1414
sg75
(lp1430
g68
(g69
g70
NtRp1431
(dp1432
g73
(dp1433
g81
I4
ssg82
g1427
sg75
(lp1434
S'/Users/emir/Documents/beardcode/web2py'
p1435
asbasbasbag68
(g84
g70
NtRp1436
(dp1437
g73
(dp1438
sg82
g1388
sg75
(lp1439
g68
(g89
g70
NtRp1440
(dp1441
g73
(dp1442
g93
g94
ssg82
g1436
sg75
(lp1443
S'db_sessions'
p1444
asbag68
(g89
g70
NtRp1445
(dp1446
g73
(dp1447
g100
g101
ssg82
g1436
sg75
(lp1448
S':'
asbag68
(g89
g70
NtRp1449
(dp1450
g73
(dp1451
sg82
g1436
sg75
(lp1452
g68
(g69
g70
NtRp1453
(dp1454
g73
(dp1455
g81
I4
ssg82
g1449
sg75
(lp1456
S'set([])'
p1457
asbasbasbag68
(g84
g70
NtRp1458
(dp1459
g73
(dp1460
sg82
g1388
sg75
(lp1461
g68
(g89
g70
NtRp1462
(dp1463
g73
(dp1464
g93
g94
ssg82
g1458
sg75
(lp1465
S'debugging'
p1466
asbag68
(g89
g70
NtRp1467
(dp1468
g73
(dp1469
g100
g101
ssg82
g1458
sg75
(lp1470
S':'
asbag68
(g89
g70
NtRp1471
(dp1472
g73
(dp1473
sg82
g1458
sg75
(lp1474
g68
(g69
g70
NtRp1475
(dp1476
g73
(dp1477
g81
I4
ssg82
g1471
sg75
(lp1478
g111
asbasbasbag68
(g84
g70
NtRp1479
(dp1480
g73
(dp1481
sg82
g1388
sg75
(lp1482
g68
(g89
g70
NtRp1483
(dp1484
g73
(dp1485
g93
g94
ssg82
g1479
sg75
(lp1486
S'document_root'
p1487
asbag68
(g89
g70
NtRp1488
(dp1489
g73
(dp1490
g100
g101
ssg82
g1479
sg75
(lp1491
S':'
asbag68
(g89
g70
NtRp1492
(dp1493
g73
(dp1494
sg82
g1479
sg75
(lp1495
g68
(g69
g70
NtRp1496
(dp1497
g73
(dp1498
g81
I4
ssg82
g1492
sg75
(lp1499
S'/Library/WebServer/Documents'
p1500
asbasbasbag68
(g84
g70
NtRp1501
(dp1502
g73
(dp1503
sg82
g1388
sg75
(lp1504
g68
(g89
g70
NtRp1505
(dp1506
g73
(dp1507
g93
g94
ssg82
g1501
sg75
(lp1508
S'gateway_interface'
p1509
asbag68
(g89
g70
NtRp1510
(dp1511
g73
(dp1512
g100
g101
ssg82
g1501
sg75
(lp1513
S':'
asbag68
(g89
g70
NtRp1514
(dp1515
g73
(dp1516
sg82
g1501
sg75
(lp1517
g68
(g69
g70
NtRp1518
(dp1519
g73
(dp1520
g81
I4
ssg82
g1514
sg75
(lp1521
S'CGI/1.1'
p1522
asbasbasbag68
(g84
g70
NtRp1523
(dp1524
g73
(dp1525
sg82
g1388
sg75
(lp1526
g68
(g89
g70
NtRp1527
(dp1528
g73
(dp1529
g93
g94
ssg82
g1523
sg75
(lp1530
S'gluon_parent'
p1531
asbag68
(g89
g70
NtRp1532
(dp1533
g73
(dp1534
g100
g101
ssg82
g1523
sg75
(lp1535
S':'
asbag68
(g89
g70
NtRp1536
(dp1537
g73
(dp1538
sg82
g1523
sg75
(lp1539
g68
(g69
g70
NtRp1540
(dp1541
g73
(dp1542
g81
I4
ssg82
g1536
sg75
(lp1543
g1435
asbasbasbag68
(g84
g70
NtRp1544
(dp1545
g73
(dp1546
sg82
g1388
sg75
(lp1547
g68
(g89
g70
NtRp1548
(dp1549
g73
(dp1550
g93
g94
ssg82
g1544
sg75
(lp1551
S'http_accept'
p1552
asbag68
(g89
g70
NtRp1553
(dp1554
g73
(dp1555
g100
g101
ssg82
g1544
sg75
(lp1556
S':'
asbag68
(g89
g70
NtRp1557
(dp1558
g73
(dp1559
sg82
g1544
sg75
(lp1560
g68
(g69
g70
NtRp1561
(dp1562
g73
(dp1563
g81
I4
ssg82
g1557
sg75
(lp1564
S'text/html,application/xhtml+xml,application/xml;q=0.9,*/*;q=0.8'
p1565
asbasbasbag68
(g84
g70
NtRp1566
(dp1567
g73
(dp1568
sg82
g1388
sg75
(lp1569
g68
(g89
g70
NtRp1570
(dp1571
g73
(dp1572
g93
g94
ssg82
g1566
sg75
(lp1573
S'http_accept_charset'
p1574
asbag68
(g89
g70
NtRp1575
(dp1576
g73
(dp1577
g100
g101
ssg82
g1566
sg75
(lp1578
S':'
asbag68
(g89
g70
NtRp1579
(dp1580
g73
(dp1581
sg82
g1566
sg75
(lp1582
g68
(g69
g70
NtRp1583
(dp1584
g73
(dp1585
g81
I4
ssg82
g1579
sg75
(lp1586
S'ISO-8859-1,utf-8;q=0.7,*;q=0.3'
p1587
asbasbasbag68
(g84
g70
NtRp1588
(dp1589
g73
(dp1590
sg82
g1388
sg75
(lp1591
g68
(g89
g70
NtRp1592
(dp1593
g73
(dp1594
g93
g94
ssg82
g1588
sg75
(lp1595
S'http_accept_encoding'
p1596
asbag68
(g89
g70
NtRp1597
(dp1598
g73
(dp1599
g100
g101
ssg82
g1588
sg75
(lp1600
S':'
asbag68
(g89
g70
NtRp1601
(dp1602
g73
(dp1603
sg82
g1588
sg75
(lp1604
g68
(g69
g70
NtRp1605
(dp1606
g73
(dp1607
g81
I4
ssg82
g1601
sg75
(lp1608
S'gzip,deflate,sdch'
p1609
asbasbasbag68
(g84
g70
NtRp1610
(dp1611
g73
(dp1612
sg82
g1388
sg75
(lp1613
g68
(g89
g70
NtRp1614
(dp1615
g73
(dp1616
g93
g94
ssg82
g1610
sg75
(lp1617
S'http_accept_language'
p1618
asbag68
(g89
g70
NtRp1619
(dp1620
g73
(dp1621
g100
g101
ssg82
g1610
sg75
(lp1622
S':'
asbag68
(g89
g70
NtRp1623
(dp1624
g73
(dp1625
sg82
g1610
sg75
(lp1626
g68
(g69
g70
NtRp1627
(dp1628
g73
(dp1629
g81
I4
ssg82
g1623
sg75
(lp1630
S'es-ES,es;q=0.8'
p1631
asbasbasbag68
(g84
g70
NtRp1632
(dp1633
g73
(dp1634
sg82
g1388
sg75
(lp1635
g68
(g89
g70
NtRp1636
(dp1637
g73
(dp1638
g93
g94
ssg82
g1632
sg75
(lp1639
S'http_connection'
p1640
asbag68
(g89
g70
NtRp1641
(dp1642
g73
(dp1643
g100
g101
ssg82
g1632
sg75
(lp1644
S':'
asbag68
(g89
g70
NtRp1645
(dp1646
g73
(dp1647
sg82
g1632
sg75
(lp1648
g68
(g69
g70
NtRp1649
(dp1650
g73
(dp1651
g81
I4
ssg82
g1645
sg75
(lp1652
S'keep-alive'
p1653
asbasbasbag68
(g84
g70
NtRp1654
(dp1655
g73
(dp1656
sg82
g1388
sg75
(lp1657
g68
(g89
g70
NtRp1658
(dp1659
g73
(dp1660
g93
g94
ssg82
g1654
sg75
(lp1661
S'http_cookie'
p1662
asbag68
(g89
g70
NtRp1663
(dp1664
g73
(dp1665
g100
g101
ssg82
g1654
sg75
(lp1666
S':'
asbag68
(g89
g70
NtRp1667
(dp1668
g73
(dp1669
sg82
g1654
sg75
(lp1670
g68
(g69
g70
NtRp1671
(dp1672
g73
(dp1673
g81
I4
ssg82
g1667
sg75
(lp1674
S'session_id_contador=127.0.0.1-2b69a554-5d73-450d-a1a3-2f7111772fbb; session_id_nombres=127.0.0.1-84743359-6fda-477d-8d9d-bdd73eec2878; session_id_randomwords=127.0.0.1-5b6c85d6-c0b7-4009-b803-334737663b75; session_id_welcome=127.0.0.1-26ca6cd3-84d7-4753-ad50-3b7ae1bcfc78; session_id_admin=127.0.0.1-eb1bfc92-b1d7-40f5-bac2-0727bba915fa; session_id_fayol=127.0.0.1-1c8d1e9a-36a1-4136-9a56-0cae7ede4ac3'
p1675
asbasbasbag68
(g84
g70
NtRp1676
(dp1677
g73
(dp1678
sg82
g1388
sg75
(lp1679
g68
(g89
g70
NtRp1680
(dp1681
g73
(dp1682
g93
g94
ssg82
g1676
sg75
(lp1683
S'http_host'
p1684
asbag68
(g89
g70
NtRp1685
(dp1686
g73
(dp1687
g100
g101
ssg82
g1676
sg75
(lp1688
S':'
asbag68
(g89
g70
NtRp1689
(dp1690
g73
(dp1691
sg82
g1676
sg75
(lp1692
g68
(g69
g70
NtRp1693
(dp1694
g73
(dp1695
g81
I4
ssg82
g1689
sg75
(lp1696
S'web2py'
p1697
asbasbasbag68
(g84
g70
NtRp1698
(dp1699
g73
(dp1700
sg82
g1388
sg75
(lp1701
g68
(g89
g70
NtRp1702
(dp1703
g73
(dp1704
g93
g94
ssg82
g1698
sg75
(lp1705
S'http_user_agent'
p1706
asbag68
(g89
g70
NtRp1707
(dp1708
g73
(dp1709
g100
g101
ssg82
g1698
sg75
(lp1710
S':'
asbag68
(g89
g70
NtRp1711
(dp1712
g73
(dp1713
sg82
g1698
sg75
(lp1714
g68
(g69
g70
NtRp1715
(dp1716
g73
(dp1717
g81
I4
ssg82
g1711
sg75
(lp1718
S'Mozilla/5.0 (Macintosh; Intel Mac OS X 10_8_0) AppleWebKit/537.1 (KHTML, like Gecko) Chrome/21.0.1180.75 Safari/537.1'
p1719
asbasbasbag68
(g84
g70
NtRp1720
(dp1721
g73
(dp1722
sg82
g1388
sg75
(lp1723
g68
(g89
g70
NtRp1724
(dp1725
g73
(dp1726
g93
g94
ssg82
g1720
sg75
(lp1727
S'is_jython'
p1728
asbag68
(g89
g70
NtRp1729
(dp1730
g73
(dp1731
g100
g101
ssg82
g1720
sg75
(lp1732
S':'
asbag68
(g89
g70
NtRp1733
(dp1734
g73
(dp1735
sg82
g1720
sg75
(lp1736
g68
(g69
g70
NtRp1737
(dp1738
g73
(dp1739
g81
I4
ssg82
g1733
sg75
(lp1740
g111
asbasbasbag68
(g84
g70
NtRp1741
(dp1742
g73
(dp1743
sg82
g1388
sg75
(lp1744
g68
(g89
g70
NtRp1745
(dp1746
g73
(dp1747
g93
g94
ssg82
g1741
sg75
(lp1748
S'is_pypy'
p1749
asbag68
(g89
g70
NtRp1750
(dp1751
g73
(dp1752
g100
g101
ssg82
g1741
sg75
(lp1753
S':'
asbag68
(g89
g70
NtRp1754
(dp1755
g73
(dp1756
sg82
g1741
sg75
(lp1757
g68
(g69
g70
NtRp1758
(dp1759
g73
(dp1760
g81
I4
ssg82
g1754
sg75
(lp1761
g111
asbasbasbag68
(g84
g70
NtRp1762
(dp1763
g73
(dp1764
sg82
g1388
sg75
(lp1765
g68
(g89
g70
NtRp1766
(dp1767
g73
(dp1768
g93
g94
ssg82
g1762
sg75
(lp1769
S'mod_wsgi_application_group'
p1770
asbag68
(g89
g70
NtRp1771
(dp1772
g73
(dp1773
g100
g101
ssg82
g1762
sg75
(lp1774
S':'
asbag68
(g89
g70
NtRp1775
(dp1776
g73
(dp1777
sg82
g1762
sg75
(lp1778
g68
(g69
g70
NtRp1779
(dp1780
g73
(dp1781
g81
I4
ssg82
g1775
sg75
(lp1782
S'web2py|'
p1783
asbasbasbag68
(g84
g70
NtRp1784
(dp1785
g73
(dp1786
sg82
g1388
sg75
(lp1787
g68
(g89
g70
NtRp1788
(dp1789
g73
(dp1790
g93
g94
ssg82
g1784
sg75
(lp1791
S'mod_wsgi_callable_object'
p1792
asbag68
(g89
g70
NtRp1793
(dp1794
g73
(dp1795
g100
g101
ssg82
g1784
sg75
(lp1796
S':'
asbag68
(g89
g70
NtRp1797
(dp1798
g73
(dp1799
sg82
g1784
sg75
(lp1800
g68
(g69
g70
NtRp1801
(dp1802
g73
(dp1803
g81
I4
ssg82
g1797
sg75
(lp1804
S'application'
p1805
asbasbasbag68
(g84
g70
NtRp1806
(dp1807
g73
(dp1808
sg82
g1388
sg75
(lp1809
g68
(g89
g70
NtRp1810
(dp1811
g73
(dp1812
g93
g94
ssg82
g1806
sg75
(lp1813
S'mod_wsgi_handler_script'
p1814
asbag68
(g89
g70
NtRp1815
(dp1816
g73
(dp1817
g100
g101
ssg82
g1806
sg75
(lp1818
S':'
asbag68
(g89
g70
NtRp1819
(dp1820
g73
(dp1821
sg82
g1806
sg75
(lp1822
g68
(g69
g70
NtRp1823
(dp1824
g73
(dp1825
g81
I4
ssg82
g1819
sg75
(lp1826
S''
asbasbasbag68
(g84
g70
NtRp1827
(dp1828
g73
(dp1829
sg82
g1388
sg75
(lp1830
g68
(g89
g70
NtRp1831
(dp1832
g73
(dp1833
g93
g94
ssg82
g1827
sg75
(lp1834
S'mod_wsgi_input_chunked'
p1835
asbag68
(g89
g70
NtRp1836
(dp1837
g73
(dp1838
g100
g101
ssg82
g1827
sg75
(lp1839
S':'
asbag68
(g89
g70
NtRp1840
(dp1841
g73
(dp1842
sg82
g1827
sg75
(lp1843
g68
(g69
g70
NtRp1844
(dp1845
g73
(dp1846
g81
I4
ssg82
g1840
sg75
(lp1847
S'0'
asbasbasbag68
(g84
g70
NtRp1848
(dp1849
g73
(dp1850
sg82
g1388
sg75
(lp1851
g68
(g89
g70
NtRp1852
(dp1853
g73
(dp1854
g93
g94
ssg82
g1848
sg75
(lp1855
S'mod_wsgi_listener_host'
p1856
asbag68
(g89
g70
NtRp1857
(dp1858
g73
(dp1859
g100
g101
ssg82
g1848
sg75
(lp1860
S':'
asbag68
(g89
g70
NtRp1861
(dp1862
g73
(dp1863
sg82
g1848
sg75
(lp1864
g68
(g69
g70
NtRp1865
(dp1866
g73
(dp1867
g81
I4
ssg82
g1861
sg75
(lp1868
S''
asbasbasbag68
(g84
g70
NtRp1869
(dp1870
g73
(dp1871
sg82
g1388
sg75
(lp1872
g68
(g89
g70
NtRp1873
(dp1874
g73
(dp1875
g93
g94
ssg82
g1869
sg75
(lp1876
S'mod_wsgi_listener_port'
p1877
asbag68
(g89
g70
NtRp1878
(dp1879
g73
(dp1880
g100
g101
ssg82
g1869
sg75
(lp1881
S':'
asbag68
(g89
g70
NtRp1882
(dp1883
g73
(dp1884
sg82
g1869
sg75
(lp1885
g68
(g69
g70
NtRp1886
(dp1887
g73
(dp1888
g81
I4
ssg82
g1882
sg75
(lp1889
S'80'
p1890
asbasbasbag68
(g84
g70
NtRp1891
(dp1892
g73
(dp1893
sg82
g1388
sg75
(lp1894
g68
(g89
g70
NtRp1895
(dp1896
g73
(dp1897
g93
g94
ssg82
g1891
sg75
(lp1898
S'mod_wsgi_process_group'
p1899
asbag68
(g89
g70
NtRp1900
(dp1901
g73
(dp1902
g100
g101
ssg82
g1891
sg75
(lp1903
S':'
asbag68
(g89
g70
NtRp1904
(dp1905
g73
(dp1906
sg82
g1891
sg75
(lp1907
g68
(g69
g70
NtRp1908
(dp1909
g73
(dp1910
g81
I4
ssg82
g1904
sg75
(lp1911
S''
asbasbasbag68
(g84
g70
NtRp1912
(dp1913
g73
(dp1914
sg82
g1388
sg75
(lp1915
g68
(g89
g70
NtRp1916
(dp1917
g73
(dp1918
g93
g94
ssg82
g1912
sg75
(lp1919
S'mod_wsgi_request_handler'
p1920
asbag68
(g89
g70
NtRp1921
(dp1922
g73
(dp1923
g100
g101
ssg82
g1912
sg75
(lp1924
S':'
asbag68
(g89
g70
NtRp1925
(dp1926
g73
(dp1927
sg82
g1912
sg75
(lp1928
g68
(g69
g70
NtRp1929
(dp1930
g73
(dp1931
g81
I4
ssg82
g1925
sg75
(lp1932
S'wsgi-script'
p1933
asbasbasbag68
(g84
g70
NtRp1934
(dp1935
g73
(dp1936
sg82
g1388
sg75
(lp1937
g68
(g89
g70
NtRp1938
(dp1939
g73
(dp1940
g93
g94
ssg82
g1934
sg75
(lp1941
S'mod_wsgi_script_reloading'
p1942
asbag68
(g89
g70
NtRp1943
(dp1944
g73
(dp1945
g100
g101
ssg82
g1934
sg75
(lp1946
S':'
asbag68
(g89
g70
NtRp1947
(dp1948
g73
(dp1949
sg82
g1934
sg75
(lp1950
g68
(g69
g70
NtRp1951
(dp1952
g73
(dp1953
g81
I4
ssg82
g1947
sg75
(lp1954
S'1'
asbasbasbag68
(g84
g70
NtRp1955
(dp1956
g73
(dp1957
sg82
g1388
sg75
(lp1958
g68
(g89
g70
NtRp1959
(dp1960
g73
(dp1961
g93
g94
ssg82
g1955
sg75
(lp1962
S'mod_wsgi_version'
p1963
asbag68
(g89
g70
NtRp1964
(dp1965
g73
(dp1966
g100
g101
ssg82
g1955
sg75
(lp1967
S':'
asbag68
(g89
g70
NtRp1968
(dp1969
g73
(dp1970
sg82
g1955
sg75
(lp1971
g68
(g69
g70
NtRp1972
(dp1973
g73
(dp1974
g81
I4
ssg82
g1968
sg75
(lp1975
g68
(g77
g70
NtRp1976
(dp1977
g73
(dp1978
g81
I3
ssg82
Nsg75
(lp1979
g68
(g84
g70
NtRp1980
(dp1981
g73
(dp1982
sg82
g1976
sg75
(lp1983
g68
(g89
g70
NtRp1984
(dp1985
g73
(dp1986
sg82
g1980
sg75
(lp1987
g68
(g69
g70
NtRp1988
(dp1989
g73
(dp1990
g81
I3
ssg82
g1984
sg75
(lp1991
S'3'
asbasbasbag68
(g84
g70
NtRp1992
(dp1993
g73
(dp1994
sg82
g1976
sg75
(lp1995
g68
(g89
g70
NtRp1996
(dp1997
g73
(dp1998
sg82
g1992
sg75
(lp1999
g68
(g69
g70
NtRp2000
(dp2001
g73
(dp2002
g81
I3
ssg82
g1996
sg75
(lp2003
S'3'
asbasbasbasbasbasbasbag68
(g84
g70
NtRp2004
(dp2005
g73
(dp2006
sg82
g1388
sg75
(lp2007
g68
(g89
g70
NtRp2008
(dp2009
g73
(dp2010
g93
g94
ssg82
g2004
sg75
(lp2011
S'path_info'
p2012
asbag68
(g89
g70
NtRp2013
(dp2014
g73
(dp2015
g100
g101
ssg82
g2004
sg75
(lp2016
S':'
asbag68
(g89
g70
NtRp2017
(dp2018
g73
(dp2019
sg82
g2004
sg75
(lp2020
g68
(g69
g70
NtRp2021
(dp2022
g73
(dp2023
g81
I4
ssg82
g2017
sg75
(lp2024
S'/fayol'
p2025
asbasbasbag68
(g84
g70
NtRp2026
(dp2027
g73
(dp2028
sg82
g1388
sg75
(lp2029
g68
(g89
g70
NtRp2030
(dp2031
g73
(dp2032
g93
g94
ssg82
g2026
sg75
(lp2033
S'path_translated'
p2034
asbag68
(g89
g70
NtRp2035
(dp2036
g73
(dp2037
g100
g101
ssg82
g2026
sg75
(lp2038
S':'
asbag68
(g89
g70
NtRp2039
(dp2040
g73
(dp2041
sg82
g2026
sg75
(lp2042
g68
(g69
g70
NtRp2043
(dp2044
g73
(dp2045
g81
I4
ssg82
g2039
sg75
(lp2046
S'/Users/emir/Documents/beardcode/web2py/wsgihandler.py/fayol'
p2047
asbasbasbag68
(g84
g70
NtRp2048
(dp2049
g73
(dp2050
sg82
g1388
sg75
(lp2051
g68
(g89
g70
NtRp2052
(dp2053
g73
(dp2054
g93
g94
ssg82
g2048
sg75
(lp2055
S'query_string'
p2056
asbag68
(g89
g70
NtRp2057
(dp2058
g73
(dp2059
g100
g101
ssg82
g2048
sg75
(lp2060
S':'
asbag68
(g89
g70
NtRp2061
(dp2062
g73
(dp2063
sg82
g2048
sg75
(lp2064
g68
(g69
g70
NtRp2065
(dp2066
g73
(dp2067
g81
I4
ssg82
g2061
sg75
(lp2068
S''
asbasbasbag68
(g84
g70
NtRp2069
(dp2070
g73
(dp2071
sg82
g1388
sg75
(lp2072
g68
(g89
g70
NtRp2073
(dp2074
g73
(dp2075
g93
g94
ssg82
g2069
sg75
(lp2076
S'remote_addr'
p2077
asbag68
(g89
g70
NtRp2078
(dp2079
g73
(dp2080
g100
g101
ssg82
g2069
sg75
(lp2081
S':'
asbag68
(g89
g70
NtRp2082
(dp2083
g73
(dp2084
sg82
g2069
sg75
(lp2085
g68
(g69
g70
NtRp2086
(dp2087
g73
(dp2088
g81
I4
ssg82
g2082
sg75
(lp2089
g201
asbasbasbag68
(g84
g70
NtRp2090
(dp2091
g73
(dp2092
sg82
g1388
sg75
(lp2093
g68
(g89
g70
NtRp2094
(dp2095
g73
(dp2096
g93
g94
ssg82
g2090
sg75
(lp2097
S'remote_port'
p2098
asbag68
(g89
g70
NtRp2099
(dp2100
g73
(dp2101
g100
g101
ssg82
g2090
sg75
(lp2102
S':'
asbag68
(g89
g70
NtRp2103
(dp2104
g73
(dp2105
sg82
g2090
sg75
(lp2106
g68
(g69
g70
NtRp2107
(dp2108
g73
(dp2109
g81
I4
ssg82
g2103
sg75
(lp2110
S'61113'
p2111
asbasbasbag68
(g84
g70
NtRp2112
(dp2113
g73
(dp2114
sg82
g1388
sg75
(lp2115
g68
(g89
g70
NtRp2116
(dp2117
g73
(dp2118
g93
g94
ssg82
g2112
sg75
(lp2119
S'request_method'
p2120
asbag68
(g89
g70
NtRp2121
(dp2122
g73
(dp2123
g100
g101
ssg82
g2112
sg75
(lp2124
S':'
asbag68
(g89
g70
NtRp2125
(dp2126
g73
(dp2127
sg82
g2112
sg75
(lp2128
g68
(g69
g70
NtRp2129
(dp2130
g73
(dp2131
g81
I4
ssg82
g2125
sg75
(lp2132
S'GET'
p2133
asbasbasbag68
(g84
g70
NtRp2134
(dp2135
g73
(dp2136
sg82
g1388
sg75
(lp2137
g68
(g89
g70
NtRp2138
(dp2139
g73
(dp2140
g93
g94
ssg82
g2134
sg75
(lp2141
S'request_uri'
p2142
asbag68
(g89
g70
NtRp2143
(dp2144
g73
(dp2145
g100
g101
ssg82
g2134
sg75
(lp2146
S':'
asbag68
(g89
g70
NtRp2147
(dp2148
g73
(dp2149
sg82
g2134
sg75
(lp2150
g68
(g69
g70
NtRp2151
(dp2152
g73
(dp2153
g81
I4
ssg82
g2147
sg75
(lp2154
S'/fayol'
p2155
asbasbasbag68
(g84
g70
NtRp2156
(dp2157
g73
(dp2158
sg82
g1388
sg75
(lp2159
g68
(g89
g70
NtRp2160
(dp2161
g73
(dp2162
g93
g94
ssg82
g2156
sg75
(lp2163
S'script_filename'
p2164
asbag68
(g89
g70
NtRp2165
(dp2166
g73
(dp2167
g100
g101
ssg82
g2156
sg75
(lp2168
S':'
asbag68
(g89
g70
NtRp2169
(dp2170
g73
(dp2171
sg82
g2156
sg75
(lp2172
g68
(g69
g70
NtRp2173
(dp2174
g73
(dp2175
g81
I4
ssg82
g2169
sg75
(lp2176
S'/Users/emir/Documents/beardcode/web2py/wsgihandler.py'
p2177
asbasbasbag68
(g84
g70
NtRp2178
(dp2179
g73
(dp2180
sg82
g1388
sg75
(lp2181
g68
(g89
g70
NtRp2182
(dp2183
g73
(dp2184
g93
g94
ssg82
g2178
sg75
(lp2185
S'script_name'
p2186
asbag68
(g89
g70
NtRp2187
(dp2188
g73
(dp2189
g100
g101
ssg82
g2178
sg75
(lp2190
S':'
asbag68
(g89
g70
NtRp2191
(dp2192
g73
(dp2193
sg82
g2178
sg75
(lp2194
g68
(g69
g70
NtRp2195
(dp2196
g73
(dp2197
g81
I4
ssg82
g2191
sg75
(lp2198
S''
asbasbasbag68
(g84
g70
NtRp2199
(dp2200
g73
(dp2201
sg82
g1388
sg75
(lp2202
g68
(g89
g70
NtRp2203
(dp2204
g73
(dp2205
g93
g94
ssg82
g2199
sg75
(lp2206
S'server_addr'
p2207
asbag68
(g89
g70
NtRp2208
(dp2209
g73
(dp2210
g100
g101
ssg82
g2199
sg75
(lp2211
S':'
asbag68
(g89
g70
NtRp2212
(dp2213
g73
(dp2214
sg82
g2199
sg75
(lp2215
g68
(g69
g70
NtRp2216
(dp2217
g73
(dp2218
g81
I4
ssg82
g2212
sg75
(lp2219
S'127.0.0.1'
p2220
asbasbasbag68
(g84
g70
NtRp2221
(dp2222
g73
(dp2223
sg82
g1388
sg75
(lp2224
g68
(g89
g70
NtRp2225
(dp2226
g73
(dp2227
g93
g94
ssg82
g2221
sg75
(lp2228
S'server_admin'
p2229
asbag68
(g89
g70
NtRp2230
(dp2231
g73
(dp2232
g100
g101
ssg82
g2221
sg75
(lp2233
S':'
asbag68
(g89
g70
NtRp2234
(dp2235
g73
(dp2236
sg82
g2221
sg75
(lp2237
g68
(g69
g70
NtRp2238
(dp2239
g73
(dp2240
g81
I4
ssg82
g2234
sg75
(lp2241
S'you@example.com'
p2242
asbasbasbag68
(g84
g70
NtRp2243
(dp2244
g73
(dp2245
sg82
g1388
sg75
(lp2246
g68
(g89
g70
NtRp2247
(dp2248
g73
(dp2249
g93
g94
ssg82
g2243
sg75
(lp2250
S'server_name'
p2251
asbag68
(g89
g70
NtRp2252
(dp2253
g73
(dp2254
g100
g101
ssg82
g2243
sg75
(lp2255
S':'
asbag68
(g89
g70
NtRp2256
(dp2257
g73
(dp2258
sg82
g2243
sg75
(lp2259
g68
(g69
g70
NtRp2260
(dp2261
g73
(dp2262
g81
I4
ssg82
g2256
sg75
(lp2263
S'web2py'
p2264
asbasbasbag68
(g84
g70
NtRp2265
(dp2266
g73
(dp2267
sg82
g1388
sg75
(lp2268
g68
(g89
g70
NtRp2269
(dp2270
g73
(dp2271
g93
g94
ssg82
g2265
sg75
(lp2272
S'server_port'
p2273
asbag68
(g89
g70
NtRp2274
(dp2275
g73
(dp2276
g100
g101
ssg82
g2265
sg75
(lp2277
S':'
asbag68
(g89
g70
NtRp2278
(dp2279
g73
(dp2280
sg82
g2265
sg75
(lp2281
g68
(g69
g70
NtRp2282
(dp2283
g73
(dp2284
g81
I4
ssg82
g2278
sg75
(lp2285
S'80'
p2286
asbasbasbag68
(g84
g70
NtRp2287
(dp2288
g73
(dp2289
sg82
g1388
sg75
(lp2290
g68
(g89
g70
NtRp2291
(dp2292
g73
(dp2293
g93
g94
ssg82
g2287
sg75
(lp2294
S'server_protocol'
p2295
asbag68
(g89
g70
NtRp2296
(dp2297
g73
(dp2298
g100
g101
ssg82
g2287
sg75
(lp2299
S':'
asbag68
(g89
g70
NtRp2300
(dp2301
g73
(dp2302
sg82
g2287
sg75
(lp2303
g68
(g69
g70
NtRp2304
(dp2305
g73
(dp2306
g81
I4
ssg82
g2300
sg75
(lp2307
S'HTTP/1.1'
p2308
asbasbasbag68
(g84
g70
NtRp2309
(dp2310
g73
(dp2311
sg82
g1388
sg75
(lp2312
g68
(g89
g70
NtRp2313
(dp2314
g73
(dp2315
g93
g94
ssg82
g2309
sg75
(lp2316
S'server_signature'
p2317
asbag68
(g89
g70
NtRp2318
(dp2319
g73
(dp2320
g100
g101
ssg82
g2309
sg75
(lp2321
S':'
asbag68
(g89
g70
NtRp2322
(dp2323
g73
(dp2324
sg82
g2309
sg75
(lp2325
g68
(g69
g70
NtRp2326
(dp2327
g73
(dp2328
g81
I4
ssg82
g2322
sg75
(lp2329
S''
asbasbasbag68
(g84
g70
NtRp2330
(dp2331
g73
(dp2332
sg82
g1388
sg75
(lp2333
g68
(g89
g70
NtRp2334
(dp2335
g73
(dp2336
g93
g94
ssg82
g2330
sg75
(lp2337
S'server_software'
p2338
asbag68
(g89
g70
NtRp2339
(dp2340
g73
(dp2341
g100
g101
ssg82
g2330
sg75
(lp2342
S':'
asbag68
(g89
g70
NtRp2343
(dp2344
g73
(dp2345
sg82
g2330
sg75
(lp2346
g68
(g69
g70
NtRp2347
(dp2348
g73
(dp2349
g81
I4
ssg82
g2343
sg75
(lp2350
S'Apache/2.2.22 (Unix) DAV/2 mod_wsgi/3.3 Python/2.6.7 PHP/5.3.13 with Suhosin-Patch mod_ssl/2.2.22 OpenSSL/0.9.8r'
p2351
asbasbasbag68
(g84
g70
NtRp2352
(dp2353
g73
(dp2354
sg82
g1388
sg75
(lp2355
g68
(g89
g70
NtRp2356
(dp2357
g73
(dp2358
g93
g94
ssg82
g2352
sg75
(lp2359
S'web2py_path'
p2360
asbag68
(g89
g70
NtRp2361
(dp2362
g73
(dp2363
g100
g101
ssg82
g2352
sg75
(lp2364
S':'
asbag68
(g89
g70
NtRp2365
(dp2366
g73
(dp2367
sg82
g2352
sg75
(lp2368
g68
(g69
g70
NtRp2369
(dp2370
g73
(dp2371
g81
I4
ssg82
g2365
sg75
(lp2372
g1435
asbasbasbag68
(g84
g70
NtRp2373
(dp2374
g73
(dp2375
sg82
g1388
sg75
(lp2376
g68
(g89
g70
NtRp2377
(dp2378
g73
(dp2379
g93
g94
ssg82
g2373
sg75
(lp2380
S'web2py_version'
p2381
asbag68
(g89
g70
NtRp2382
(dp2383
g73
(dp2384
g100
g101
ssg82
g2373
sg75
(lp2385
S':'
asbag68
(g89
g70
NtRp2386
(dp2387
g73
(dp2388
sg82
g2373
sg75
(lp2389
g68
(g69
g70
NtRp2390
(dp2391
g73
(dp2392
g81
I4
ssg82
g2386
sg75
(lp2393
g68
(g77
g70
NtRp2394
(dp2395
g73
(dp2396
g81
I3
ssg82
Nsg75
(lp2397
g68
(g84
g70
NtRp2398
(dp2399
g73
(dp2400
sg82
g2394
sg75
(lp2401
g68
(g89
g70
NtRp2402
(dp2403
g73
(dp2404
sg82
g2398
sg75
(lp2405
g68
(g69
g70
NtRp2406
(dp2407
g73
(dp2408
g81
I3
ssg82
g2402
sg75
(lp2409
S'1'
asbasbasbag68
(g84
g70
NtRp2410
(dp2411
g73
(dp2412
sg82
g2394
sg75
(lp2413
g68
(g89
g70
NtRp2414
(dp2415
g73
(dp2416
sg82
g2410
sg75
(lp2417
g68
(g69
g70
NtRp2418
(dp2419
g73
(dp2420
g81
I3
ssg82
g2414
sg75
(lp2421
S'99'
p2422
asbasbasbag68
(g84
g70
NtRp2423
(dp2424
g73
(dp2425
sg82
g2394
sg75
(lp2426
g68
(g89
g70
NtRp2427
(dp2428
g73
(dp2429
sg82
g2423
sg75
(lp2430
g68
(g69
g70
NtRp2431
(dp2432
g73
(dp2433
g81
I3
ssg82
g2427
sg75
(lp2434
S'7'
asbasbasbag68
(g84
g70
NtRp2435
(dp2436
g73
(dp2437
sg82
g2394
sg75
(lp2438
g68
(g89
g70
NtRp2439
(dp2440
g73
(dp2441
sg82
g2435
sg75
(lp2442
g68
(g69
g70
NtRp2443
(dp2444
g73
(dp2445
g81
I3
ssg82
g2439
sg75
(lp2446
S'datetime.datetime(2012, 3, 4, 22, 12, 8)'
p2447
asbasbasbag68
(g84
g70
NtRp2448
(dp2449
g73
(dp2450
sg82
g2394
sg75
(lp2451
g68
(g89
g70
NtRp2452
(dp2453
g73
(dp2454
sg82
g2448
sg75
(lp2455
g68
(g69
g70
NtRp2456
(dp2457
g73
(dp2458
g81
I3
ssg82
g2452
sg75
(lp2459
S'stable'
p2460
asbasbasbasbasbasbasbag68
(g84
g70
NtRp2461
(dp2462
g73
(dp2463
sg82
g1388
sg75
(lp2464
g68
(g89
g70
NtRp2465
(dp2466
g73
(dp2467
g93
g94
ssg82
g2461
sg75
(lp2468
S'wsgi_errors'
p2469
asbag68
(g89
g70
NtRp2470
(dp2471
g73
(dp2472
g100
g101
ssg82
g2461
sg75
(lp2473
S':'
asbag68
(g89
g70
NtRp2474
(dp2475
g73
(dp2476
sg82
g2461
sg75
(lp2477
g68
(g69
g70
NtRp2478
(dp2479
g73
(dp2480
g81
I4
ssg82
g2474
sg75
(lp2481
S'<mod_wsgi.Log object at 0x10491feb0>'
p2482
asbasbasbag68
(g84
g70
NtRp2483
(dp2484
g73
(dp2485
sg82
g1388
sg75
(lp2486
g68
(g89
g70
NtRp2487
(dp2488
g73
(dp2489
g93
g94
ssg82
g2483
sg75
(lp2490
S'wsgi_file_wrapper'
p2491
asbag68
(g89
g70
NtRp2492
(dp2493
g73
(dp2494
g100
g101
ssg82
g2483
sg75
(lp2495
S':'
asbag68
(g89
g70
NtRp2496
(dp2497
g73
(dp2498
sg82
g2483
sg75
(lp2499
g68
(g69
g70
NtRp2500
(dp2501
g73
(dp2502
g81
I4
ssg82
g2496
sg75
(lp2503
S'<built-in method file_wrapper of mod_wsgi.Adapter object at 0x104971030>'
p2504
asbasbasbag68
(g84
g70
NtRp2505
(dp2506
g73
(dp2507
sg82
g1388
sg75
(lp2508
g68
(g89
g70
NtRp2509
(dp2510
g73
(dp2511
g93
g94
ssg82
g2505
sg75
(lp2512
S'wsgi_input'
p2513
asbag68
(g89
g70
NtRp2514
(dp2515
g73
(dp2516
g100
g101
ssg82
g2505
sg75
(lp2517
S':'
asbag68
(g89
g70
NtRp2518
(dp2519
g73
(dp2520
sg82
g2505
sg75
(lp2521
g68
(g69
g70
NtRp2522
(dp2523
g73
(dp2524
g81
I4
ssg82
g2518
sg75
(lp2525
S'<mod_wsgi.Input object at 0x10491fd30>'
p2526
asbasbasbag68
(g84
g70
NtRp2527
(dp2528
g73
(dp2529
sg82
g1388
sg75
(lp2530
g68
(g89
g70
NtRp2531
(dp2532
g73
(dp2533
g93
g94
ssg82
g2527
sg75
(lp2534
S'wsgi_multiprocess'
p2535
asbag68
(g89
g70
NtRp2536
(dp2537
g73
(dp2538
g100
g101
ssg82
g2527
sg75
(lp2539
S':'
asbag68
(g89
g70
NtRp2540
(dp2541
g73
(dp2542
sg82
g2527
sg75
(lp2543
g68
(g69
g70
NtRp2544
(dp2545
g73
(dp2546
g81
I4
ssg82
g2540
sg75
(lp2547
S'True'
p2548
asbasbasbag68
(g84
g70
NtRp2549
(dp2550
g73
(dp2551
sg82
g1388
sg75
(lp2552
g68
(g89
g70
NtRp2553
(dp2554
g73
(dp2555
g93
g94
ssg82
g2549
sg75
(lp2556
S'wsgi_multithread'
p2557
asbag68
(g89
g70
NtRp2558
(dp2559
g73
(dp2560
g100
g101
ssg82
g2549
sg75
(lp2561
S':'
asbag68
(g89
g70
NtRp2562
(dp2563
g73
(dp2564
sg82
g2549
sg75
(lp2565
g68
(g69
g70
NtRp2566
(dp2567
g73
(dp2568
g81
I4
ssg82
g2562
sg75
(lp2569
g111
asbasbasbag68
(g84
g70
NtRp2570
(dp2571
g73
(dp2572
sg82
g1388
sg75
(lp2573
g68
(g89
g70
NtRp2574
(dp2575
g73
(dp2576
g93
g94
ssg82
g2570
sg75
(lp2577
S'wsgi_run_once'
p2578
asbag68
(g89
g70
NtRp2579
(dp2580
g73
(dp2581
g100
g101
ssg82
g2570
sg75
(lp2582
S':'
asbag68
(g89
g70
NtRp2583
(dp2584
g73
(dp2585
sg82
g2570
sg75
(lp2586
g68
(g69
g70
NtRp2587
(dp2588
g73
(dp2589
g81
I4
ssg82
g2583
sg75
(lp2590
g111
asbasbasbag68
(g84
g70
NtRp2591
(dp2592
g73
(dp2593
sg82
g1388
sg75
(lp2594
g68
(g89
g70
NtRp2595
(dp2596
g73
(dp2597
g93
g94
ssg82
g2591
sg75
(lp2598
S'wsgi_url_scheme'
p2599
asbag68
(g89
g70
NtRp2600
(dp2601
g73
(dp2602
g100
g101
ssg82
g2591
sg75
(lp2603
S':'
asbag68
(g89
g70
NtRp2604
(dp2605
g73
(dp2606
sg82
g2591
sg75
(lp2607
g68
(g69
g70
NtRp2608
(dp2609
g73
(dp2610
g81
I4
ssg82
g2604
sg75
(lp2611
S'http'
p2612
asbasbasbag68
(g84
g70
NtRp2613
(dp2614
g73
(dp2615
sg82
g1388
sg75
(lp2616
g68
(g89
g70
NtRp2617
(dp2618
g73
(dp2619
g93
g94
ssg82
g2613
sg75
(lp2620
S'wsgi_version'
p2621
asbag68
(g89
g70
NtRp2622
(dp2623
g73
(dp2624
g100
g101
ssg82
g2613
sg75
(lp2625
S':'
asbag68
(g89
g70
NtRp2626
(dp2627
g73
(dp2628
sg82
g2613
sg75
(lp2629
g68
(g69
g70
NtRp2630
(dp2631
g73
(dp2632
g81
I4
ssg82
g2626
sg75
(lp2633
g68
(g77
g70
NtRp2634
(dp2635
g73
(dp2636
g81
I3
ssg82
Nsg75
(lp2637
g68
(g84
g70
NtRp2638
(dp2639
g73
(dp2640
sg82
g2634
sg75
(lp2641
g68
(g89
g70
NtRp2642
(dp2643
g73
(dp2644
sg82
g2638
sg75
(lp2645
g68
(g69
g70
NtRp2646
(dp2647
g73
(dp2648
g81
I3
ssg82
g2642
sg75
(lp2649
S'1'
asbasbasbag68
(g84
g70
NtRp2650
(dp2651
g73
(dp2652
sg82
g2634
sg75
(lp2653
g68
(g89
g70
NtRp2654
(dp2655
g73
(dp2656
sg82
g2650
sg75
(lp2657
g68
(g69
g70
NtRp2658
(dp2659
g73
(dp2660
g81
I3
ssg82
g2654
sg75
(lp2661
S'1'
asbasbasbasbasbasbasbasbasbasbasbag68
(g84
g70
NtRp2662
(dp2663
g73
(dp2664
sg82
g78
sg75
(lp2665
g68
(g89
g70
NtRp2666
(dp2667
g73
(dp2668
g93
g94
ssg82
g2662
sg75
(lp2669
S'extension'
p2670
asbag68
(g89
g70
NtRp2671
(dp2672
g73
(dp2673
g100
g101
ssg82
g2662
sg75
(lp2674
S':'
asbag68
(g89
g70
NtRp2675
(dp2676
g73
(dp2677
sg82
g2662
sg75
(lp2678
g68
(g69
g70
NtRp2679
(dp2680
g73
(dp2681
g81
I5
ssg82
g2675
sg75
(lp2682
S'html'
p2683
asbasbasbag68
(g84
g70
NtRp2684
(dp2685
g73
(dp2686
sg82
g78
sg75
(lp2687
g68
(g89
g70
NtRp2688
(dp2689
g73
(dp2690
g93
g94
ssg82
g2684
sg75
(lp2691
S'folder'
p2692
asbag68
(g89
g70
NtRp2693
(dp2694
g73
(dp2695
g100
g101
ssg82
g2684
sg75
(lp2696
S':'
asbag68
(g89
g70
NtRp2697
(dp2698
g73
(dp2699
sg82
g2684
sg75
(lp2700
g68
(g69
g70
NtRp2701
(dp2702
g73
(dp2703
g81
I5
ssg82
g2697
sg75
(lp2704
S'/Users/emir/Documents/beardcode/web2py/applications/fayol/'
p2705
asbasbasbag68
(g84
g70
NtRp2706
(dp2707
g73
(dp2708
sg82
g78
sg75
(lp2709
g68
(g89
g70
NtRp2710
(dp2711
g73
(dp2712
g93
g94
ssg82
g2706
sg75
(lp2713
S'function'
p2714
asbag68
(g89
g70
NtRp2715
(dp2716
g73
(dp2717
g100
g101
ssg82
g2706
sg75
(lp2718
S':'
asbag68
(g89
g70
NtRp2719
(dp2720
g73
(dp2721
sg82
g2706
sg75
(lp2722
g68
(g69
g70
NtRp2723
(dp2724
g73
(dp2725
g81
I5
ssg82
g2719
sg75
(lp2726
S'index'
p2727
asbasbasbag68
(g84
g70
NtRp2728
(dp2729
g73
(dp2730
sg82
g78
sg75
(lp2731
g68
(g89
g70
NtRp2732
(dp2733
g73
(dp2734
g93
g94
ssg82
g2728
sg75
(lp2735
S'get_vars'
p2736
asbag68
(g89
g70
NtRp2737
(dp2738
g73
(dp2739
g100
g101
ssg82
g2728
sg75
(lp2740
S':'
asbag68
(g89
g70
NtRp2741
(dp2742
g73
(dp2743
sg82
g2728
sg75
(lp2744
g68
(g69
g70
NtRp2745
(dp2746
g73
(dp2747
g81
I5
ssg82
g2741
sg75
(lp2748
g68
(g77
g70
NtRp2749
(dp2750
g73
(dp2751
g81
I4
ssg82
Nsg75
(lp2752
sbasbasbasbag68
(g84
g70
NtRp2753
(dp2754
g73
(dp2755
sg82
g78
sg75
(lp2756
g68
(g89
g70
NtRp2757
(dp2758
g73
(dp2759
g93
g94
ssg82
g2753
sg75
(lp2760
S'global_settings'
p2761
asbag68
(g89
g70
NtRp2762
(dp2763
g73
(dp2764
g100
g101
ssg82
g2753
sg75
(lp2765
S':'
asbag68
(g89
g70
NtRp2766
(dp2767
g73
(dp2768
sg82
g2753
sg75
(lp2769
g68
(g69
g70
NtRp2770
(dp2771
g73
(dp2772
g81
I5
ssg82
g2766
sg75
(lp2773
g68
(g77
g70
NtRp2774
(dp2775
g73
(dp2776
g81
I4
ssg82
Nsg75
(lp2777
g68
(g84
g70
NtRp2778
(dp2779
g73
(dp2780
sg82
g2774
sg75
(lp2781
g68
(g89
g70
NtRp2782
(dp2783
g73
(dp2784
g93
g94
ssg82
g2778
sg75
(lp2785
g1400
asbag68
(g89
g70
NtRp2786
(dp2787
g73
(dp2788
g100
g101
ssg82
g2778
sg75
(lp2789
S':'
asbag68
(g89
g70
NtRp2790
(dp2791
g73
(dp2792
sg82
g2778
sg75
(lp2793
g68
(g69
g70
NtRp2794
(dp2795
g73
(dp2796
g81
I4
ssg82
g2790
sg75
(lp2797
S"set(['/Users/emir/Documents/beardcode/web2py/applications/randomwords/', '/Users/emir/Documents/beardcode/web2py/applications/admin/', '/Users/emir/Documents/beardcode/web2py/applications/fayol/'])"
p2798
asbasbasbag68
(g84
g70
NtRp2799
(dp2800
g73
(dp2801
sg82
g2774
sg75
(lp2802
g68
(g89
g70
NtRp2803
(dp2804
g73
(dp2805
g93
g94
ssg82
g2799
sg75
(lp2806
g1422
asbag68
(g89
g70
NtRp2807
(dp2808
g73
(dp2809
g100
g101
ssg82
g2799
sg75
(lp2810
S':'
asbag68
(g89
g70
NtRp2811
(dp2812
g73
(dp2813
sg82
g2799
sg75
(lp2814
g68
(g69
g70
NtRp2815
(dp2816
g73
(dp2817
g81
I4
ssg82
g2811
sg75
(lp2818
g1435
asbasbasbag68
(g84
g70
NtRp2819
(dp2820
g73
(dp2821
sg82
g2774
sg75
(lp2822
g68
(g89
g70
NtRp2823
(dp2824
g73
(dp2825
g93
g94
ssg82
g2819
sg75
(lp2826
g1444
asbag68
(g89
g70
NtRp2827
(dp2828
g73
(dp2829
g100
g101
ssg82
g2819
sg75
(lp2830
S':'
asbag68
(g89
g70
NtRp2831
(dp2832
g73
(dp2833
sg82
g2819
sg75
(lp2834
g68
(g69
g70
NtRp2835
(dp2836
g73
(dp2837
g81
I4
ssg82
g2831
sg75
(lp2838
S'set([])'
p2839
asbasbasbag68
(g84
g70
NtRp2840
(dp2841
g73
(dp2842
sg82
g2774
sg75
(lp2843
g68
(g89
g70
NtRp2844
(dp2845
g73
(dp2846
g93
g94
ssg82
g2840
sg75
(lp2847
g1466
asbag68
(g89
g70
NtRp2848
(dp2849
g73
(dp2850
g100
g101
ssg82
g2840
sg75
(lp2851
S':'
asbag68
(g89
g70
NtRp2852
(dp2853
g73
(dp2854
sg82
g2840
sg75
(lp2855
g68
(g69
g70
NtRp2856
(dp2857
g73
(dp2858
g81
I4
ssg82
g2852
sg75
(lp2859
g111
asbasbasbag68
(g84
g70
NtRp2860
(dp2861
g73
(dp2862
sg82
g2774
sg75
(lp2863
g68
(g89
g70
NtRp2864
(dp2865
g73
(dp2866
g93
g94
ssg82
g2860
sg75
(lp2867
g1531
asbag68
(g89
g70
NtRp2868
(dp2869
g73
(dp2870
g100
g101
ssg82
g2860
sg75
(lp2871
S':'
asbag68
(g89
g70
NtRp2872
(dp2873
g73
(dp2874
sg82
g2860
sg75
(lp2875
g68
(g69
g70
NtRp2876
(dp2877
g73
(dp2878
g81
I4
ssg82
g2872
sg75
(lp2879
g1435
asbasbasbag68
(g84
g70
NtRp2880
(dp2881
g73
(dp2882
sg82
g2774
sg75
(lp2883
g68
(g89
g70
NtRp2884
(dp2885
g73
(dp2886
g93
g94
ssg82
g2880
sg75
(lp2887
g1728
asbag68
(g89
g70
NtRp2888
(dp2889
g73
(dp2890
g100
g101
ssg82
g2880
sg75
(lp2891
S':'
asbag68
(g89
g70
NtRp2892
(dp2893
g73
(dp2894
sg82
g2880
sg75
(lp2895
g68
(g69
g70
NtRp2896
(dp2897
g73
(dp2898
g81
I4
ssg82
g2892
sg75
(lp2899
g111
asbasbasbag68
(g84
g70
NtRp2900
(dp2901
g73
(dp2902
sg82
g2774
sg75
(lp2903
g68
(g89
g70
NtRp2904
(dp2905
g73
(dp2906
g93
g94
ssg82
g2900
sg75
(lp2907
g1749
asbag68
(g89
g70
NtRp2908
(dp2909
g73
(dp2910
g100
g101
ssg82
g2900
sg75
(lp2911
S':'
asbag68
(g89
g70
NtRp2912
(dp2913
g73
(dp2914
sg82
g2900
sg75
(lp2915
g68
(g69
g70
NtRp2916
(dp2917
g73
(dp2918
g81
I4
ssg82
g2912
sg75
(lp2919
g111
asbasbasbag68
(g84
g70
NtRp2920
(dp2921
g73
(dp2922
sg82
g2774
sg75
(lp2923
g68
(g89
g70
NtRp2924
(dp2925
g73
(dp2926
g93
g94
ssg82
g2920
sg75
(lp2927
g2381
asbag68
(g89
g70
NtRp2928
(dp2929
g73
(dp2930
g100
g101
ssg82
g2920
sg75
(lp2931
S':'
asbag68
(g89
g70
NtRp2932
(dp2933
g73
(dp2934
sg82
g2920
sg75
(lp2935
g68
(g69
g70
NtRp2936
(dp2937
g73
(dp2938
g81
I4
ssg82
g2932
sg75
(lp2939
g68
(g77
g70
NtRp2940
(dp2941
g73
(dp2942
g81
I3
ssg82
Nsg75
(lp2943
g68
(g84
g70
NtRp2944
(dp2945
g73
(dp2946
sg82
g2940
sg75
(lp2947
g68
(g89
g70
NtRp2948
(dp2949
g73
(dp2950
sg82
g2944
sg75
(lp2951
g68
(g69
g70
NtRp2952
(dp2953
g73
(dp2954
g81
I3
ssg82
g2948
sg75
(lp2955
S'1'
asbasbasbag68
(g84
g70
NtRp2956
(dp2957
g73
(dp2958
sg82
g2940
sg75
(lp2959
g68
(g89
g70
NtRp2960
(dp2961
g73
(dp2962
sg82
g2956
sg75
(lp2963
g68
(g69
g70
NtRp2964
(dp2965
g73
(dp2966
g81
I3
ssg82
g2960
sg75
(lp2967
S'99'
p2968
asbasbasbag68
(g84
g70
NtRp2969
(dp2970
g73
(dp2971
sg82
g2940
sg75
(lp2972
g68
(g89
g70
NtRp2973
(dp2974
g73
(dp2975
sg82
g2969
sg75
(lp2976
g68
(g69
g70
NtRp2977
(dp2978
g73
(dp2979
g81
I3
ssg82
g2973
sg75
(lp2980
S'7'
asbasbasbag68
(g84
g70
NtRp2981
(dp2982
g73
(dp2983
sg82
g2940
sg75
(lp2984
g68
(g89
g70
NtRp2985
(dp2986
g73
(dp2987
sg82
g2981
sg75
(lp2988
g68
(g69
g70
NtRp2989
(dp2990
g73
(dp2991
g81
I3
ssg82
g2985
sg75
(lp2992
S'datetime.datetime(2012, 3, 4, 22, 12, 8)'
p2993
asbasbasbag68
(g84
g70
NtRp2994
(dp2995
g73
(dp2996
sg82
g2940
sg75
(lp2997
g68
(g89
g70
NtRp2998
(dp2999
g73
(dp3000
sg82
g2994
sg75
(lp3001
g68
(g69
g70
NtRp3002
(dp3003
g73
(dp3004
g81
I3
ssg82
g2998
sg75
(lp3005
g2460
asbasbasbasbasbasbasbasbasbasbasbag68
(g84
g70
NtRp3006
(dp3007
g73
(dp3008
sg82
g78
sg75
(lp3009
g68
(g89
g70
NtRp3010
(dp3011
g73
(dp3012
g93
g94
ssg82
g3006
sg75
(lp3013
S'is_https'
p3014
asbag68
(g89
g70
NtRp3015
(dp3016
g73
(dp3017
g100
g101
ssg82
g3006
sg75
(lp3018
S':'
asbag68
(g89
g70
NtRp3019
(dp3020
g73
(dp3021
sg82
g3006
sg75
(lp3022
g68
(g69
g70
NtRp3023
(dp3024
g73
(dp3025
g81
I5
ssg82
g3019
sg75
(lp3026
g111
asbasbasbag68
(g84
g70
NtRp3027
(dp3028
g73
(dp3029
sg82
g78
sg75
(lp3030
g68
(g89
g70
NtRp3031
(dp3032
g73
(dp3033
g93
g94
ssg82
g3027
sg75
(lp3034
S'is_local'
p3035
asbag68
(g89
g70
NtRp3036
(dp3037
g73
(dp3038
g100
g101
ssg82
g3027
sg75
(lp3039
S':'
asbag68
(g89
g70
NtRp3040
(dp3041
g73
(dp3042
sg82
g3027
sg75
(lp3043
g68
(g69
g70
NtRp3044
(dp3045
g73
(dp3046
g81
I5
ssg82
g3040
sg75
(lp3047
g2548
asbasbasbag68
(g84
g70
NtRp3048
(dp3049
g73
(dp3050
sg82
g78
sg75
(lp3051
g68
(g89
g70
NtRp3052
(dp3053
g73
(dp3054
g93
g94
ssg82
g3048
sg75
(lp3055
S'is_restful'
p3056
asbag68
(g89
g70
NtRp3057
(dp3058
g73
(dp3059
g100
g101
ssg82
g3048
sg75
(lp3060
S':'
asbag68
(g89
g70
NtRp3061
(dp3062
g73
(dp3063
sg82
g3048
sg75
(lp3064
g68
(g69
g70
NtRp3065
(dp3066
g73
(dp3067
g81
I5
ssg82
g3061
sg75
(lp3068
g111
asbasbasbag68
(g84
g70
NtRp3069
(dp3070
g73
(dp3071
sg82
g78
sg75
(lp3072
g68
(g89
g70
NtRp3073
(dp3074
g73
(dp3075
g93
g94
ssg82
g3069
sg75
(lp3076
S'now'
p3077
asbag68
(g89
g70
NtRp3078
(dp3079
g73
(dp3080
g100
g101
ssg82
g3069
sg75
(lp3081
S':'
asbag68
(g89
g70
NtRp3082
(dp3083
g73
(dp3084
sg82
g3069
sg75
(lp3085
g68
(g69
g70
NtRp3086
(dp3087
g73
(dp3088
g81
I5
ssg82
g3082
sg75
(lp3089
S'datetime.datetime(2012, 8, 13, 13, 37, 1, 346620)'
p3090
asbasbasbag68
(g84
g70
NtRp3091
(dp3092
g73
(dp3093
sg82
g78
sg75
(lp3094
g68
(g89
g70
NtRp3095
(dp3096
g73
(dp3097
g93
g94
ssg82
g3091
sg75
(lp3098
S'post_vars'
p3099
asbag68
(g89
g70
NtRp3100
(dp3101
g73
(dp3102
g100
g101
ssg82
g3091
sg75
(lp3103
S':'
asbag68
(g89
g70
NtRp3104
(dp3105
g73
(dp3106
sg82
g3091
sg75
(lp3107
g68
(g69
g70
NtRp3108
(dp3109
g73
(dp3110
g81
I5
ssg82
g3104
sg75
(lp3111
g68
(g77
g70
NtRp3112
(dp3113
g73
(dp3114
g81
I4
ssg82
Nsg75
(lp3115
sbasbasbasbag68
(g84
g70
NtRp3116
(dp3117
g73
(dp3118
sg82
g78
sg75
(lp3119
g68
(g89
g70
NtRp3120
(dp3121
g73
(dp3122
g93
g94
ssg82
g3116
sg75
(lp3123
S'url'
p3124
asbag68
(g89
g70
NtRp3125
(dp3126
g73
(dp3127
g100
g101
ssg82
g3116
sg75
(lp3128
S':'
asbag68
(g89
g70
NtRp3129
(dp3130
g73
(dp3131
sg82
g3116
sg75
(lp3132
g68
(g69
g70
NtRp3133
(dp3134
g73
(dp3135
g81
I5
ssg82
g3129
sg75
(lp3136
S'/fayol/default/index'
p3137
asbasbasbag68
(g84
g70
NtRp3138
(dp3139
g73
(dp3140
sg82
g78
sg75
(lp3141
g68
(g89
g70
NtRp3142
(dp3143
g73
(dp3144
g93
g94
ssg82
g3138
sg75
(lp3145
S'utcnow'
p3146
asbag68
(g89
g70
NtRp3147
(dp3148
g73
(dp3149
g100
g101
ssg82
g3138
sg75
(lp3150
S':'
asbag68
(g89
g70
NtRp3151
(dp3152
g73
(dp3153
sg82
g3138
sg75
(lp3154
g68
(g69
g70
NtRp3155
(dp3156
g73
(dp3157
g81
I5
ssg82
g3151
sg75
(lp3158
S'datetime.datetime(2012, 8, 13, 18, 37, 1, 346702)'
p3159
asbasbasbag68
(g84
g70
NtRp3160
(dp3161
g73
(dp3162
sg82
g78
sg75
(lp3163
g68
(g89
g70
NtRp3164
(dp3165
g73
(dp3166
g93
g94
ssg82
g3160
sg75
(lp3167
S'uuid'
p3168
asbag68
(g89
g70
NtRp3169
(dp3170
g73
(dp3171
g100
g101
ssg82
g3160
sg75
(lp3172
S':'
asbag68
(g89
g70
NtRp3173
(dp3174
g73
(dp3175
sg82
g3160
sg75
(lp3176
g68
(g69
g70
NtRp3177
(dp3178
g73
(dp3179
g81
I5
ssg82
g3173
sg75
(lp3180
S'fayol/127.0.0.1.2012-08-13.13-37-01.7e95fee1-bcdc-4551-92cd-774caa281649'
p3181
asbasbasbag68
(g84
g70
NtRp3182
(dp3183
g73
(dp3184
sg82
g78
sg75
(lp3185
g68
(g89
g70
NtRp3186
(dp3187
g73
(dp3188
g93
g94
ssg82
g3182
sg75
(lp3189
S'vars'
p3190
asbag68
(g89
g70
NtRp3191
(dp3192
g73
(dp3193
g100
g101
ssg82
g3182
sg75
(lp3194
S':'
asbag68
(g89
g70
NtRp3195
(dp3196
g73
(dp3197
sg82
g3182
sg75
(lp3198
g68
(g69
g70
NtRp3199
(dp3200
g73
(dp3201
g81
I5
ssg82
g3195
sg75
(lp3202
g68
(g77
g70
NtRp3203
(dp3204
g73
(dp3205
g81
I4
ssg82
Nsg75
(lp3206
sbasbasbasbag68
(g84
g70
NtRp3207
(dp3208
g73
(dp3209
sg82
g78
sg75
(lp3210
g68
(g89
g70
NtRp3211
(dp3212
g73
(dp3213
g93
g94
ssg82
g3207
sg75
(lp3214
S'wsgi'
p3215
asbag68
(g89
g70
NtRp3216
(dp3217
g73
(dp3218
g100
g101
ssg82
g3207
sg75
(lp3219
S':'
asbag68
(g89
g70
NtRp3220
(dp3221
g73
(dp3222
sg82
g3207
sg75
(lp3223
g68
(g69
g70
NtRp3224
(dp3225
g73
(dp3226
g81
I5
ssg82
g3220
sg75
(lp3227
g68
(g77
g70
NtRp3228
(dp3229
g73
(dp3230
g81
I4
ssg82
Nsg75
(lp3231
g68
(g84
g70
NtRp3232
(dp3233
g73
(dp3234
sg82
g3228
sg75
(lp3235
g68
(g89
g70
NtRp3236
(dp3237
g73
(dp3238
g93
g94
ssg82
g3232
sg75
(lp3239
S'environ'
p3240
asbag68
(g89
g70
NtRp3241
(dp3242
g73
(dp3243
g100
g101
ssg82
g3232
sg75
(lp3244
S':'
asbag68
(g89
g70
NtRp3245
(dp3246
g73
(dp3247
sg82
g3232
sg75
(lp3248
g68
(g69
g70
NtRp3249
(dp3250
g73
(dp3251
g81
I4
ssg82
g3245
sg75
(lp3252
g68
(g77
g70
NtRp3253
(dp3254
g73
(dp3255
g81
I3
ssg82
Nsg75
(lp3256
g68
(g84
g70
NtRp3257
(dp3258
g73
(dp3259
sg82
g3253
sg75
(lp3260
g68
(g89
g70
NtRp3261
(dp3262
g73
(dp3263
g93
g94
ssg82
g3257
sg75
(lp3264
S'DOCUMENT_ROOT'
p3265
asbag68
(g89
g70
NtRp3266
(dp3267
g73
(dp3268
g100
g101
ssg82
g3257
sg75
(lp3269
S':'
asbag68
(g89
g70
NtRp3270
(dp3271
g73
(dp3272
sg82
g3257
sg75
(lp3273
g68
(g69
g70
NtRp3274
(dp3275
g73
(dp3276
g81
I3
ssg82
g3270
sg75
(lp3277
g1500
asbasbasbag68
(g84
g70
NtRp3278
(dp3279
g73
(dp3280
sg82
g3253
sg75
(lp3281
g68
(g89
g70
NtRp3282
(dp3283
g73
(dp3284
g93
g94
ssg82
g3278
sg75
(lp3285
S'GATEWAY_INTERFACE'
p3286
asbag68
(g89
g70
NtRp3287
(dp3288
g73
(dp3289
g100
g101
ssg82
g3278
sg75
(lp3290
S':'
asbag68
(g89
g70
NtRp3291
(dp3292
g73
(dp3293
sg82
g3278
sg75
(lp3294
g68
(g69
g70
NtRp3295
(dp3296
g73
(dp3297
g81
I3
ssg82
g3291
sg75
(lp3298
g1522
asbasbasbag68
(g84
g70
NtRp3299
(dp3300
g73
(dp3301
sg82
g3253
sg75
(lp3302
g68
(g89
g70
NtRp3303
(dp3304
g73
(dp3305
g93
g94
ssg82
g3299
sg75
(lp3306
S'HTTP_ACCEPT'
p3307
asbag68
(g89
g70
NtRp3308
(dp3309
g73
(dp3310
g100
g101
ssg82
g3299
sg75
(lp3311
S':'
asbag68
(g89
g70
NtRp3312
(dp3313
g73
(dp3314
sg82
g3299
sg75
(lp3315
g68
(g69
g70
NtRp3316
(dp3317
g73
(dp3318
g81
I3
ssg82
g3312
sg75
(lp3319
g1565
asbasbasbag68
(g84
g70
NtRp3320
(dp3321
g73
(dp3322
sg82
g3253
sg75
(lp3323
g68
(g89
g70
NtRp3324
(dp3325
g73
(dp3326
g93
g94
ssg82
g3320
sg75
(lp3327
S'HTTP_ACCEPT_CHARSET'
p3328
asbag68
(g89
g70
NtRp3329
(dp3330
g73
(dp3331
g100
g101
ssg82
g3320
sg75
(lp3332
S':'
asbag68
(g89
g70
NtRp3333
(dp3334
g73
(dp3335
sg82
g3320
sg75
(lp3336
g68
(g69
g70
NtRp3337
(dp3338
g73
(dp3339
g81
I3
ssg82
g3333
sg75
(lp3340
g1587
asbasbasbag68
(g84
g70
NtRp3341
(dp3342
g73
(dp3343
sg82
g3253
sg75
(lp3344
g68
(g89
g70
NtRp3345
(dp3346
g73
(dp3347
g93
g94
ssg82
g3341
sg75
(lp3348
S'HTTP_ACCEPT_ENCODING'
p3349
asbag68
(g89
g70
NtRp3350
(dp3351
g73
(dp3352
g100
g101
ssg82
g3341
sg75
(lp3353
S':'
asbag68
(g89
g70
NtRp3354
(dp3355
g73
(dp3356
sg82
g3341
sg75
(lp3357
g68
(g69
g70
NtRp3358
(dp3359
g73
(dp3360
g81
I3
ssg82
g3354
sg75
(lp3361
g1609
asbasbasbag68
(g84
g70
NtRp3362
(dp3363
g73
(dp3364
sg82
g3253
sg75
(lp3365
g68
(g89
g70
NtRp3366
(dp3367
g73
(dp3368
g93
g94
ssg82
g3362
sg75
(lp3369
S'HTTP_ACCEPT_LANGUAGE'
p3370
asbag68
(g89
g70
NtRp3371
(dp3372
g73
(dp3373
g100
g101
ssg82
g3362
sg75
(lp3374
S':'
asbag68
(g89
g70
NtRp3375
(dp3376
g73
(dp3377
sg82
g3362
sg75
(lp3378
g68
(g69
g70
NtRp3379
(dp3380
g73
(dp3381
g81
I3
ssg82
g3375
sg75
(lp3382
g1631
asbasbasbag68
(g84
g70
NtRp3383
(dp3384
g73
(dp3385
sg82
g3253
sg75
(lp3386
g68
(g89
g70
NtRp3387
(dp3388
g73
(dp3389
g93
g94
ssg82
g3383
sg75
(lp3390
S'HTTP_CONNECTION'
p3391
asbag68
(g89
g70
NtRp3392
(dp3393
g73
(dp3394
g100
g101
ssg82
g3383
sg75
(lp3395
S':'
asbag68
(g89
g70
NtRp3396
(dp3397
g73
(dp3398
sg82
g3383
sg75
(lp3399
g68
(g69
g70
NtRp3400
(dp3401
g73
(dp3402
g81
I3
ssg82
g3396
sg75
(lp3403
g1653
asbasbasbag68
(g84
g70
NtRp3404
(dp3405
g73
(dp3406
sg82
g3253
sg75
(lp3407
g68
(g89
g70
NtRp3408
(dp3409
g73
(dp3410
g93
g94
ssg82
g3404
sg75
(lp3411
S'HTTP_COOKIE'
p3412
asbag68
(g89
g70
NtRp3413
(dp3414
g73
(dp3415
g100
g101
ssg82
g3404
sg75
(lp3416
S':'
asbag68
(g89
g70
NtRp3417
(dp3418
g73
(dp3419
sg82
g3404
sg75
(lp3420
g68
(g69
g70
NtRp3421
(dp3422
g73
(dp3423
g81
I3
ssg82
g3417
sg75
(lp3424
g1675
asbasbasbag68
(g84
g70
NtRp3425
(dp3426
g73
(dp3427
sg82
g3253
sg75
(lp3428
g68
(g89
g70
NtRp3429
(dp3430
g73
(dp3431
g93
g94
ssg82
g3425
sg75
(lp3432
S'HTTP_HOST'
p3433
asbag68
(g89
g70
NtRp3434
(dp3435
g73
(dp3436
g100
g101
ssg82
g3425
sg75
(lp3437
S':'
asbag68
(g89
g70
NtRp3438
(dp3439
g73
(dp3440
sg82
g3425
sg75
(lp3441
g68
(g69
g70
NtRp3442
(dp3443
g73
(dp3444
g81
I3
ssg82
g3438
sg75
(lp3445
g1697
asbasbasbag68
(g84
g70
NtRp3446
(dp3447
g73
(dp3448
sg82
g3253
sg75
(lp3449
g68
(g89
g70
NtRp3450
(dp3451
g73
(dp3452
g93
g94
ssg82
g3446
sg75
(lp3453
S'HTTP_USER_AGENT'
p3454
asbag68
(g89
g70
NtRp3455
(dp3456
g73
(dp3457
g100
g101
ssg82
g3446
sg75
(lp3458
S':'
asbag68
(g89
g70
NtRp3459
(dp3460
g73
(dp3461
sg82
g3446
sg75
(lp3462
g68
(g69
g70
NtRp3463
(dp3464
g73
(dp3465
g81
I3
ssg82
g3459
sg75
(lp3466
g1719
asbasbasbag68
(g84
g70
NtRp3467
(dp3468
g73
(dp3469
sg82
g3253
sg75
(lp3470
g68
(g89
g70
NtRp3471
(dp3472
g73
(dp3473
g93
g94
ssg82
g3467
sg75
(lp3474
S'PATH_INFO'
p3475
asbag68
(g89
g70
NtRp3476
(dp3477
g73
(dp3478
g100
g101
ssg82
g3467
sg75
(lp3479
S':'
asbag68
(g89
g70
NtRp3480
(dp3481
g73
(dp3482
sg82
g3467
sg75
(lp3483
g68
(g69
g70
NtRp3484
(dp3485
g73
(dp3486
g81
I3
ssg82
g3480
sg75
(lp3487
g2025
asbasbasbag68
(g84
g70
NtRp3488
(dp3489
g73
(dp3490
sg82
g3253
sg75
(lp3491
g68
(g89
g70
NtRp3492
(dp3493
g73
(dp3494
g93
g94
ssg82
g3488
sg75
(lp3495
S'PATH_TRANSLATED'
p3496
asbag68
(g89
g70
NtRp3497
(dp3498
g73
(dp3499
g100
g101
ssg82
g3488
sg75
(lp3500
S':'
asbag68
(g89
g70
NtRp3501
(dp3502
g73
(dp3503
sg82
g3488
sg75
(lp3504
g68
(g69
g70
NtRp3505
(dp3506
g73
(dp3507
g81
I3
ssg82
g3501
sg75
(lp3508
g2047
asbasbasbag68
(g84
g70
NtRp3509
(dp3510
g73
(dp3511
sg82
g3253
sg75
(lp3512
g68
(g89
g70
NtRp3513
(dp3514
g73
(dp3515
g93
g94
ssg82
g3509
sg75
(lp3516
S'QUERY_STRING'
p3517
asbag68
(g89
g70
NtRp3518
(dp3519
g73
(dp3520
g100
g101
ssg82
g3509
sg75
(lp3521
S':'
asbag68
(g89
g70
NtRp3522
(dp3523
g73
(dp3524
sg82
g3509
sg75
(lp3525
g68
(g69
g70
NtRp3526
(dp3527
g73
(dp3528
g81
I3
ssg82
g3522
sg75
(lp3529
S''
asbasbasbag68
(g84
g70
NtRp3530
(dp3531
g73
(dp3532
sg82
g3253
sg75
(lp3533
g68
(g89
g70
NtRp3534
(dp3535
g73
(dp3536
g93
g94
ssg82
g3530
sg75
(lp3537
S'REMOTE_ADDR'
p3538
asbag68
(g89
g70
NtRp3539
(dp3540
g73
(dp3541
g100
g101
ssg82
g3530
sg75
(lp3542
S':'
asbag68
(g89
g70
NtRp3543
(dp3544
g73
(dp3545
sg82
g3530
sg75
(lp3546
g68
(g69
g70
NtRp3547
(dp3548
g73
(dp3549
g81
I3
ssg82
g3543
sg75
(lp3550
g201
asbasbasbag68
(g84
g70
NtRp3551
(dp3552
g73
(dp3553
sg82
g3253
sg75
(lp3554
g68
(g89
g70
NtRp3555
(dp3556
g73
(dp3557
g93
g94
ssg82
g3551
sg75
(lp3558
S'REMOTE_PORT'
p3559
asbag68
(g89
g70
NtRp3560
(dp3561
g73
(dp3562
g100
g101
ssg82
g3551
sg75
(lp3563
S':'
asbag68
(g89
g70
NtRp3564
(dp3565
g73
(dp3566
sg82
g3551
sg75
(lp3567
g68
(g69
g70
NtRp3568
(dp3569
g73
(dp3570
g81
I3
ssg82
g3564
sg75
(lp3571
g2111
asbasbasbag68
(g84
g70
NtRp3572
(dp3573
g73
(dp3574
sg82
g3253
sg75
(lp3575
g68
(g89
g70
NtRp3576
(dp3577
g73
(dp3578
g93
g94
ssg82
g3572
sg75
(lp3579
S'REQUEST_METHOD'
p3580
asbag68
(g89
g70
NtRp3581
(dp3582
g73
(dp3583
g100
g101
ssg82
g3572
sg75
(lp3584
S':'
asbag68
(g89
g70
NtRp3585
(dp3586
g73
(dp3587
sg82
g3572
sg75
(lp3588
g68
(g69
g70
NtRp3589
(dp3590
g73
(dp3591
g81
I3
ssg82
g3585
sg75
(lp3592
g2133
asbasbasbag68
(g84
g70
NtRp3593
(dp3594
g73
(dp3595
sg82
g3253
sg75
(lp3596
g68
(g89
g70
NtRp3597
(dp3598
g73
(dp3599
g93
g94
ssg82
g3593
sg75
(lp3600
S'REQUEST_URI'
p3601
asbag68
(g89
g70
NtRp3602
(dp3603
g73
(dp3604
g100
g101
ssg82
g3593
sg75
(lp3605
S':'
asbag68
(g89
g70
NtRp3606
(dp3607
g73
(dp3608
sg82
g3593
sg75
(lp3609
g68
(g69
g70
NtRp3610
(dp3611
g73
(dp3612
g81
I3
ssg82
g3606
sg75
(lp3613
g2155
asbasbasbag68
(g84
g70
NtRp3614
(dp3615
g73
(dp3616
sg82
g3253
sg75
(lp3617
g68
(g89
g70
NtRp3618
(dp3619
g73
(dp3620
g93
g94
ssg82
g3614
sg75
(lp3621
S'SCRIPT_FILENAME'
p3622
asbag68
(g89
g70
NtRp3623
(dp3624
g73
(dp3625
g100
g101
ssg82
g3614
sg75
(lp3626
S':'
asbag68
(g89
g70
NtRp3627
(dp3628
g73
(dp3629
sg82
g3614
sg75
(lp3630
g68
(g69
g70
NtRp3631
(dp3632
g73
(dp3633
g81
I3
ssg82
g3627
sg75
(lp3634
g2177
asbasbasbag68
(g84
g70
NtRp3635
(dp3636
g73
(dp3637
sg82
g3253
sg75
(lp3638
g68
(g89
g70
NtRp3639
(dp3640
g73
(dp3641
g93
g94
ssg82
g3635
sg75
(lp3642
S'SCRIPT_NAME'
p3643
asbag68
(g89
g70
NtRp3644
(dp3645
g73
(dp3646
g100
g101
ssg82
g3635
sg75
(lp3647
S':'
asbag68
(g89
g70
NtRp3648
(dp3649
g73
(dp3650
sg82
g3635
sg75
(lp3651
g68
(g69
g70
NtRp3652
(dp3653
g73
(dp3654
g81
I3
ssg82
g3648
sg75
(lp3655
S''
asbasbasbag68
(g84
g70
NtRp3656
(dp3657
g73
(dp3658
sg82
g3253
sg75
(lp3659
g68
(g89
g70
NtRp3660
(dp3661
g73
(dp3662
g93
g94
ssg82
g3656
sg75
(lp3663
S'SERVER_ADDR'
p3664
asbag68
(g89
g70
NtRp3665
(dp3666
g73
(dp3667
g100
g101
ssg82
g3656
sg75
(lp3668
S':'
asbag68
(g89
g70
NtRp3669
(dp3670
g73
(dp3671
sg82
g3656
sg75
(lp3672
g68
(g69
g70
NtRp3673
(dp3674
g73
(dp3675
g81
I3
ssg82
g3669
sg75
(lp3676
g2220
asbasbasbag68
(g84
g70
NtRp3677
(dp3678
g73
(dp3679
sg82
g3253
sg75
(lp3680
g68
(g89
g70
NtRp3681
(dp3682
g73
(dp3683
g93
g94
ssg82
g3677
sg75
(lp3684
S'SERVER_ADMIN'
p3685
asbag68
(g89
g70
NtRp3686
(dp3687
g73
(dp3688
g100
g101
ssg82
g3677
sg75
(lp3689
S':'
asbag68
(g89
g70
NtRp3690
(dp3691
g73
(dp3692
sg82
g3677
sg75
(lp3693
g68
(g69
g70
NtRp3694
(dp3695
g73
(dp3696
g81
I3
ssg82
g3690
sg75
(lp3697
g2242
asbasbasbag68
(g84
g70
NtRp3698
(dp3699
g73
(dp3700
sg82
g3253
sg75
(lp3701
g68
(g89
g70
NtRp3702
(dp3703
g73
(dp3704
g93
g94
ssg82
g3698
sg75
(lp3705
S'SERVER_NAME'
p3706
asbag68
(g89
g70
NtRp3707
(dp3708
g73
(dp3709
g100
g101
ssg82
g3698
sg75
(lp3710
S':'
asbag68
(g89
g70
NtRp3711
(dp3712
g73
(dp3713
sg82
g3698
sg75
(lp3714
g68
(g69
g70
NtRp3715
(dp3716
g73
(dp3717
g81
I3
ssg82
g3711
sg75
(lp3718
g2264
asbasbasbag68
(g84
g70
NtRp3719
(dp3720
g73
(dp3721
sg82
g3253
sg75
(lp3722
g68
(g89
g70
NtRp3723
(dp3724
g73
(dp3725
g93
g94
ssg82
g3719
sg75
(lp3726
S'SERVER_PORT'
p3727
asbag68
(g89
g70
NtRp3728
(dp3729
g73
(dp3730
g100
g101
ssg82
g3719
sg75
(lp3731
S':'
asbag68
(g89
g70
NtRp3732
(dp3733
g73
(dp3734
sg82
g3719
sg75
(lp3735
g68
(g69
g70
NtRp3736
(dp3737
g73
(dp3738
g81
I3
ssg82
g3732
sg75
(lp3739
g2286
asbasbasbag68
(g84
g70
NtRp3740
(dp3741
g73
(dp3742
sg82
g3253
sg75
(lp3743
g68
(g89
g70
NtRp3744
(dp3745
g73
(dp3746
g93
g94
ssg82
g3740
sg75
(lp3747
S'SERVER_PROTOCOL'
p3748
asbag68
(g89
g70
NtRp3749
(dp3750
g73
(dp3751
g100
g101
ssg82
g3740
sg75
(lp3752
S':'
asbag68
(g89
g70
NtRp3753
(dp3754
g73
(dp3755
sg82
g3740
sg75
(lp3756
g68
(g69
g70
NtRp3757
(dp3758
g73
(dp3759
g81
I3
ssg82
g3753
sg75
(lp3760
g2308
asbasbasbag68
(g84
g70
NtRp3761
(dp3762
g73
(dp3763
sg82
g3253
sg75
(lp3764
g68
(g89
g70
NtRp3765
(dp3766
g73
(dp3767
g93
g94
ssg82
g3761
sg75
(lp3768
S'SERVER_SIGNATURE'
p3769
asbag68
(g89
g70
NtRp3770
(dp3771
g73
(dp3772
g100
g101
ssg82
g3761
sg75
(lp3773
S':'
asbag68
(g89
g70
NtRp3774
(dp3775
g73
(dp3776
sg82
g3761
sg75
(lp3777
g68
(g69
g70
NtRp3778
(dp3779
g73
(dp3780
g81
I3
ssg82
g3774
sg75
(lp3781
S''
asbasbasbag68
(g84
g70
NtRp3782
(dp3783
g73
(dp3784
sg82
g3253
sg75
(lp3785
g68
(g89
g70
NtRp3786
(dp3787
g73
(dp3788
g93
g94
ssg82
g3782
sg75
(lp3789
S'SERVER_SOFTWARE'
p3790
asbag68
(g89
g70
NtRp3791
(dp3792
g73
(dp3793
g100
g101
ssg82
g3782
sg75
(lp3794
S':'
asbag68
(g89
g70
NtRp3795
(dp3796
g73
(dp3797
sg82
g3782
sg75
(lp3798
g68
(g69
g70
NtRp3799
(dp3800
g73
(dp3801
g81
I3
ssg82
g3795
sg75
(lp3802
g2351
asbasbasbag68
(g84
g70
NtRp3803
(dp3804
g73
(dp3805
sg82
g3253
sg75
(lp3806
g68
(g89
g70
NtRp3807
(dp3808
g73
(dp3809
g93
g94
ssg82
g3803
sg75
(lp3810
S'mod_wsgi.application_group'
p3811
asbag68
(g89
g70
NtRp3812
(dp3813
g73
(dp3814
g100
g101
ssg82
g3803
sg75
(lp3815
S':'
asbag68
(g89
g70
NtRp3816
(dp3817
g73
(dp3818
sg82
g3803
sg75
(lp3819
g68
(g69
g70
NtRp3820
(dp3821
g73
(dp3822
g81
I3
ssg82
g3816
sg75
(lp3823
g1783
asbasbasbag68
(g84
g70
NtRp3824
(dp3825
g73
(dp3826
sg82
g3253
sg75
(lp3827
g68
(g89
g70
NtRp3828
(dp3829
g73
(dp3830
g93
g94
ssg82
g3824
sg75
(lp3831
S'mod_wsgi.callable_object'
p3832
asbag68
(g89
g70
NtRp3833
(dp3834
g73
(dp3835
g100
g101
ssg82
g3824
sg75
(lp3836
S':'
asbag68
(g89
g70
NtRp3837
(dp3838
g73
(dp3839
sg82
g3824
sg75
(lp3840
g68
(g69
g70
NtRp3841
(dp3842
g73
(dp3843
g81
I3
ssg82
g3837
sg75
(lp3844
g1805
asbasbasbag68
(g84
g70
NtRp3845
(dp3846
g73
(dp3847
sg82
g3253
sg75
(lp3848
g68
(g89
g70
NtRp3849
(dp3850
g73
(dp3851
g93
g94
ssg82
g3845
sg75
(lp3852
S'mod_wsgi.handler_script'
p3853
asbag68
(g89
g70
NtRp3854
(dp3855
g73
(dp3856
g100
g101
ssg82
g3845
sg75
(lp3857
S':'
asbag68
(g89
g70
NtRp3858
(dp3859
g73
(dp3860
sg82
g3845
sg75
(lp3861
g68
(g69
g70
NtRp3862
(dp3863
g73
(dp3864
g81
I3
ssg82
g3858
sg75
(lp3865
S''
asbasbasbag68
(g84
g70
NtRp3866
(dp3867
g73
(dp3868
sg82
g3253
sg75
(lp3869
g68
(g89
g70
NtRp3870
(dp3871
g73
(dp3872
g93
g94
ssg82
g3866
sg75
(lp3873
S'mod_wsgi.input_chunked'
p3874
asbag68
(g89
g70
NtRp3875
(dp3876
g73
(dp3877
g100
g101
ssg82
g3866
sg75
(lp3878
S':'
asbag68
(g89
g70
NtRp3879
(dp3880
g73
(dp3881
sg82
g3866
sg75
(lp3882
g68
(g69
g70
NtRp3883
(dp3884
g73
(dp3885
g81
I3
ssg82
g3879
sg75
(lp3886
S'0'
asbasbasbag68
(g84
g70
NtRp3887
(dp3888
g73
(dp3889
sg82
g3253
sg75
(lp3890
g68
(g89
g70
NtRp3891
(dp3892
g73
(dp3893
g93
g94
ssg82
g3887
sg75
(lp3894
S'mod_wsgi.listener_host'
p3895
asbag68
(g89
g70
NtRp3896
(dp3897
g73
(dp3898
g100
g101
ssg82
g3887
sg75
(lp3899
S':'
asbag68
(g89
g70
NtRp3900
(dp3901
g73
(dp3902
sg82
g3887
sg75
(lp3903
g68
(g69
g70
NtRp3904
(dp3905
g73
(dp3906
g81
I3
ssg82
g3900
sg75
(lp3907
S''
asbasbasbag68
(g84
g70
NtRp3908
(dp3909
g73
(dp3910
sg82
g3253
sg75
(lp3911
g68
(g89
g70
NtRp3912
(dp3913
g73
(dp3914
g93
g94
ssg82
g3908
sg75
(lp3915
S'mod_wsgi.listener_port'
p3916
asbag68
(g89
g70
NtRp3917
(dp3918
g73
(dp3919
g100
g101
ssg82
g3908
sg75
(lp3920
S':'
asbag68
(g89
g70
NtRp3921
(dp3922
g73
(dp3923
sg82
g3908
sg75
(lp3924
g68
(g69
g70
NtRp3925
(dp3926
g73
(dp3927
g81
I3
ssg82
g3921
sg75
(lp3928
g1890
asbasbasbag68
(g84
g70
NtRp3929
(dp3930
g73
(dp3931
sg82
g3253
sg75
(lp3932
g68
(g89
g70
NtRp3933
(dp3934
g73
(dp3935
g93
g94
ssg82
g3929
sg75
(lp3936
S'mod_wsgi.process_group'
p3937
asbag68
(g89
g70
NtRp3938
(dp3939
g73
(dp3940
g100
g101
ssg82
g3929
sg75
(lp3941
S':'
asbag68
(g89
g70
NtRp3942
(dp3943
g73
(dp3944
sg82
g3929
sg75
(lp3945
g68
(g69
g70
NtRp3946
(dp3947
g73
(dp3948
g81
I3
ssg82
g3942
sg75
(lp3949
S''
asbasbasbag68
(g84
g70
NtRp3950
(dp3951
g73
(dp3952
sg82
g3253
sg75
(lp3953
g68
(g89
g70
NtRp3954
(dp3955
g73
(dp3956
g93
g94
ssg82
g3950
sg75
(lp3957
S'mod_wsgi.request_handler'
p3958
asbag68
(g89
g70
NtRp3959
(dp3960
g73
(dp3961
g100
g101
ssg82
g3950
sg75
(lp3962
S':'
asbag68
(g89
g70
NtRp3963
(dp3964
g73
(dp3965
sg82
g3950
sg75
(lp3966
g68
(g69
g70
NtRp3967
(dp3968
g73
(dp3969
g81
I3
ssg82
g3963
sg75
(lp3970
g1933
asbasbasbag68
(g84
g70
NtRp3971
(dp3972
g73
(dp3973
sg82
g3253
sg75
(lp3974
g68
(g89
g70
NtRp3975
(dp3976
g73
(dp3977
g93
g94
ssg82
g3971
sg75
(lp3978
S'mod_wsgi.script_reloading'
p3979
asbag68
(g89
g70
NtRp3980
(dp3981
g73
(dp3982
g100
g101
ssg82
g3971
sg75
(lp3983
S':'
asbag68
(g89
g70
NtRp3984
(dp3985
g73
(dp3986
sg82
g3971
sg75
(lp3987
g68
(g69
g70
NtRp3988
(dp3989
g73
(dp3990
g81
I3
ssg82
g3984
sg75
(lp3991
S'1'
asbasbasbag68
(g84
g70
NtRp3992
(dp3993
g73
(dp3994
sg82
g3253
sg75
(lp3995
g68
(g89
g70
NtRp3996
(dp3997
g73
(dp3998
g93
g94
ssg82
g3992
sg75
(lp3999
S'mod_wsgi.version'
p4000
asbag68
(g89
g70
NtRp4001
(dp4002
g73
(dp4003
g100
g101
ssg82
g3992
sg75
(lp4004
S':'
asbag68
(g89
g70
NtRp4005
(dp4006
g73
(dp4007
sg82
g3992
sg75
(lp4008
g68
(g69
g70
NtRp4009
(dp4010
g73
(dp4011
g81
I3
ssg82
g4005
sg75
(lp4012
g68
(g77
g70
NtRp4013
(dp4014
g73
(dp4015
g81
I2
ssg82
Nsg75
(lp4016
g68
(g84
g70
NtRp4017
(dp4018
g73
(dp4019
sg82
g4013
sg75
(lp4020
g68
(g89
g70
NtRp4021
(dp4022
g73
(dp4023
sg82
g4017
sg75
(lp4024
g68
(g69
g70
NtRp4025
(dp4026
g73
(dp4027
g81
I2
ssg82
g4021
sg75
(lp4028
S'3'
asbasbasbag68
(g84
g70
NtRp4029
(dp4030
g73
(dp4031
sg82
g4013
sg75
(lp4032
g68
(g89
g70
NtRp4033
(dp4034
g73
(dp4035
sg82
g4029
sg75
(lp4036
g68
(g69
g70
NtRp4037
(dp4038
g73
(dp4039
g81
I2
ssg82
g4033
sg75
(lp4040
S'3'
asbasbasbasbasbasbasbag68
(g84
g70
NtRp4041
(dp4042
g73
(dp4043
sg82
g3253
sg75
(lp4044
g68
(g89
g70
NtRp4045
(dp4046
g73
(dp4047
g93
g94
ssg82
g4041
sg75
(lp4048
S'wsgi.errors'
p4049
asbag68
(g89
g70
NtRp4050
(dp4051
g73
(dp4052
g100
g101
ssg82
g4041
sg75
(lp4053
S':'
asbag68
(g89
g70
NtRp4054
(dp4055
g73
(dp4056
sg82
g4041
sg75
(lp4057
g68
(g69
g70
NtRp4058
(dp4059
g73
(dp4060
g81
I3
ssg82
g4054
sg75
(lp4061
S'<mod_wsgi.Log object at 0x10491feb0>'
p4062
asbasbasbag68
(g84
g70
NtRp4063
(dp4064
g73
(dp4065
sg82
g3253
sg75
(lp4066
g68
(g89
g70
NtRp4067
(dp4068
g73
(dp4069
g93
g94
ssg82
g4063
sg75
(lp4070
S'wsgi.file_wrapper'
p4071
asbag68
(g89
g70
NtRp4072
(dp4073
g73
(dp4074
g100
g101
ssg82
g4063
sg75
(lp4075
S':'
asbag68
(g89
g70
NtRp4076
(dp4077
g73
(dp4078
sg82
g4063
sg75
(lp4079
g68
(g69
g70
NtRp4080
(dp4081
g73
(dp4082
g81
I3
ssg82
g4076
sg75
(lp4083
S'<built-in method file_wrapper of mod_wsgi.Adapter object at 0x104971030>'
p4084
asbasbasbag68
(g84
g70
NtRp4085
(dp4086
g73
(dp4087
sg82
g3253
sg75
(lp4088
g68
(g89
g70
NtRp4089
(dp4090
g73
(dp4091
g93
g94
ssg82
g4085
sg75
(lp4092
S'wsgi.input'
p4093
asbag68
(g89
g70
NtRp4094
(dp4095
g73
(dp4096
g100
g101
ssg82
g4085
sg75
(lp4097
S':'
asbag68
(g89
g70
NtRp4098
(dp4099
g73
(dp4100
sg82
g4085
sg75
(lp4101
g68
(g69
g70
NtRp4102
(dp4103
g73
(dp4104
g81
I3
ssg82
g4098
sg75
(lp4105
S'<cStringIO.StringO object at 0x1049a60a0>'
p4106
asbasbasbag68
(g84
g70
NtRp4107
(dp4108
g73
(dp4109
sg82
g3253
sg75
(lp4110
g68
(g89
g70
NtRp4111
(dp4112
g73
(dp4113
g93
g94
ssg82
g4107
sg75
(lp4114
S'wsgi.multiprocess'
p4115
asbag68
(g89
g70
NtRp4116
(dp4117
g73
(dp4118
g100
g101
ssg82
g4107
sg75
(lp4119
S':'
asbag68
(g89
g70
NtRp4120
(dp4121
g73
(dp4122
sg82
g4107
sg75
(lp4123
g68
(g69
g70
NtRp4124
(dp4125
g73
(dp4126
g81
I3
ssg82
g4120
sg75
(lp4127
g2548
asbasbasbag68
(g84
g70
NtRp4128
(dp4129
g73
(dp4130
sg82
g3253
sg75
(lp4131
g68
(g89
g70
NtRp4132
(dp4133
g73
(dp4134
g93
g94
ssg82
g4128
sg75
(lp4135
S'wsgi.multithread'
p4136
asbag68
(g89
g70
NtRp4137
(dp4138
g73
(dp4139
g100
g101
ssg82
g4128
sg75
(lp4140
S':'
asbag68
(g89
g70
NtRp4141
(dp4142
g73
(dp4143
sg82
g4128
sg75
(lp4144
g68
(g69
g70
NtRp4145
(dp4146
g73
(dp4147
g81
I3
ssg82
g4141
sg75
(lp4148
g111
asbasbasbag68
(g84
g70
NtRp4149
(dp4150
g73
(dp4151
sg82
g3253
sg75
(lp4152
g68
(g89
g70
NtRp4153
(dp4154
g73
(dp4155
g93
g94
ssg82
g4149
sg75
(lp4156
S'wsgi.run_once'
p4157
asbag68
(g89
g70
NtRp4158
(dp4159
g73
(dp4160
g100
g101
ssg82
g4149
sg75
(lp4161
S':'
asbag68
(g89
g70
NtRp4162
(dp4163
g73
(dp4164
sg82
g4149
sg75
(lp4165
g68
(g69
g70
NtRp4166
(dp4167
g73
(dp4168
g81
I3
ssg82
g4162
sg75
(lp4169
g111
asbasbasbag68
(g84
g70
NtRp4170
(dp4171
g73
(dp4172
sg82
g3253
sg75
(lp4173
g68
(g89
g70
NtRp4174
(dp4175
g73
(dp4176
g93
g94
ssg82
g4170
sg75
(lp4177
S'wsgi.url_scheme'
p4178
asbag68
(g89
g70
NtRp4179
(dp4180
g73
(dp4181
g100
g101
ssg82
g4170
sg75
(lp4182
S':'
asbag68
(g89
g70
NtRp4183
(dp4184
g73
(dp4185
sg82
g4170
sg75
(lp4186
g68
(g69
g70
NtRp4187
(dp4188
g73
(dp4189
g81
I3
ssg82
g4183
sg75
(lp4190
g2612
asbasbasbag68
(g84
g70
NtRp4191
(dp4192
g73
(dp4193
sg82
g3253
sg75
(lp4194
g68
(g89
g70
NtRp4195
(dp4196
g73
(dp4197
g93
g94
ssg82
g4191
sg75
(lp4198
S'wsgi.version'
p4199
asbag68
(g89
g70
NtRp4200
(dp4201
g73
(dp4202
g100
g101
ssg82
g4191
sg75
(lp4203
S':'
asbag68
(g89
g70
NtRp4204
(dp4205
g73
(dp4206
sg82
g4191
sg75
(lp4207
g68
(g69
g70
NtRp4208
(dp4209
g73
(dp4210
g81
I3
ssg82
g4204
sg75
(lp4211
S'1'
asbasbasbasbasbasbasbasbasbasbasbasbasbsS'frames'
p4212
(lp4213
(dp4214
S'file'
p4215
S'/Users/emir/Documents/beardcode/web2py/gluon/restricted.py'
p4216
sS'dump'
p4217
(dp4218
S'code'
p4219
S"'# -*- coding: utf-8 -*-\\nfrom datetime import dat... dict()\\n\\n\\nresponse._vars=response._caller(index)\\n'"
p4220
sS'layer'
p4221
S"'/Users/emir/Documents/beardcode/web2py/applications/fayol/controllers/default.py'"
p4222
sS'global compile2'
p4223
S'<function compile2>'
p4224
sS'ccode'
p4225
S'undefined'
p4226
ssS'lnum'
p4227
I204
sS'lines'
p4228
(dp4229
I199
S"    environment['__name__'] = '__restricted__'"
p4230
sI200
S'    try:'
p4231
sI201
S'        if type(code) == types.CodeType:'
p4232
sI202
S'            ccode = code'
p4233
sI203
S'        else:'
p4234
sI204
S'            ccode = compile2(code,layer)'
p4235
sI205
S'        exec ccode in environment'
p4236
sI206
S'    except HTTP:'
p4237
sI207
S'        raise'
p4238
sI208
S'    except RestrictedError:'
p4239
ssS'call'
p4240
S"(code='# -*- coding: utf-8 -*-\\nfrom datetime import dat... dict()\\n\\n\\nresponse._vars=response._caller(index)\\n', environment={'A': <class 'gluon.html.A'>, 'B': <class 'gluon.html.B'>, 'BEAUTIFY': <class 'gluon.html.BEAUTIFY'>, 'BODY': <class 'gluon.html.BODY'>, 'BR': <class 'gluon.html.BR'>, 'BUTTON': <class 'gluon.html.BUTTON'>, 'CAT': <class 'gluon.html.CAT'>, 'CENTER': <class 'gluon.html.CENTER'>, 'CLEANUP': <class 'gluon.validators.CLEANUP'>, 'CODE': <class 'gluon.html.CODE'>, ...}, layer='/Users/emir/Documents/beardcode/web2py/applications/fayol/controllers/default.py')"
p4241
sS'func'
p4242
S'restricted'
p4243
sa(dp4244
g4215
S'/Users/emir/Documents/beardcode/web2py/gluon/restricted.py'
p4245
sg4217
(dp4246
S'builtincompile'
p4247
S'<built-in function compile>'
p4248
sS'code'
p4249
S"'# -*- coding: utf-8 -*-\\nfrom datetime import dat... dict()\\n\\n\\nresponse._vars=response._caller(index)\\n'"
p4250
sS'code.rstrip'
p4251
S'<built-in method rstrip of str object>'
p4252
sS').replace'
p4253
g4226
sS'layer'
p4254
S"'/Users/emir/Documents/beardcode/web2py/applications/fayol/controllers/default.py'"
p4255
ssg4227
I189
sg4228
(dp4256
I192
S'    """'
p4257
sI193
S'    runs code in environment and returns the output. if an exception occurs'
p4258
sI184
S''
sI185
S'def compile2(code,layer):'
p4259
sI186
S'    """'
p4260
sI187
S"    The +'\\n' is necessary else compile fails when code ends in a comment."
p4261
sI188
S'    """'
p4262
sI189
S"    return compile(code.rstrip().replace('\\r\\n','\\n')+'\\n', layer, 'exec')"
p4263
sI190
S''
sI191
S"def restricted(code, environment=None, layer='Unknown'):"
p4264
ssg4240
S"(code='# -*- coding: utf-8 -*-\\nfrom datetime import dat... dict()\\n\\n\\nresponse._vars=response._caller(index)\\n', layer='/Users/emir/Documents/beardcode/web2py/applications/fayol/controllers/default.py')"
p4265
sg4242
S'compile2'
p4266
sasS'pyver'
p4267
S'Python 2.6.7: /usr/bin/python'
p4268
sS'session'
p4269
g68
(g69
g70
NtRp4270
(dp4271
g73
(dp4272
sg75
(lp4273
g68
(g77
g70
NtRp4274
(dp4275
g73
(dp4276
g81
I5
ssg82
Nsg75
(lp4277
sbasbsS'etype'
p4278
S"<type 'exceptions.IndentationError'>"
p4279
sS'date'
p4280
S'Mon Aug 13 13:37:01 2012'
p4281
sS'response'
p4282
g68
(g69
g70
NtRp4283
(dp4284
g73
(dp4285
sg75
(lp4286
g68
(g77
g70
NtRp4287
(dp4288
g73
(dp4289
g81
I5
ssg82
Nsg75
(lp4290
g68
(g84
g70
NtRp4291
(dp4292
g73
(dp4293
sg82
g4287
sg75
(lp4294
g68
(g89
g70
NtRp4295
(dp4296
g73
(dp4297
g93
g94
ssg82
g4291
sg75
(lp4298
g166
asbag68
(g89
g70
NtRp4299
(dp4300
g73
(dp4301
g100
g101
ssg82
g4291
sg75
(lp4302
S':'
asbag68
(g89
g70
NtRp4303
(dp4304
g73
(dp4305
sg82
g4291
sg75
(lp4306
g68
(g69
g70
NtRp4307
(dp4308
g73
(dp4309
g81
I5
ssg82
g4303
sg75
(lp4310
S'<cStringIO.StringO object at 0x10492d3e8>'
p4311
asbasbasbag68
(g84
g70
NtRp4312
(dp4313
g73
(dp4314
sg82
g4287
sg75
(lp4315
g68
(g89
g70
NtRp4316
(dp4317
g73
(dp4318
g93
g94
ssg82
g4312
sg75
(lp4319
g232
asbag68
(g89
g70
NtRp4320
(dp4321
g73
(dp4322
g100
g101
ssg82
g4312
sg75
(lp4323
S':'
asbag68
(g89
g70
NtRp4324
(dp4325
g73
(dp4326
sg82
g4312
sg75
(lp4327
g68
(g69
g70
NtRp4328
(dp4329
g73
(dp4330
g81
I5
ssg82
g4324
sg75
(lp4331
g68
(g77
g70
NtRp4332
(dp4333
g73
(dp4334
g81
I4
ssg82
Nsg75
(lp4335
g68
(g84
g70
NtRp4336
(dp4337
g73
(dp4338
sg82
g4332
sg75
(lp4339
g68
(g89
g70
NtRp4340
(dp4341
g73
(dp4342
g93
g94
ssg82
g4336
sg75
(lp4343
S'session_id_fayol'
p4344
asbag68
(g89
g70
NtRp4345
(dp4346
g73
(dp4347
g100
g101
ssg82
g4336
sg75
(lp4348
S':'
asbag68
(g89
g70
NtRp4349
(dp4350
g73
(dp4351
sg82
g4336
sg75
(lp4352
g68
(g69
g70
NtRp4353
(dp4354
g73
(dp4355
g81
I4
ssg82
g4349
sg75
(lp4356
g68
(g77
g70
NtRp4357
(dp4358
g73
(dp4359
g81
I3
ssg82
Nsg75
(lp4360
g68
(g84
g70
NtRp4361
(dp4362
g73
(dp4363
sg82
g4357
sg75
(lp4364
g68
(g89
g70
NtRp4365
(dp4366
g73
(dp4367
g93
g94
ssg82
g4361
sg75
(lp4368
g282
asbag68
(g89
g70
NtRp4369
(dp4370
g73
(dp4371
g100
g101
ssg82
g4361
sg75
(lp4372
S':'
asbag68
(g89
g70
NtRp4373
(dp4374
g73
(dp4375
sg82
g4361
sg75
(lp4376
g68
(g69
g70
NtRp4377
(dp4378
g73
(dp4379
g81
I3
ssg82
g4373
sg75
(lp4380
S''
asbasbasbag68
(g84
g70
NtRp4381
(dp4382
g73
(dp4383
sg82
g4357
sg75
(lp4384
g68
(g89
g70
NtRp4385
(dp4386
g73
(dp4387
g93
g94
ssg82
g4381
sg75
(lp4388
g303
asbag68
(g89
g70
NtRp4389
(dp4390
g73
(dp4391
g100
g101
ssg82
g4381
sg75
(lp4392
S':'
asbag68
(g89
g70
NtRp4393
(dp4394
g73
(dp4395
sg82
g4381
sg75
(lp4396
g68
(g69
g70
NtRp4397
(dp4398
g73
(dp4399
g81
I3
ssg82
g4393
sg75
(lp4400
S''
asbasbasbag68
(g84
g70
NtRp4401
(dp4402
g73
(dp4403
sg82
g4357
sg75
(lp4404
g68
(g89
g70
NtRp4405
(dp4406
g73
(dp4407
g93
g94
ssg82
g4401
sg75
(lp4408
g324
asbag68
(g89
g70
NtRp4409
(dp4410
g73
(dp4411
g100
g101
ssg82
g4401
sg75
(lp4412
S':'
asbag68
(g89
g70
NtRp4413
(dp4414
g73
(dp4415
sg82
g4401
sg75
(lp4416
g68
(g69
g70
NtRp4417
(dp4418
g73
(dp4419
g81
I3
ssg82
g4413
sg75
(lp4420
S''
asbasbasbag68
(g84
g70
NtRp4421
(dp4422
g73
(dp4423
sg82
g4357
sg75
(lp4424
g68
(g89
g70
NtRp4425
(dp4426
g73
(dp4427
g93
g94
ssg82
g4421
sg75
(lp4428
g345
asbag68
(g89
g70
NtRp4429
(dp4430
g73
(dp4431
g100
g101
ssg82
g4421
sg75
(lp4432
S':'
asbag68
(g89
g70
NtRp4433
(dp4434
g73
(dp4435
sg82
g4421
sg75
(lp4436
g68
(g69
g70
NtRp4437
(dp4438
g73
(dp4439
g81
I3
ssg82
g4433
sg75
(lp4440
S''
asbasbasbag68
(g84
g70
NtRp4441
(dp4442
g73
(dp4443
sg82
g4357
sg75
(lp4444
g68
(g89
g70
NtRp4445
(dp4446
g73
(dp4447
g93
g94
ssg82
g4441
sg75
(lp4448
g366
asbag68
(g89
g70
NtRp4449
(dp4450
g73
(dp4451
g100
g101
ssg82
g4441
sg75
(lp4452
S':'
asbag68
(g89
g70
NtRp4453
(dp4454
g73
(dp4455
sg82
g4441
sg75
(lp4456
g68
(g69
g70
NtRp4457
(dp4458
g73
(dp4459
g81
I3
ssg82
g4453
sg75
(lp4460
S''
asbasbasbag68
(g84
g70
NtRp4461
(dp4462
g73
(dp4463
sg82
g4357
sg75
(lp4464
g68
(g89
g70
NtRp4465
(dp4466
g73
(dp4467
g93
g94
ssg82
g4461
sg75
(lp4468
g387
asbag68
(g89
g70
NtRp4469
(dp4470
g73
(dp4471
g100
g101
ssg82
g4461
sg75
(lp4472
S':'
asbag68
(g89
g70
NtRp4473
(dp4474
g73
(dp4475
sg82
g4461
sg75
(lp4476
g68
(g69
g70
NtRp4477
(dp4478
g73
(dp4479
g81
I3
ssg82
g4473
sg75
(lp4480
S'/'
asbasbasbag68
(g84
g70
NtRp4481
(dp4482
g73
(dp4483
sg82
g4357
sg75
(lp4484
g68
(g89
g70
NtRp4485
(dp4486
g73
(dp4487
g93
g94
ssg82
g4481
sg75
(lp4488
g408
asbag68
(g89
g70
NtRp4489
(dp4490
g73
(dp4491
g100
g101
ssg82
g4481
sg75
(lp4492
S':'
asbag68
(g89
g70
NtRp4493
(dp4494
g73
(dp4495
sg82
g4481
sg75
(lp4496
g68
(g69
g70
NtRp4497
(dp4498
g73
(dp4499
g81
I3
ssg82
g4493
sg75
(lp4500
S''
asbasbasbag68
(g84
g70
NtRp4501
(dp4502
g73
(dp4503
sg82
g4357
sg75
(lp4504
g68
(g89
g70
NtRp4505
(dp4506
g73
(dp4507
g93
g94
ssg82
g4501
sg75
(lp4508
g429
asbag68
(g89
g70
NtRp4509
(dp4510
g73
(dp4511
g100
g101
ssg82
g4501
sg75
(lp4512
S':'
asbag68
(g89
g70
NtRp4513
(dp4514
g73
(dp4515
sg82
g4501
sg75
(lp4516
g68
(g69
g70
NtRp4517
(dp4518
g73
(dp4519
g81
I3
ssg82
g4513
sg75
(lp4520
S''
asbasbasbasbasbasbasbasbasbasbasbag68
(g84
g70
NtRp4521
(dp4522
g73
(dp4523
sg82
g4287
sg75
(lp4524
g68
(g89
g70
NtRp4525
(dp4526
g73
(dp4527
g93
g94
ssg82
g4521
sg75
(lp4528
S'delimiters'
p4529
asbag68
(g89
g70
NtRp4530
(dp4531
g73
(dp4532
g100
g101
ssg82
g4521
sg75
(lp4533
S':'
asbag68
(g89
g70
NtRp4534
(dp4535
g73
(dp4536
sg82
g4521
sg75
(lp4537
g68
(g69
g70
NtRp4538
(dp4539
g73
(dp4540
g81
I5
ssg82
g4534
sg75
(lp4541
g68
(g77
g70
NtRp4542
(dp4543
g73
(dp4544
g81
I4
ssg82
Nsg75
(lp4545
g68
(g84
g70
NtRp4546
(dp4547
g73
(dp4548
sg82
g4542
sg75
(lp4549
g68
(g89
g70
NtRp4550
(dp4551
g73
(dp4552
sg82
g4546
sg75
(lp4553
g68
(g69
g70
NtRp4554
(dp4555
g73
(dp4556
g81
I4
ssg82
g4550
sg75
(lp4557
S'{{'
p4558
asbasbasbag68
(g84
g70
NtRp4559
(dp4560
g73
(dp4561
sg82
g4542
sg75
(lp4562
g68
(g89
g70
NtRp4563
(dp4564
g73
(dp4565
sg82
g4559
sg75
(lp4566
g68
(g69
g70
NtRp4567
(dp4568
g73
(dp4569
g81
I4
ssg82
g4563
sg75
(lp4570
S'}}'
p4571
asbasbasbasbasbasbasbag68
(g84
g70
NtRp4572
(dp4573
g73
(dp4574
sg82
g4287
sg75
(lp4575
g68
(g89
g70
NtRp4576
(dp4577
g73
(dp4578
g93
g94
ssg82
g4572
sg75
(lp4579
S'files'
p4580
asbag68
(g89
g70
NtRp4581
(dp4582
g73
(dp4583
g100
g101
ssg82
g4572
sg75
(lp4584
S':'
asbag68
(g89
g70
NtRp4585
(dp4586
g73
(dp4587
sg82
g4572
sg75
(lp4588
g68
(g69
g70
NtRp4589
(dp4590
g73
(dp4591
g81
I5
ssg82
g4585
sg75
(lp4592
g68
(g77
g70
NtRp4593
(dp4594
g73
(dp4595
g81
I4
ssg82
Nsg75
(lp4596
sbasbasbasbag68
(g84
g70
NtRp4597
(dp4598
g73
(dp4599
sg82
g4287
sg75
(lp4600
g68
(g89
g70
NtRp4601
(dp4602
g73
(dp4603
g93
g94
ssg82
g4597
sg75
(lp4604
S'flash'
p4605
asbag68
(g89
g70
NtRp4606
(dp4607
g73
(dp4608
g100
g101
ssg82
g4597
sg75
(lp4609
S':'
asbag68
(g89
g70
NtRp4610
(dp4611
g73
(dp4612
sg82
g4597
sg75
(lp4613
g68
(g69
g70
NtRp4614
(dp4615
g73
(dp4616
g81
I5
ssg82
g4610
sg75
(lp4617
S''
asbasbasbag68
(g84
g70
NtRp4618
(dp4619
g73
(dp4620
sg82
g4287
sg75
(lp4621
g68
(g89
g70
NtRp4622
(dp4623
g73
(dp4624
g93
g94
ssg82
g4618
sg75
(lp4625
S'generic_patterns'
p4626
asbag68
(g89
g70
NtRp4627
(dp4628
g73
(dp4629
g100
g101
ssg82
g4618
sg75
(lp4630
S':'
asbag68
(g89
g70
NtRp4631
(dp4632
g73
(dp4633
sg82
g4618
sg75
(lp4634
g68
(g69
g70
NtRp4635
(dp4636
g73
(dp4637
g81
I5
ssg82
g4631
sg75
(lp4638
g68
(g77
g70
NtRp4639
(dp4640
g73
(dp4641
g81
I4
ssg82
Nsg75
(lp4642
sbasbasbasbag68
(g84
g70
NtRp4643
(dp4644
g73
(dp4645
sg82
g4287
sg75
(lp4646
g68
(g89
g70
NtRp4647
(dp4648
g73
(dp4649
g93
g94
ssg82
g4643
sg75
(lp4650
S'headers'
p4651
asbag68
(g89
g70
NtRp4652
(dp4653
g73
(dp4654
g100
g101
ssg82
g4643
sg75
(lp4655
S':'
asbag68
(g89
g70
NtRp4656
(dp4657
g73
(dp4658
sg82
g4643
sg75
(lp4659
g68
(g69
g70
NtRp4660
(dp4661
g73
(dp4662
g81
I5
ssg82
g4656
sg75
(lp4663
g68
(g77
g70
NtRp4664
(dp4665
g73
(dp4666
g81
I4
ssg82
Nsg75
(lp4667
g68
(g84
g70
NtRp4668
(dp4669
g73
(dp4670
sg82
g4664
sg75
(lp4671
g68
(g89
g70
NtRp4672
(dp4673
g73
(dp4674
g93
g94
ssg82
g4668
sg75
(lp4675
S'Cache-Control'
p4676
asbag68
(g89
g70
NtRp4677
(dp4678
g73
(dp4679
g100
g101
ssg82
g4668
sg75
(lp4680
S':'
asbag68
(g89
g70
NtRp4681
(dp4682
g73
(dp4683
sg82
g4668
sg75
(lp4684
g68
(g69
g70
NtRp4685
(dp4686
g73
(dp4687
g81
I4
ssg82
g4681
sg75
(lp4688
S'no-store, no-cache, must-revalidate, post-check=0, pre-check=0'
p4689
asbasbasbag68
(g84
g70
NtRp4690
(dp4691
g73
(dp4692
sg82
g4664
sg75
(lp4693
g68
(g89
g70
NtRp4694
(dp4695
g73
(dp4696
g93
g94
ssg82
g4690
sg75
(lp4697
S'Content-Type'
p4698
asbag68
(g89
g70
NtRp4699
(dp4700
g73
(dp4701
g100
g101
ssg82
g4690
sg75
(lp4702
S':'
asbag68
(g89
g70
NtRp4703
(dp4704
g73
(dp4705
sg82
g4690
sg75
(lp4706
g68
(g69
g70
NtRp4707
(dp4708
g73
(dp4709
g81
I4
ssg82
g4703
sg75
(lp4710
S'text/html; charset=utf-8'
p4711
asbasbasbag68
(g84
g70
NtRp4712
(dp4713
g73
(dp4714
sg82
g4664
sg75
(lp4715
g68
(g89
g70
NtRp4716
(dp4717
g73
(dp4718
g93
g94
ssg82
g4712
sg75
(lp4719
S'Expires'
p4720
asbag68
(g89
g70
NtRp4721
(dp4722
g73
(dp4723
g100
g101
ssg82
g4712
sg75
(lp4724
S':'
asbag68
(g89
g70
NtRp4725
(dp4726
g73
(dp4727
sg82
g4712
sg75
(lp4728
g68
(g69
g70
NtRp4729
(dp4730
g73
(dp4731
g81
I4
ssg82
g4725
sg75
(lp4732
S'Mon, 13 Aug 2012 18:37:01 GMT'
p4733
asbasbasbag68
(g84
g70
NtRp4734
(dp4735
g73
(dp4736
sg82
g4664
sg75
(lp4737
g68
(g89
g70
NtRp4738
(dp4739
g73
(dp4740
g93
g94
ssg82
g4734
sg75
(lp4741
S'Pragma'
p4742
asbag68
(g89
g70
NtRp4743
(dp4744
g73
(dp4745
g100
g101
ssg82
g4734
sg75
(lp4746
S':'
asbag68
(g89
g70
NtRp4747
(dp4748
g73
(dp4749
sg82
g4734
sg75
(lp4750
g68
(g69
g70
NtRp4751
(dp4752
g73
(dp4753
g81
I4
ssg82
g4747
sg75
(lp4754
S'no-cache'
p4755
asbasbasbag68
(g84
g70
NtRp4756
(dp4757
g73
(dp4758
sg82
g4664
sg75
(lp4759
g68
(g89
g70
NtRp4760
(dp4761
g73
(dp4762
g93
g94
ssg82
g4756
sg75
(lp4763
S'X-Powered-By'
p4764
asbag68
(g89
g70
NtRp4765
(dp4766
g73
(dp4767
g100
g101
ssg82
g4756
sg75
(lp4768
S':'
asbag68
(g89
g70
NtRp4769
(dp4770
g73
(dp4771
sg82
g4756
sg75
(lp4772
g68
(g69
g70
NtRp4773
(dp4774
g73
(dp4775
g81
I4
ssg82
g4769
sg75
(lp4776
S'web2py'
p4777
asbasbasbasbasbasbasbag68
(g84
g70
NtRp4778
(dp4779
g73
(dp4780
sg82
g4287
sg75
(lp4781
g68
(g89
g70
NtRp4782
(dp4783
g73
(dp4784
g93
g94
ssg82
g4778
sg75
(lp4785
S'menu'
p4786
asbag68
(g89
g70
NtRp4787
(dp4788
g73
(dp4789
g100
g101
ssg82
g4778
sg75
(lp4790
S':'
asbag68
(g89
g70
NtRp4791
(dp4792
g73
(dp4793
sg82
g4778
sg75
(lp4794
g68
(g69
g70
NtRp4795
(dp4796
g73
(dp4797
g81
I5
ssg82
g4791
sg75
(lp4798
g68
(g77
g70
NtRp4799
(dp4800
g73
(dp4801
g81
I4
ssg82
Nsg75
(lp4802
sbasbasbasbag68
(g84
g70
NtRp4803
(dp4804
g73
(dp4805
sg82
g4287
sg75
(lp4806
g68
(g89
g70
NtRp4807
(dp4808
g73
(dp4809
g93
g94
ssg82
g4803
sg75
(lp4810
S'meta'
p4811
asbag68
(g89
g70
NtRp4812
(dp4813
g73
(dp4814
g100
g101
ssg82
g4803
sg75
(lp4815
S':'
asbag68
(g89
g70
NtRp4816
(dp4817
g73
(dp4818
sg82
g4803
sg75
(lp4819
g68
(g69
g70
NtRp4820
(dp4821
g73
(dp4822
g81
I5
ssg82
g4816
sg75
(lp4823
g68
(g77
g70
NtRp4824
(dp4825
g73
(dp4826
g81
I4
ssg82
Nsg75
(lp4827
sbasbasbasbag68
(g84
g70
NtRp4828
(dp4829
g73
(dp4830
sg82
g4287
sg75
(lp4831
g68
(g89
g70
NtRp4832
(dp4833
g73
(dp4834
g93
g94
ssg82
g4828
sg75
(lp4835
S'postprocessing'
p4836
asbag68
(g89
g70
NtRp4837
(dp4838
g73
(dp4839
g100
g101
ssg82
g4828
sg75
(lp4840
S':'
asbag68
(g89
g70
NtRp4841
(dp4842
g73
(dp4843
sg82
g4828
sg75
(lp4844
g68
(g69
g70
NtRp4845
(dp4846
g73
(dp4847
g81
I5
ssg82
g4841
sg75
(lp4848
g68
(g77
g70
NtRp4849
(dp4850
g73
(dp4851
g81
I4
ssg82
Nsg75
(lp4852
sbasbasbasbag68
(g84
g70
NtRp4853
(dp4854
g73
(dp4855
sg82
g4287
sg75
(lp4856
g68
(g89
g70
NtRp4857
(dp4858
g73
(dp4859
g93
g94
ssg82
g4853
sg75
(lp4860
S'session_filename'
p4861
asbag68
(g89
g70
NtRp4862
(dp4863
g73
(dp4864
g100
g101
ssg82
g4853
sg75
(lp4865
S':'
asbag68
(g89
g70
NtRp4866
(dp4867
g73
(dp4868
sg82
g4853
sg75
(lp4869
g68
(g69
g70
NtRp4870
(dp4871
g73
(dp4872
g81
I5
ssg82
g4866
sg75
(lp4873
S'/Users/emir/Documents/beardcode/web2py/applications/fayol/sessions/127.0.0.1-26d4b104-aac8-4558-9d87-a41ae05eabb5'
p4874
asbasbasbag68
(g84
g70
NtRp4875
(dp4876
g73
(dp4877
sg82
g4287
sg75
(lp4878
g68
(g89
g70
NtRp4879
(dp4880
g73
(dp4881
g93
g94
ssg82
g4875
sg75
(lp4882
S'session_id'
p4883
asbag68
(g89
g70
NtRp4884
(dp4885
g73
(dp4886
g100
g101
ssg82
g4875
sg75
(lp4887
S':'
asbag68
(g89
g70
NtRp4888
(dp4889
g73
(dp4890
sg82
g4875
sg75
(lp4891
g68
(g69
g70
NtRp4892
(dp4893
g73
(dp4894
g81
I5
ssg82
g4888
sg75
(lp4895
S'127.0.0.1-26d4b104-aac8-4558-9d87-a41ae05eabb5'
p4896
asbasbasbag68
(g84
g70
NtRp4897
(dp4898
g73
(dp4899
sg82
g4287
sg75
(lp4900
g68
(g89
g70
NtRp4901
(dp4902
g73
(dp4903
g93
g94
ssg82
g4897
sg75
(lp4904
S'session_id_name'
p4905
asbag68
(g89
g70
NtRp4906
(dp4907
g73
(dp4908
g100
g101
ssg82
g4897
sg75
(lp4909
S':'
asbag68
(g89
g70
NtRp4910
(dp4911
g73
(dp4912
sg82
g4897
sg75
(lp4913
g68
(g69
g70
NtRp4914
(dp4915
g73
(dp4916
g81
I5
ssg82
g4910
sg75
(lp4917
g4344
asbasbasbag68
(g84
g70
NtRp4918
(dp4919
g73
(dp4920
sg82
g4287
sg75
(lp4921
g68
(g89
g70
NtRp4922
(dp4923
g73
(dp4924
g93
g94
ssg82
g4918
sg75
(lp4925
S'session_new'
p4926
asbag68
(g89
g70
NtRp4927
(dp4928
g73
(dp4929
g100
g101
ssg82
g4918
sg75
(lp4930
S':'
asbag68
(g89
g70
NtRp4931
(dp4932
g73
(dp4933
sg82
g4918
sg75
(lp4934
g68
(g69
g70
NtRp4935
(dp4936
g73
(dp4937
g81
I5
ssg82
g4931
sg75
(lp4938
g2548
asbasbasbag68
(g84
g70
NtRp4939
(dp4940
g73
(dp4941
sg82
g4287
sg75
(lp4942
g68
(g89
g70
NtRp4943
(dp4944
g73
(dp4945
g93
g94
ssg82
g4939
sg75
(lp4946
S'status'
p4947
asbag68
(g89
g70
NtRp4948
(dp4949
g73
(dp4950
g100
g101
ssg82
g4939
sg75
(lp4951
S':'
asbag68
(g89
g70
NtRp4952
(dp4953
g73
(dp4954
sg82
g4939
sg75
(lp4955
g68
(g69
g70
NtRp4956
(dp4957
g73
(dp4958
g81
I5
ssg82
g4952
sg75
(lp4959
S'200'
p4960
asbasbasbag68
(g84
g70
NtRp4961
(dp4962
g73
(dp4963
sg82
g4287
sg75
(lp4964
g68
(g89
g70
NtRp4965
(dp4966
g73
(dp4967
g93
g94
ssg82
g4961
sg75
(lp4968
g3168
asbag68
(g89
g70
NtRp4969
(dp4970
g73
(dp4971
g100
g101
ssg82
g4961
sg75
(lp4972
S':'
asbag68
(g89
g70
NtRp4973
(dp4974
g73
(dp4975
sg82
g4961
sg75
(lp4976
g68
(g69
g70
NtRp4977
(dp4978
g73
(dp4979
g81
I5
ssg82
g4973
sg75
(lp4980
g3181
asbasbasbag68
(g84
g70
NtRp4981
(dp4982
g73
(dp4983
sg82
g4287
sg75
(lp4984
g68
(g89
g70
NtRp4985
(dp4986
g73
(dp4987
g93
g94
ssg82
g4981
sg75
(lp4988
S'view'
p4989
asbag68
(g89
g70
NtRp4990
(dp4991
g73
(dp4992
g100
g101
ssg82
g4981
sg75
(lp4993
S':'
asbag68
(g89
g70
NtRp4994
(dp4995
g73
(dp4996
sg82
g4981
sg75
(lp4997
g68
(g69
g70
NtRp4998
(dp4999
g73
(dp5000
g81
I5
ssg82
g4994
sg75
(lp5001
S'default/index.html'
p5002
asbasbasbasbasbsS'locals'
p5003
(dp5004
g4
S"'/Users/emir/Documents/beardcode/web2py/applications/fayol/controllers/default.py'"
p5005
sg6
S"'# -*- coding: utf-8 -*-\\nfrom datetime import dat... dict()\\n\\n\\nresponse._vars=response._caller(index)\\n'"
p5006
sssS'traceback'
p5007
S'Traceback (most recent call last):\n  File "/Users/emir/Documents/beardcode/web2py/gluon/restricted.py", line 204, in restricted\n    ccode = compile2(code,layer)\n  File "/Users/emir/Documents/beardcode/web2py/gluon/restricted.py", line 189, in compile2\n    return compile(code.rstrip().replace(\'\\r\\n\',\'\\n\')+\'\\n\', layer, \'exec\')\n  File "/Users/emir/Documents/beardcode/web2py/applications/fayol/controllers/default.py", line 7\n    return dict(y=year)\n                      ^\nIndentationError: unindent does not match any outer indentation level\n'
p5008
s.