(dp1
S'output'
p2
S"<type 'exceptions.IndentationError'> unindent does not match any outer indentation level (default.py, line 8)"
p3
sS'layer'
p4
S'/Users/emir/Documents/beardcode/web2py/applications/fayol/controllers/default.py'
p5
sS'code'
p6
S"# -*- coding: utf-8 -*-\n\n\ndef index():\n\tform=FORM('Your name:',\n              INPUT(_name='name', requires=IS_NOT_EMPTY()),\n              INPUT(_type='submit'))\n    if form.accepts(request,session):\n        response.flash = 'form accepted'\n    elif form.errors:\n        response.flash = 'form has errors'\n    else:\n        response.flash = 'please fill the form'\n    return dict(f=form)\n\n\n\nresponse._vars=response._caller(index)\n"
p7
sS'snapshot'
p8
(dp9
S'exception'
p10
(dp11
S'__getslice__'
p12
S"<method-wrapper '__getslice__' of exceptions.IndentationError object>"
p13
sS'text'
p14
S"'    if form.accepts(request,session):\\n'"
p15
sS'__str__'
p16
S"<method-wrapper '__str__' of exceptions.IndentationError object>"
p17
sS'__reduce__'
p18
S'<built-in method __reduce__ of exceptions.IndentationError object>'
p19
sS'__dict__'
p20
S'{}'
p21
sS'__sizeof__'
p22
S'<built-in method __sizeof__ of exceptions.IndentationError object>'
p23
sS'__init__'
p24
S"<method-wrapper '__init__' of exceptions.IndentationError object>"
p25
sS'__setattr__'
p26
S"<method-wrapper '__setattr__' of exceptions.IndentationError object>"
p27
sS'__reduce_ex__'
p28
S'<built-in method __reduce_ex__ of exceptions.IndentationError object>'
p29
sS'__new__'
p30
S'<built-in method __new__ of type object>'
p31
sS'__format__'
p32
S'<built-in method __format__ of exceptions.IndentationError object>'
p33
sS'__class__'
p34
S"<type 'exceptions.IndentationError'>"
p35
sS'filename'
p36
S"'/Users/emir/Documents/beardcode/web2py/applications/fayol/controllers/default.py'"
p37
sS'lineno'
p38
S'8'
sS'msg'
p39
S"'unindent does not match any outer indentation level'"
p40
sS'__doc__'
p41
S"'Improper indentation.'"
p42
sS'__getitem__'
p43
S"<method-wrapper '__getitem__' of exceptions.IndentationError object>"
p44
sS'__setstate__'
p45
S'<built-in method __setstate__ of exceptions.IndentationError object>'
p46
sS'__getattribute__'
p47
S"<method-wrapper '__getattribute__' of exceptions.IndentationError object>"
p48
sS'print_file_and_line'
p49
S'None'
p50
sS'args'
p51
S"('unindent does not match any outer indentation level', ('/Users/emir/Documents/beardcode/web2py/applications/fayol/controllers/default.py', 8, 38, '    if form.accepts(request,session):\\n'))"
p52
sS'__subclasshook__'
p53
S'<built-in method __subclasshook__ of type object>'
p54
sS'offset'
p55
S'38'
p56
sS'__unicode__'
p57
S'<built-in method __unicode__ of exceptions.IndentationError object>'
p58
sS'__delattr__'
p59
S"<method-wrapper '__delattr__' of exceptions.IndentationError object>"
p60
sS'__repr__'
p61
S"<method-wrapper '__repr__' of exceptions.IndentationError object>"
p62
sS'__hash__'
p63
S"<method-wrapper '__hash__' of exceptions.IndentationError object>"
p64
ssS'evalue'
p65
S'unindent does not match any outer indentation level (default.py, line 8)'
p66
sS'request'
p67
ccopy_reg
_reconstructor
p68
(cgluon.html
BEAUTIFY
p69
c__builtin__
object
p70
NtRp71
(dp72
S'attributes'
p73
(dp74
sS'components'
p75
(lp76
g68
(cgluon.html
TABLE
p77
g70
NtRp78
(dp79
g73
(dp80
S'level'
p81
I5
ssS'parent'
p82
Nsg75
(lp83
g68
(cgluon.html
TR
p84
g70
NtRp85
(dp86
g73
(dp87
sg82
g78
sg75
(lp88
g68
(cgluon.html
TD
p89
g70
NtRp90
(dp91
g73
(dp92
S'_style'
p93
S'font-weight:bold;vertical-align:top'
p94
ssg82
g85
sg75
(lp95
S'ajax'
p96
asbag68
(g89
g70
NtRp97
(dp98
g73
(dp99
S'_valign'
p100
S'top'
p101
ssg82
g85
sg75
(lp102
S':'
asbag68
(g89
g70
NtRp103
(dp104
g73
(dp105
sg82
g85
sg75
(lp106
g68
(g69
g70
NtRp107
(dp108
g73
(dp109
g81
I5
ssg82
g103
sg75
(lp110
S'False'
p111
asbasbasbag68
(g84
g70
NtRp112
(dp113
g73
(dp114
sg82
g78
sg75
(lp115
g68
(g89
g70
NtRp116
(dp117
g73
(dp118
g93
g94
ssg82
g112
sg75
(lp119
S'application'
p120
asbag68
(g89
g70
NtRp121
(dp122
g73
(dp123
g100
g101
ssg82
g112
sg75
(lp124
S':'
asbag68
(g89
g70
NtRp125
(dp126
g73
(dp127
sg82
g112
sg75
(lp128
g68
(g69
g70
NtRp129
(dp130
g73
(dp131
g81
I5
ssg82
g125
sg75
(lp132
S'fayol'
p133
asbasbasbag68
(g84
g70
NtRp134
(dp135
g73
(dp136
sg82
g78
sg75
(lp137
g68
(g89
g70
NtRp138
(dp139
g73
(dp140
g93
g94
ssg82
g134
sg75
(lp141
g51
asbag68
(g89
g70
NtRp142
(dp143
g73
(dp144
g100
g101
ssg82
g134
sg75
(lp145
S':'
asbag68
(g89
g70
NtRp146
(dp147
g73
(dp148
sg82
g134
sg75
(lp149
g68
(g69
g70
NtRp150
(dp151
g73
(dp152
g81
I5
ssg82
g146
sg75
(lp153
g68
(g77
g70
NtRp154
(dp155
g73
(dp156
g81
I4
ssg82
Nsg75
(lp157
sbasbasbasbag68
(g84
g70
NtRp158
(dp159
g73
(dp160
sg82
g78
sg75
(lp161
g68
(g89
g70
NtRp162
(dp163
g73
(dp164
g93
g94
ssg82
g158
sg75
(lp165
S'body'
p166
asbag68
(g89
g70
NtRp167
(dp168
g73
(dp169
g100
g101
ssg82
g158
sg75
(lp170
S':'
asbag68
(g89
g70
NtRp171
(dp172
g73
(dp173
sg82
g158
sg75
(lp174
g68
(g69
g70
NtRp175
(dp176
g73
(dp177
g81
I5
ssg82
g171
sg75
(lp178
S'<cStringIO.StringO object at 0x1047d5c38>'
p179
asbasbasbag68
(g84
g70
NtRp180
(dp181
g73
(dp182
sg82
g78
sg75
(lp183
g68
(g89
g70
NtRp184
(dp185
g73
(dp186
g93
g94
ssg82
g180
sg75
(lp187
S'client'
p188
asbag68
(g89
g70
NtRp189
(dp190
g73
(dp191
g100
g101
ssg82
g180
sg75
(lp192
S':'
asbag68
(g89
g70
NtRp193
(dp194
g73
(dp195
sg82
g180
sg75
(lp196
g68
(g69
g70
NtRp197
(dp198
g73
(dp199
g81
I5
ssg82
g193
sg75
(lp200
S'127.0.0.1'
p201
asbasbasbag68
(g84
g70
NtRp202
(dp203
g73
(dp204
sg82
g78
sg75
(lp205
g68
(g89
g70
NtRp206
(dp207
g73
(dp208
g93
g94
ssg82
g202
sg75
(lp209
S'controller'
p210
asbag68
(g89
g70
NtRp211
(dp212
g73
(dp213
g100
g101
ssg82
g202
sg75
(lp214
S':'
asbag68
(g89
g70
NtRp215
(dp216
g73
(dp217
sg82
g202
sg75
(lp218
g68
(g69
g70
NtRp219
(dp220
g73
(dp221
g81
I5
ssg82
g215
sg75
(lp222
S'default'
p223
asbasbasbag68
(g84
g70
NtRp224
(dp225
g73
(dp226
sg82
g78
sg75
(lp227
g68
(g89
g70
NtRp228
(dp229
g73
(dp230
g93
g94
ssg82
g224
sg75
(lp231
S'cookies'
p232
asbag68
(g89
g70
NtRp233
(dp234
g73
(dp235
g100
g101
ssg82
g224
sg75
(lp236
S':'
asbag68
(g89
g70
NtRp237
(dp238
g73
(dp239
sg82
g224
sg75
(lp240
g68
(g69
g70
NtRp241
(dp242
g73
(dp243
g81
I5
ssg82
g237
sg75
(lp244
g68
(g77
g70
NtRp245
(dp246
g73
(dp247
g81
I4
ssg82
Nsg75
(lp248
g68
(g84
g70
NtRp249
(dp250
g73
(dp251
sg82
g245
sg75
(lp252
g68
(g89
g70
NtRp253
(dp254
g73
(dp255
g93
g94
ssg82
g249
sg75
(lp256
S'session_id_admin'
p257
asbag68
(g89
g70
NtRp258
(dp259
g73
(dp260
g100
g101
ssg82
g249
sg75
(lp261
S':'
asbag68
(g89
g70
NtRp262
(dp263
g73
(dp264
sg82
g249
sg75
(lp265
g68
(g69
g70
NtRp266
(dp267
g73
(dp268
g81
I4
ssg82
g262
sg75
(lp269
g68
(g77
g70
NtRp270
(dp271
g73
(dp272
g81
I3
ssg82
Nsg75
(lp273
g68
(g84
g70
NtRp274
(dp275
g73
(dp276
sg82
g270
sg75
(lp277
g68
(g89
g70
NtRp278
(dp279
g73
(dp280
g93
g94
ssg82
g274
sg75
(lp281
S'comment'
p282
asbag68
(g89
g70
NtRp283
(dp284
g73
(dp285
g100
g101
ssg82
g274
sg75
(lp286
S':'
asbag68
(g89
g70
NtRp287
(dp288
g73
(dp289
sg82
g274
sg75
(lp290
g68
(g69
g70
NtRp291
(dp292
g73
(dp293
g81
I3
ssg82
g287
sg75
(lp294
S''
asbasbasbag68
(g84
g70
NtRp295
(dp296
g73
(dp297
sg82
g270
sg75
(lp298
g68
(g89
g70
NtRp299
(dp300
g73
(dp301
g93
g94
ssg82
g295
sg75
(lp302
S'domain'
p303
asbag68
(g89
g70
NtRp304
(dp305
g73
(dp306
g100
g101
ssg82
g295
sg75
(lp307
S':'
asbag68
(g89
g70
NtRp308
(dp309
g73
(dp310
sg82
g295
sg75
(lp311
g68
(g69
g70
NtRp312
(dp313
g73
(dp314
g81
I3
ssg82
g308
sg75
(lp315
S''
asbasbasbag68
(g84
g70
NtRp316
(dp317
g73
(dp318
sg82
g270
sg75
(lp319
g68
(g89
g70
NtRp320
(dp321
g73
(dp322
g93
g94
ssg82
g316
sg75
(lp323
S'expires'
p324
asbag68
(g89
g70
NtRp325
(dp326
g73
(dp327
g100
g101
ssg82
g316
sg75
(lp328
S':'
asbag68
(g89
g70
NtRp329
(dp330
g73
(dp331
sg82
g316
sg75
(lp332
g68
(g69
g70
NtRp333
(dp334
g73
(dp335
g81
I3
ssg82
g329
sg75
(lp336
S''
asbasbasbag68
(g84
g70
NtRp337
(dp338
g73
(dp339
sg82
g270
sg75
(lp340
g68
(g89
g70
NtRp341
(dp342
g73
(dp343
g93
g94
ssg82
g337
sg75
(lp344
S'httponly'
p345
asbag68
(g89
g70
NtRp346
(dp347
g73
(dp348
g100
g101
ssg82
g337
sg75
(lp349
S':'
asbag68
(g89
g70
NtRp350
(dp351
g73
(dp352
sg82
g337
sg75
(lp353
g68
(g69
g70
NtRp354
(dp355
g73
(dp356
g81
I3
ssg82
g350
sg75
(lp357
S''
asbasbasbag68
(g84
g70
NtRp358
(dp359
g73
(dp360
sg82
g270
sg75
(lp361
g68
(g89
g70
NtRp362
(dp363
g73
(dp364
g93
g94
ssg82
g358
sg75
(lp365
S'max-age'
p366
asbag68
(g89
g70
NtRp367
(dp368
g73
(dp369
g100
g101
ssg82
g358
sg75
(lp370
S':'
asbag68
(g89
g70
NtRp371
(dp372
g73
(dp373
sg82
g358
sg75
(lp374
g68
(g69
g70
NtRp375
(dp376
g73
(dp377
g81
I3
ssg82
g371
sg75
(lp378
S''
asbasbasbag68
(g84
g70
NtRp379
(dp380
g73
(dp381
sg82
g270
sg75
(lp382
g68
(g89
g70
NtRp383
(dp384
g73
(dp385
g93
g94
ssg82
g379
sg75
(lp386
S'path'
p387
asbag68
(g89
g70
NtRp388
(dp389
g73
(dp390
g100
g101
ssg82
g379
sg75
(lp391
S':'
asbag68
(g89
g70
NtRp392
(dp393
g73
(dp394
sg82
g379
sg75
(lp395
g68
(g69
g70
NtRp396
(dp397
g73
(dp398
g81
I3
ssg82
g392
sg75
(lp399
S''
asbasbasbag68
(g84
g70
NtRp400
(dp401
g73
(dp402
sg82
g270
sg75
(lp403
g68
(g89
g70
NtRp404
(dp405
g73
(dp406
g93
g94
ssg82
g400
sg75
(lp407
S'secure'
p408
asbag68
(g89
g70
NtRp409
(dp410
g73
(dp411
g100
g101
ssg82
g400
sg75
(lp412
S':'
asbag68
(g89
g70
NtRp413
(dp414
g73
(dp415
sg82
g400
sg75
(lp416
g68
(g69
g70
NtRp417
(dp418
g73
(dp419
g81
I3
ssg82
g413
sg75
(lp420
S''
asbasbasbag68
(g84
g70
NtRp421
(dp422
g73
(dp423
sg82
g270
sg75
(lp424
g68
(g89
g70
NtRp425
(dp426
g73
(dp427
g93
g94
ssg82
g421
sg75
(lp428
S'version'
p429
asbag68
(g89
g70
NtRp430
(dp431
g73
(dp432
g100
g101
ssg82
g421
sg75
(lp433
S':'
asbag68
(g89
g70
NtRp434
(dp435
g73
(dp436
sg82
g421
sg75
(lp437
g68
(g69
g70
NtRp438
(dp439
g73
(dp440
g81
I3
ssg82
g434
sg75
(lp441
S''
asbasbasbasbasbasbasbag68
(g84
g70
NtRp442
(dp443
g73
(dp444
sg82
g245
sg75
(lp445
g68
(g89
g70
NtRp446
(dp447
g73
(dp448
g93
g94
ssg82
g442
sg75
(lp449
S'session_id_contador'
p450
asbag68
(g89
g70
NtRp451
(dp452
g73
(dp453
g100
g101
ssg82
g442
sg75
(lp454
S':'
asbag68
(g89
g70
NtRp455
(dp456
g73
(dp457
sg82
g442
sg75
(lp458
g68
(g69
g70
NtRp459
(dp460
g73
(dp461
g81
I4
ssg82
g455
sg75
(lp462
g68
(g77
g70
NtRp463
(dp464
g73
(dp465
g81
I3
ssg82
Nsg75
(lp466
g68
(g84
g70
NtRp467
(dp468
g73
(dp469
sg82
g463
sg75
(lp470
g68
(g89
g70
NtRp471
(dp472
g73
(dp473
g93
g94
ssg82
g467
sg75
(lp474
g282
asbag68
(g89
g70
NtRp475
(dp476
g73
(dp477
g100
g101
ssg82
g467
sg75
(lp478
S':'
asbag68
(g89
g70
NtRp479
(dp480
g73
(dp481
sg82
g467
sg75
(lp482
g68
(g69
g70
NtRp483
(dp484
g73
(dp485
g81
I3
ssg82
g479
sg75
(lp486
S''
asbasbasbag68
(g84
g70
NtRp487
(dp488
g73
(dp489
sg82
g463
sg75
(lp490
g68
(g89
g70
NtRp491
(dp492
g73
(dp493
g93
g94
ssg82
g487
sg75
(lp494
g303
asbag68
(g89
g70
NtRp495
(dp496
g73
(dp497
g100
g101
ssg82
g487
sg75
(lp498
S':'
asbag68
(g89
g70
NtRp499
(dp500
g73
(dp501
sg82
g487
sg75
(lp502
g68
(g69
g70
NtRp503
(dp504
g73
(dp505
g81
I3
ssg82
g499
sg75
(lp506
S''
asbasbasbag68
(g84
g70
NtRp507
(dp508
g73
(dp509
sg82
g463
sg75
(lp510
g68
(g89
g70
NtRp511
(dp512
g73
(dp513
g93
g94
ssg82
g507
sg75
(lp514
g324
asbag68
(g89
g70
NtRp515
(dp516
g73
(dp517
g100
g101
ssg82
g507
sg75
(lp518
S':'
asbag68
(g89
g70
NtRp519
(dp520
g73
(dp521
sg82
g507
sg75
(lp522
g68
(g69
g70
NtRp523
(dp524
g73
(dp525
g81
I3
ssg82
g519
sg75
(lp526
S''
asbasbasbag68
(g84
g70
NtRp527
(dp528
g73
(dp529
sg82
g463
sg75
(lp530
g68
(g89
g70
NtRp531
(dp532
g73
(dp533
g93
g94
ssg82
g527
sg75
(lp534
g345
asbag68
(g89
g70
NtRp535
(dp536
g73
(dp537
g100
g101
ssg82
g527
sg75
(lp538
S':'
asbag68
(g89
g70
NtRp539
(dp540
g73
(dp541
sg82
g527
sg75
(lp542
g68
(g69
g70
NtRp543
(dp544
g73
(dp545
g81
I3
ssg82
g539
sg75
(lp546
S''
asbasbasbag68
(g84
g70
NtRp547
(dp548
g73
(dp549
sg82
g463
sg75
(lp550
g68
(g89
g70
NtRp551
(dp552
g73
(dp553
g93
g94
ssg82
g547
sg75
(lp554
g366
asbag68
(g89
g70
NtRp555
(dp556
g73
(dp557
g100
g101
ssg82
g547
sg75
(lp558
S':'
asbag68
(g89
g70
NtRp559
(dp560
g73
(dp561
sg82
g547
sg75
(lp562
g68
(g69
g70
NtRp563
(dp564
g73
(dp565
g81
I3
ssg82
g559
sg75
(lp566
S''
asbasbasbag68
(g84
g70
NtRp567
(dp568
g73
(dp569
sg82
g463
sg75
(lp570
g68
(g89
g70
NtRp571
(dp572
g73
(dp573
g93
g94
ssg82
g567
sg75
(lp574
g387
asbag68
(g89
g70
NtRp575
(dp576
g73
(dp577
g100
g101
ssg82
g567
sg75
(lp578
S':'
asbag68
(g89
g70
NtRp579
(dp580
g73
(dp581
sg82
g567
sg75
(lp582
g68
(g69
g70
NtRp583
(dp584
g73
(dp585
g81
I3
ssg82
g579
sg75
(lp586
S''
asbasbasbag68
(g84
g70
NtRp587
(dp588
g73
(dp589
sg82
g463
sg75
(lp590
g68
(g89
g70
NtRp591
(dp592
g73
(dp593
g93
g94
ssg82
g587
sg75
(lp594
g408
asbag68
(g89
g70
NtRp595
(dp596
g73
(dp597
g100
g101
ssg82
g587
sg75
(lp598
S':'
asbag68
(g89
g70
NtRp599
(dp600
g73
(dp601
sg82
g587
sg75
(lp602
g68
(g69
g70
NtRp603
(dp604
g73
(dp605
g81
I3
ssg82
g599
sg75
(lp606
S''
asbasbasbag68
(g84
g70
NtRp607
(dp608
g73
(dp609
sg82
g463
sg75
(lp610
g68
(g89
g70
NtRp611
(dp612
g73
(dp613
g93
g94
ssg82
g607
sg75
(lp614
g429
asbag68
(g89
g70
NtRp615
(dp616
g73
(dp617
g100
g101
ssg82
g607
sg75
(lp618
S':'
asbag68
(g89
g70
NtRp619
(dp620
g73
(dp621
sg82
g607
sg75
(lp622
g68
(g69
g70
NtRp623
(dp624
g73
(dp625
g81
I3
ssg82
g619
sg75
(lp626
S''
asbasbasbasbasbasbasbag68
(g84
g70
NtRp627
(dp628
g73
(dp629
sg82
g245
sg75
(lp630
g68
(g89
g70
NtRp631
(dp632
g73
(dp633
g93
g94
ssg82
g627
sg75
(lp634
S'session_id_fayol'
p635
asbag68
(g89
g70
NtRp636
(dp637
g73
(dp638
g100
g101
ssg82
g627
sg75
(lp639
S':'
asbag68
(g89
g70
NtRp640
(dp641
g73
(dp642
sg82
g627
sg75
(lp643
g68
(g69
g70
NtRp644
(dp645
g73
(dp646
g81
I4
ssg82
g640
sg75
(lp647
g68
(g77
g70
NtRp648
(dp649
g73
(dp650
g81
I3
ssg82
Nsg75
(lp651
g68
(g84
g70
NtRp652
(dp653
g73
(dp654
sg82
g648
sg75
(lp655
g68
(g89
g70
NtRp656
(dp657
g73
(dp658
g93
g94
ssg82
g652
sg75
(lp659
g282
asbag68
(g89
g70
NtRp660
(dp661
g73
(dp662
g100
g101
ssg82
g652
sg75
(lp663
S':'
asbag68
(g89
g70
NtRp664
(dp665
g73
(dp666
sg82
g652
sg75
(lp667
g68
(g69
g70
NtRp668
(dp669
g73
(dp670
g81
I3
ssg82
g664
sg75
(lp671
S''
asbasbasbag68
(g84
g70
NtRp672
(dp673
g73
(dp674
sg82
g648
sg75
(lp675
g68
(g89
g70
NtRp676
(dp677
g73
(dp678
g93
g94
ssg82
g672
sg75
(lp679
g303
asbag68
(g89
g70
NtRp680
(dp681
g73
(dp682
g100
g101
ssg82
g672
sg75
(lp683
S':'
asbag68
(g89
g70
NtRp684
(dp685
g73
(dp686
sg82
g672
sg75
(lp687
g68
(g69
g70
NtRp688
(dp689
g73
(dp690
g81
I3
ssg82
g684
sg75
(lp691
S''
asbasbasbag68
(g84
g70
NtRp692
(dp693
g73
(dp694
sg82
g648
sg75
(lp695
g68
(g89
g70
NtRp696
(dp697
g73
(dp698
g93
g94
ssg82
g692
sg75
(lp699
g324
asbag68
(g89
g70
NtRp700
(dp701
g73
(dp702
g100
g101
ssg82
g692
sg75
(lp703
S':'
asbag68
(g89
g70
NtRp704
(dp705
g73
(dp706
sg82
g692
sg75
(lp707
g68
(g69
g70
NtRp708
(dp709
g73
(dp710
g81
I3
ssg82
g704
sg75
(lp711
S''
asbasbasbag68
(g84
g70
NtRp712
(dp713
g73
(dp714
sg82
g648
sg75
(lp715
g68
(g89
g70
NtRp716
(dp717
g73
(dp718
g93
g94
ssg82
g712
sg75
(lp719
g345
asbag68
(g89
g70
NtRp720
(dp721
g73
(dp722
g100
g101
ssg82
g712
sg75
(lp723
S':'
asbag68
(g89
g70
NtRp724
(dp725
g73
(dp726
sg82
g712
sg75
(lp727
g68
(g69
g70
NtRp728
(dp729
g73
(dp730
g81
I3
ssg82
g724
sg75
(lp731
S''
asbasbasbag68
(g84
g70
NtRp732
(dp733
g73
(dp734
sg82
g648
sg75
(lp735
g68
(g89
g70
NtRp736
(dp737
g73
(dp738
g93
g94
ssg82
g732
sg75
(lp739
g366
asbag68
(g89
g70
NtRp740
(dp741
g73
(dp742
g100
g101
ssg82
g732
sg75
(lp743
S':'
asbag68
(g89
g70
NtRp744
(dp745
g73
(dp746
sg82
g732
sg75
(lp747
g68
(g69
g70
NtRp748
(dp749
g73
(dp750
g81
I3
ssg82
g744
sg75
(lp751
S''
asbasbasbag68
(g84
g70
NtRp752
(dp753
g73
(dp754
sg82
g648
sg75
(lp755
g68
(g89
g70
NtRp756
(dp757
g73
(dp758
g93
g94
ssg82
g752
sg75
(lp759
g387
asbag68
(g89
g70
NtRp760
(dp761
g73
(dp762
g100
g101
ssg82
g752
sg75
(lp763
S':'
asbag68
(g89
g70
NtRp764
(dp765
g73
(dp766
sg82
g752
sg75
(lp767
g68
(g69
g70
NtRp768
(dp769
g73
(dp770
g81
I3
ssg82
g764
sg75
(lp771
S''
asbasbasbag68
(g84
g70
NtRp772
(dp773
g73
(dp774
sg82
g648
sg75
(lp775
g68
(g89
g70
NtRp776
(dp777
g73
(dp778
g93
g94
ssg82
g772
sg75
(lp779
g408
asbag68
(g89
g70
NtRp780
(dp781
g73
(dp782
g100
g101
ssg82
g772
sg75
(lp783
S':'
asbag68
(g89
g70
NtRp784
(dp785
g73
(dp786
sg82
g772
sg75
(lp787
g68
(g69
g70
NtRp788
(dp789
g73
(dp790
g81
I3
ssg82
g784
sg75
(lp791
S''
asbasbasbag68
(g84
g70
NtRp792
(dp793
g73
(dp794
sg82
g648
sg75
(lp795
g68
(g89
g70
NtRp796
(dp797
g73
(dp798
g93
g94
ssg82
g792
sg75
(lp799
g429
asbag68
(g89
g70
NtRp800
(dp801
g73
(dp802
g100
g101
ssg82
g792
sg75
(lp803
S':'
asbag68
(g89
g70
NtRp804
(dp805
g73
(dp806
sg82
g792
sg75
(lp807
g68
(g69
g70
NtRp808
(dp809
g73
(dp810
g81
I3
ssg82
g804
sg75
(lp811
S''
asbasbasbasbasbasbasbag68
(g84
g70
NtRp812
(dp813
g73
(dp814
sg82
g245
sg75
(lp815
g68
(g89
g70
NtRp816
(dp817
g73
(dp818
g93
g94
ssg82
g812
sg75
(lp819
S'session_id_nombres'
p820
asbag68
(g89
g70
NtRp821
(dp822
g73
(dp823
g100
g101
ssg82
g812
sg75
(lp824
S':'
asbag68
(g89
g70
NtRp825
(dp826
g73
(dp827
sg82
g812
sg75
(lp828
g68
(g69
g70
NtRp829
(dp830
g73
(dp831
g81
I4
ssg82
g825
sg75
(lp832
g68
(g77
g70
NtRp833
(dp834
g73
(dp835
g81
I3
ssg82
Nsg75
(lp836
g68
(g84
g70
NtRp837
(dp838
g73
(dp839
sg82
g833
sg75
(lp840
g68
(g89
g70
NtRp841
(dp842
g73
(dp843
g93
g94
ssg82
g837
sg75
(lp844
g282
asbag68
(g89
g70
NtRp845
(dp846
g73
(dp847
g100
g101
ssg82
g837
sg75
(lp848
S':'
asbag68
(g89
g70
NtRp849
(dp850
g73
(dp851
sg82
g837
sg75
(lp852
g68
(g69
g70
NtRp853
(dp854
g73
(dp855
g81
I3
ssg82
g849
sg75
(lp856
S''
asbasbasbag68
(g84
g70
NtRp857
(dp858
g73
(dp859
sg82
g833
sg75
(lp860
g68
(g89
g70
NtRp861
(dp862
g73
(dp863
g93
g94
ssg82
g857
sg75
(lp864
g303
asbag68
(g89
g70
NtRp865
(dp866
g73
(dp867
g100
g101
ssg82
g857
sg75
(lp868
S':'
asbag68
(g89
g70
NtRp869
(dp870
g73
(dp871
sg82
g857
sg75
(lp872
g68
(g69
g70
NtRp873
(dp874
g73
(dp875
g81
I3
ssg82
g869
sg75
(lp876
S''
asbasbasbag68
(g84
g70
NtRp877
(dp878
g73
(dp879
sg82
g833
sg75
(lp880
g68
(g89
g70
NtRp881
(dp882
g73
(dp883
g93
g94
ssg82
g877
sg75
(lp884
g324
asbag68
(g89
g70
NtRp885
(dp886
g73
(dp887
g100
g101
ssg82
g877
sg75
(lp888
S':'
asbag68
(g89
g70
NtRp889
(dp890
g73
(dp891
sg82
g877
sg75
(lp892
g68
(g69
g70
NtRp893
(dp894
g73
(dp895
g81
I3
ssg82
g889
sg75
(lp896
S''
asbasbasbag68
(g84
g70
NtRp897
(dp898
g73
(dp899
sg82
g833
sg75
(lp900
g68
(g89
g70
NtRp901
(dp902
g73
(dp903
g93
g94
ssg82
g897
sg75
(lp904
g345
asbag68
(g89
g70
NtRp905
(dp906
g73
(dp907
g100
g101
ssg82
g897
sg75
(lp908
S':'
asbag68
(g89
g70
NtRp909
(dp910
g73
(dp911
sg82
g897
sg75
(lp912
g68
(g69
g70
NtRp913
(dp914
g73
(dp915
g81
I3
ssg82
g909
sg75
(lp916
S''
asbasbasbag68
(g84
g70
NtRp917
(dp918
g73
(dp919
sg82
g833
sg75
(lp920
g68
(g89
g70
NtRp921
(dp922
g73
(dp923
g93
g94
ssg82
g917
sg75
(lp924
g366
asbag68
(g89
g70
NtRp925
(dp926
g73
(dp927
g100
g101
ssg82
g917
sg75
(lp928
S':'
asbag68
(g89
g70
NtRp929
(dp930
g73
(dp931
sg82
g917
sg75
(lp932
g68
(g69
g70
NtRp933
(dp934
g73
(dp935
g81
I3
ssg82
g929
sg75
(lp936
S''
asbasbasbag68
(g84
g70
NtRp937
(dp938
g73
(dp939
sg82
g833
sg75
(lp940
g68
(g89
g70
NtRp941
(dp942
g73
(dp943
g93
g94
ssg82
g937
sg75
(lp944
g387
asbag68
(g89
g70
NtRp945
(dp946
g73
(dp947
g100
g101
ssg82
g937
sg75
(lp948
S':'
asbag68
(g89
g70
NtRp949
(dp950
g73
(dp951
sg82
g937
sg75
(lp952
g68
(g69
g70
NtRp953
(dp954
g73
(dp955
g81
I3
ssg82
g949
sg75
(lp956
S''
asbasbasbag68
(g84
g70
NtRp957
(dp958
g73
(dp959
sg82
g833
sg75
(lp960
g68
(g89
g70
NtRp961
(dp962
g73
(dp963
g93
g94
ssg82
g957
sg75
(lp964
g408
asbag68
(g89
g70
NtRp965
(dp966
g73
(dp967
g100
g101
ssg82
g957
sg75
(lp968
S':'
asbag68
(g89
g70
NtRp969
(dp970
g73
(dp971
sg82
g957
sg75
(lp972
g68
(g69
g70
NtRp973
(dp974
g73
(dp975
g81
I3
ssg82
g969
sg75
(lp976
S''
asbasbasbag68
(g84
g70
NtRp977
(dp978
g73
(dp979
sg82
g833
sg75
(lp980
g68
(g89
g70
NtRp981
(dp982
g73
(dp983
g93
g94
ssg82
g977
sg75
(lp984
g429
asbag68
(g89
g70
NtRp985
(dp986
g73
(dp987
g100
g101
ssg82
g977
sg75
(lp988
S':'
asbag68
(g89
g70
NtRp989
(dp990
g73
(dp991
sg82
g977
sg75
(lp992
g68
(g69
g70
NtRp993
(dp994
g73
(dp995
g81
I3
ssg82
g989
sg75
(lp996
S''
asbasbasbasbasbasbasbag68
(g84
g70
NtRp997
(dp998
g73
(dp999
sg82
g245
sg75
(lp1000
g68
(g89
g70
NtRp1001
(dp1002
g73
(dp1003
g93
g94
ssg82
g997
sg75
(lp1004
S'session_id_randomwords'
p1005
asbag68
(g89
g70
NtRp1006
(dp1007
g73
(dp1008
g100
g101
ssg82
g997
sg75
(lp1009
S':'
asbag68
(g89
g70
NtRp1010
(dp1011
g73
(dp1012
sg82
g997
sg75
(lp1013
g68
(g69
g70
NtRp1014
(dp1015
g73
(dp1016
g81
I4
ssg82
g1010
sg75
(lp1017
g68
(g77
g70
NtRp1018
(dp1019
g73
(dp1020
g81
I3
ssg82
Nsg75
(lp1021
g68
(g84
g70
NtRp1022
(dp1023
g73
(dp1024
sg82
g1018
sg75
(lp1025
g68
(g89
g70
NtRp1026
(dp1027
g73
(dp1028
g93
g94
ssg82
g1022
sg75
(lp1029
g282
asbag68
(g89
g70
NtRp1030
(dp1031
g73
(dp1032
g100
g101
ssg82
g1022
sg75
(lp1033
S':'
asbag68
(g89
g70
NtRp1034
(dp1035
g73
(dp1036
sg82
g1022
sg75
(lp1037
g68
(g69
g70
NtRp1038
(dp1039
g73
(dp1040
g81
I3
ssg82
g1034
sg75
(lp1041
S''
asbasbasbag68
(g84
g70
NtRp1042
(dp1043
g73
(dp1044
sg82
g1018
sg75
(lp1045
g68
(g89
g70
NtRp1046
(dp1047
g73
(dp1048
g93
g94
ssg82
g1042
sg75
(lp1049
g303
asbag68
(g89
g70
NtRp1050
(dp1051
g73
(dp1052
g100
g101
ssg82
g1042
sg75
(lp1053
S':'
asbag68
(g89
g70
NtRp1054
(dp1055
g73
(dp1056
sg82
g1042
sg75
(lp1057
g68
(g69
g70
NtRp1058
(dp1059
g73
(dp1060
g81
I3
ssg82
g1054
sg75
(lp1061
S''
asbasbasbag68
(g84
g70
NtRp1062
(dp1063
g73
(dp1064
sg82
g1018
sg75
(lp1065
g68
(g89
g70
NtRp1066
(dp1067
g73
(dp1068
g93
g94
ssg82
g1062
sg75
(lp1069
g324
asbag68
(g89
g70
NtRp1070
(dp1071
g73
(dp1072
g100
g101
ssg82
g1062
sg75
(lp1073
S':'
asbag68
(g89
g70
NtRp1074
(dp1075
g73
(dp1076
sg82
g1062
sg75
(lp1077
g68
(g69
g70
NtRp1078
(dp1079
g73
(dp1080
g81
I3
ssg82
g1074
sg75
(lp1081
S''
asbasbasbag68
(g84
g70
NtRp1082
(dp1083
g73
(dp1084
sg82
g1018
sg75
(lp1085
g68
(g89
g70
NtRp1086
(dp1087
g73
(dp1088
g93
g94
ssg82
g1082
sg75
(lp1089
g345
asbag68
(g89
g70
NtRp1090
(dp1091
g73
(dp1092
g100
g101
ssg82
g1082
sg75
(lp1093
S':'
asbag68
(g89
g70
NtRp1094
(dp1095
g73
(dp1096
sg82
g1082
sg75
(lp1097
g68
(g69
g70
NtRp1098
(dp1099
g73
(dp1100
g81
I3
ssg82
g1094
sg75
(lp1101
S''
asbasbasbag68
(g84
g70
NtRp1102
(dp1103
g73
(dp1104
sg82
g1018
sg75
(lp1105
g68
(g89
g70
NtRp1106
(dp1107
g73
(dp1108
g93
g94
ssg82
g1102
sg75
(lp1109
g366
asbag68
(g89
g70
NtRp1110
(dp1111
g73
(dp1112
g100
g101
ssg82
g1102
sg75
(lp1113
S':'
asbag68
(g89
g70
NtRp1114
(dp1115
g73
(dp1116
sg82
g1102
sg75
(lp1117
g68
(g69
g70
NtRp1118
(dp1119
g73
(dp1120
g81
I3
ssg82
g1114
sg75
(lp1121
S''
asbasbasbag68
(g84
g70
NtRp1122
(dp1123
g73
(dp1124
sg82
g1018
sg75
(lp1125
g68
(g89
g70
NtRp1126
(dp1127
g73
(dp1128
g93
g94
ssg82
g1122
sg75
(lp1129
g387
asbag68
(g89
g70
NtRp1130
(dp1131
g73
(dp1132
g100
g101
ssg82
g1122
sg75
(lp1133
S':'
asbag68
(g89
g70
NtRp1134
(dp1135
g73
(dp1136
sg82
g1122
sg75
(lp1137
g68
(g69
g70
NtRp1138
(dp1139
g73
(dp1140
g81
I3
ssg82
g1134
sg75
(lp1141
S''
asbasbasbag68
(g84
g70
NtRp1142
(dp1143
g73
(dp1144
sg82
g1018
sg75
(lp1145
g68
(g89
g70
NtRp1146
(dp1147
g73
(dp1148
g93
g94
ssg82
g1142
sg75
(lp1149
g408
asbag68
(g89
g70
NtRp1150
(dp1151
g73
(dp1152
g100
g101
ssg82
g1142
sg75
(lp1153
S':'
asbag68
(g89
g70
NtRp1154
(dp1155
g73
(dp1156
sg82
g1142
sg75
(lp1157
g68
(g69
g70
NtRp1158
(dp1159
g73
(dp1160
g81
I3
ssg82
g1154
sg75
(lp1161
S''
asbasbasbag68
(g84
g70
NtRp1162
(dp1163
g73
(dp1164
sg82
g1018
sg75
(lp1165
g68
(g89
g70
NtRp1166
(dp1167
g73
(dp1168
g93
g94
ssg82
g1162
sg75
(lp1169
g429
asbag68
(g89
g70
NtRp1170
(dp1171
g73
(dp1172
g100
g101
ssg82
g1162
sg75
(lp1173
S':'
asbag68
(g89
g70
NtRp1174
(dp1175
g73
(dp1176
sg82
g1162
sg75
(lp1177
g68
(g69
g70
NtRp1178
(dp1179
g73
(dp1180
g81
I3
ssg82
g1174
sg75
(lp1181
S''
asbasbasbasbasbasbasbag68
(g84
g70
NtRp1182
(dp1183
g73
(dp1184
sg82
g245
sg75
(lp1185
g68
(g89
g70
NtRp1186
(dp1187
g73
(dp1188
g93
g94
ssg82
g1182
sg75
(lp1189
S'session_id_welcome'
p1190
asbag68
(g89
g70
NtRp1191
(dp1192
g73
(dp1193
g100
g101
ssg82
g1182
sg75
(lp1194
S':'
asbag68
(g89
g70
NtRp1195
(dp1196
g73
(dp1197
sg82
g1182
sg75
(lp1198
g68
(g69
g70
NtRp1199
(dp1200
g73
(dp1201
g81
I4
ssg82
g1195
sg75
(lp1202
g68
(g77
g70
NtRp1203
(dp1204
g73
(dp1205
g81
I3
ssg82
Nsg75
(lp1206
g68
(g84
g70
NtRp1207
(dp1208
g73
(dp1209
sg82
g1203
sg75
(lp1210
g68
(g89
g70
NtRp1211
(dp1212
g73
(dp1213
g93
g94
ssg82
g1207
sg75
(lp1214
g282
asbag68
(g89
g70
NtRp1215
(dp1216
g73
(dp1217
g100
g101
ssg82
g1207
sg75
(lp1218
S':'
asbag68
(g89
g70
NtRp1219
(dp1220
g73
(dp1221
sg82
g1207
sg75
(lp1222
g68
(g69
g70
NtRp1223
(dp1224
g73
(dp1225
g81
I3
ssg82
g1219
sg75
(lp1226
S''
asbasbasbag68
(g84
g70
NtRp1227
(dp1228
g73
(dp1229
sg82
g1203
sg75
(lp1230
g68
(g89
g70
NtRp1231
(dp1232
g73
(dp1233
g93
g94
ssg82
g1227
sg75
(lp1234
g303
asbag68
(g89
g70
NtRp1235
(dp1236
g73
(dp1237
g100
g101
ssg82
g1227
sg75
(lp1238
S':'
asbag68
(g89
g70
NtRp1239
(dp1240
g73
(dp1241
sg82
g1227
sg75
(lp1242
g68
(g69
g70
NtRp1243
(dp1244
g73
(dp1245
g81
I3
ssg82
g1239
sg75
(lp1246
S''
asbasbasbag68
(g84
g70
NtRp1247
(dp1248
g73
(dp1249
sg82
g1203
sg75
(lp1250
g68
(g89
g70
NtRp1251
(dp1252
g73
(dp1253
g93
g94
ssg82
g1247
sg75
(lp1254
g324
asbag68
(g89
g70
NtRp1255
(dp1256
g73
(dp1257
g100
g101
ssg82
g1247
sg75
(lp1258
S':'
asbag68
(g89
g70
NtRp1259
(dp1260
g73
(dp1261
sg82
g1247
sg75
(lp1262
g68
(g69
g70
NtRp1263
(dp1264
g73
(dp1265
g81
I3
ssg82
g1259
sg75
(lp1266
S''
asbasbasbag68
(g84
g70
NtRp1267
(dp1268
g73
(dp1269
sg82
g1203
sg75
(lp1270
g68
(g89
g70
NtRp1271
(dp1272
g73
(dp1273
g93
g94
ssg82
g1267
sg75
(lp1274
g345
asbag68
(g89
g70
NtRp1275
(dp1276
g73
(dp1277
g100
g101
ssg82
g1267
sg75
(lp1278
S':'
asbag68
(g89
g70
NtRp1279
(dp1280
g73
(dp1281
sg82
g1267
sg75
(lp1282
g68
(g69
g70
NtRp1283
(dp1284
g73
(dp1285
g81
I3
ssg82
g1279
sg75
(lp1286
S''
asbasbasbag68
(g84
g70
NtRp1287
(dp1288
g73
(dp1289
sg82
g1203
sg75
(lp1290
g68
(g89
g70
NtRp1291
(dp1292
g73
(dp1293
g93
g94
ssg82
g1287
sg75
(lp1294
g366
asbag68
(g89
g70
NtRp1295
(dp1296
g73
(dp1297
g100
g101
ssg82
g1287
sg75
(lp1298
S':'
asbag68
(g89
g70
NtRp1299
(dp1300
g73
(dp1301
sg82
g1287
sg75
(lp1302
g68
(g69
g70
NtRp1303
(dp1304
g73
(dp1305
g81
I3
ssg82
g1299
sg75
(lp1306
S''
asbasbasbag68
(g84
g70
NtRp1307
(dp1308
g73
(dp1309
sg82
g1203
sg75
(lp1310
g68
(g89
g70
NtRp1311
(dp1312
g73
(dp1313
g93
g94
ssg82
g1307
sg75
(lp1314
g387
asbag68
(g89
g70
NtRp1315
(dp1316
g73
(dp1317
g100
g101
ssg82
g1307
sg75
(lp1318
S':'
asbag68
(g89
g70
NtRp1319
(dp1320
g73
(dp1321
sg82
g1307
sg75
(lp1322
g68
(g69
g70
NtRp1323
(dp1324
g73
(dp1325
g81
I3
ssg82
g1319
sg75
(lp1326
S''
asbasbasbag68
(g84
g70
NtRp1327
(dp1328
g73
(dp1329
sg82
g1203
sg75
(lp1330
g68
(g89
g70
NtRp1331
(dp1332
g73
(dp1333
g93
g94
ssg82
g1327
sg75
(lp1334
g408
asbag68
(g89
g70
NtRp1335
(dp1336
g73
(dp1337
g100
g101
ssg82
g1327
sg75
(lp1338
S':'
asbag68
(g89
g70
NtRp1339
(dp1340
g73
(dp1341
sg82
g1327
sg75
(lp1342
g68
(g69
g70
NtRp1343
(dp1344
g73
(dp1345
g81
I3
ssg82
g1339
sg75
(lp1346
S''
asbasbasbag68
(g84
g70
NtRp1347
(dp1348
g73
(dp1349
sg82
g1203
sg75
(lp1350
g68
(g89
g70
NtRp1351
(dp1352
g73
(dp1353
g93
g94
ssg82
g1347
sg75
(lp1354
g429
asbag68
(g89
g70
NtRp1355
(dp1356
g73
(dp1357
g100
g101
ssg82
g1347
sg75
(lp1358
S':'
asbag68
(g89
g70
NtRp1359
(dp1360
g73
(dp1361
sg82
g1347
sg75
(lp1362
g68
(g69
g70
NtRp1363
(dp1364
g73
(dp1365
g81
I3
ssg82
g1359
sg75
(lp1366
S''
asbasbasbasbasbasbasbasbasbasbasbag68
(g84
g70
NtRp1367
(dp1368
g73
(dp1369
sg82
g78
sg75
(lp1370
g68
(g89
g70
NtRp1371
(dp1372
g73
(dp1373
g93
g94
ssg82
g1367
sg75
(lp1374
S'env'
p1375
asbag68
(g89
g70
NtRp1376
(dp1377
g73
(dp1378
g100
g101
ssg82
g1367
sg75
(lp1379
S':'
asbag68
(g89
g70
NtRp1380
(dp1381
g73
(dp1382
sg82
g1367
sg75
(lp1383
g68
(g69
g70
NtRp1384
(dp1385
g73
(dp1386
g81
I5
ssg82
g1380
sg75
(lp1387
g68
(g77
g70
NtRp1388
(dp1389
g73
(dp1390
g81
I4
ssg82
Nsg75
(lp1391
g68
(g84
g70
NtRp1392
(dp1393
g73
(dp1394
sg82
g1388
sg75
(lp1395
g68
(g89
g70
NtRp1396
(dp1397
g73
(dp1398
g93
g94
ssg82
g1392
sg75
(lp1399
S'app_folders'
p1400
asbag68
(g89
g70
NtRp1401
(dp1402
g73
(dp1403
g100
g101
ssg82
g1392
sg75
(lp1404
S':'
asbag68
(g89
g70
NtRp1405
(dp1406
g73
(dp1407
sg82
g1392
sg75
(lp1408
g68
(g69
g70
NtRp1409
(dp1410
g73
(dp1411
g81
I4
ssg82
g1405
sg75
(lp1412
S"set(['/Users/emir/Documents/beardcode/web2py/applications/randomwords/', '/Users/emir/Documents/beardcode/web2py/applications/admin/', '/Users/emir/Documents/beardcode/web2py/applications/fayol/'])"
p1413
asbasbasbag68
(g84
g70
NtRp1414
(dp1415
g73
(dp1416
sg82
g1388
sg75
(lp1417
g68
(g89
g70
NtRp1418
(dp1419
g73
(dp1420
g93
g94
ssg82
g1414
sg75
(lp1421
S'applications_parent'
p1422
asbag68
(g89
g70
NtRp1423
(dp1424
g73
(dp1425
g100
g101
ssg82
g1414
sg75
(lp1426
S':'
asbag68
(g89
g70
NtRp1427
(dp1428
g73
(dp1429
sg82
g1414
sg75
(lp1430
g68
(g69
g70
NtRp1431
(dp1432
g73
(dp1433
g81
I4
ssg82
g1427
sg75
(lp1434
S'/Users/emir/Documents/beardcode/web2py'
p1435
asbasbasbag68
(g84
g70
NtRp1436
(dp1437
g73
(dp1438
sg82
g1388
sg75
(lp1439
g68
(g89
g70
NtRp1440
(dp1441
g73
(dp1442
g93
g94
ssg82
g1436
sg75
(lp1443
S'db_sessions'
p1444
asbag68
(g89
g70
NtRp1445
(dp1446
g73
(dp1447
g100
g101
ssg82
g1436
sg75
(lp1448
S':'
asbag68
(g89
g70
NtRp1449
(dp1450
g73
(dp1451
sg82
g1436
sg75
(lp1452
g68
(g69
g70
NtRp1453
(dp1454
g73
(dp1455
g81
I4
ssg82
g1449
sg75
(lp1456
S'set([])'
p1457
asbasbasbag68
(g84
g70
NtRp1458
(dp1459
g73
(dp1460
sg82
g1388
sg75
(lp1461
g68
(g89
g70
NtRp1462
(dp1463
g73
(dp1464
g93
g94
ssg82
g1458
sg75
(lp1465
S'debugging'
p1466
asbag68
(g89
g70
NtRp1467
(dp1468
g73
(dp1469
g100
g101
ssg82
g1458
sg75
(lp1470
S':'
asbag68
(g89
g70
NtRp1471
(dp1472
g73
(dp1473
sg82
g1458
sg75
(lp1474
g68
(g69
g70
NtRp1475
(dp1476
g73
(dp1477
g81
I4
ssg82
g1471
sg75
(lp1478
g111
asbasbasbag68
(g84
g70
NtRp1479
(dp1480
g73
(dp1481
sg82
g1388
sg75
(lp1482
g68
(g89
g70
NtRp1483
(dp1484
g73
(dp1485
g93
g94
ssg82
g1479
sg75
(lp1486
S'document_root'
p1487
asbag68
(g89
g70
NtRp1488
(dp1489
g73
(dp1490
g100
g101
ssg82
g1479
sg75
(lp1491
S':'
asbag68
(g89
g70
NtRp1492
(dp1493
g73
(dp1494
sg82
g1479
sg75
(lp1495
g68
(g69
g70
NtRp1496
(dp1497
g73
(dp1498
g81
I4
ssg82
g1492
sg75
(lp1499
S'/Library/WebServer/Documents'
p1500
asbasbasbag68
(g84
g70
NtRp1501
(dp1502
g73
(dp1503
sg82
g1388
sg75
(lp1504
g68
(g89
g70
NtRp1505
(dp1506
g73
(dp1507
g93
g94
ssg82
g1501
sg75
(lp1508
S'gateway_interface'
p1509
asbag68
(g89
g70
NtRp1510
(dp1511
g73
(dp1512
g100
g101
ssg82
g1501
sg75
(lp1513
S':'
asbag68
(g89
g70
NtRp1514
(dp1515
g73
(dp1516
sg82
g1501
sg75
(lp1517
g68
(g69
g70
NtRp1518
(dp1519
g73
(dp1520
g81
I4
ssg82
g1514
sg75
(lp1521
S'CGI/1.1'
p1522
asbasbasbag68
(g84
g70
NtRp1523
(dp1524
g73
(dp1525
sg82
g1388
sg75
(lp1526
g68
(g89
g70
NtRp1527
(dp1528
g73
(dp1529
g93
g94
ssg82
g1523
sg75
(lp1530
S'gluon_parent'
p1531
asbag68
(g89
g70
NtRp1532
(dp1533
g73
(dp1534
g100
g101
ssg82
g1523
sg75
(lp1535
S':'
asbag68
(g89
g70
NtRp1536
(dp1537
g73
(dp1538
sg82
g1523
sg75
(lp1539
g68
(g69
g70
NtRp1540
(dp1541
g73
(dp1542
g81
I4
ssg82
g1536
sg75
(lp1543
g1435
asbasbasbag68
(g84
g70
NtRp1544
(dp1545
g73
(dp1546
sg82
g1388
sg75
(lp1547
g68
(g89
g70
NtRp1548
(dp1549
g73
(dp1550
g93
g94
ssg82
g1544
sg75
(lp1551
S'http_accept'
p1552
asbag68
(g89
g70
NtRp1553
(dp1554
g73
(dp1555
g100
g101
ssg82
g1544
sg75
(lp1556
S':'
asbag68
(g89
g70
NtRp1557
(dp1558
g73
(dp1559
sg82
g1544
sg75
(lp1560
g68
(g69
g70
NtRp1561
(dp1562
g73
(dp1563
g81
I4
ssg82
g1557
sg75
(lp1564
S'text/html,application/xhtml+xml,application/xml;q=0.9,*/*;q=0.8'
p1565
asbasbasbag68
(g84
g70
NtRp1566
(dp1567
g73
(dp1568
sg82
g1388
sg75
(lp1569
g68
(g89
g70
NtRp1570
(dp1571
g73
(dp1572
g93
g94
ssg82
g1566
sg75
(lp1573
S'http_accept_charset'
p1574
asbag68
(g89
g70
NtRp1575
(dp1576
g73
(dp1577
g100
g101
ssg82
g1566
sg75
(lp1578
S':'
asbag68
(g89
g70
NtRp1579
(dp1580
g73
(dp1581
sg82
g1566
sg75
(lp1582
g68
(g69
g70
NtRp1583
(dp1584
g73
(dp1585
g81
I4
ssg82
g1579
sg75
(lp1586
S'ISO-8859-1,utf-8;q=0.7,*;q=0.3'
p1587
asbasbasbag68
(g84
g70
NtRp1588
(dp1589
g73
(dp1590
sg82
g1388
sg75
(lp1591
g68
(g89
g70
NtRp1592
(dp1593
g73
(dp1594
g93
g94
ssg82
g1588
sg75
(lp1595
S'http_accept_encoding'
p1596
asbag68
(g89
g70
NtRp1597
(dp1598
g73
(dp1599
g100
g101
ssg82
g1588
sg75
(lp1600
S':'
asbag68
(g89
g70
NtRp1601
(dp1602
g73
(dp1603
sg82
g1588
sg75
(lp1604
g68
(g69
g70
NtRp1605
(dp1606
g73
(dp1607
g81
I4
ssg82
g1601
sg75
(lp1608
S'gzip,deflate,sdch'
p1609
asbasbasbag68
(g84
g70
NtRp1610
(dp1611
g73
(dp1612
sg82
g1388
sg75
(lp1613
g68
(g89
g70
NtRp1614
(dp1615
g73
(dp1616
g93
g94
ssg82
g1610
sg75
(lp1617
S'http_accept_language'
p1618
asbag68
(g89
g70
NtRp1619
(dp1620
g73
(dp1621
g100
g101
ssg82
g1610
sg75
(lp1622
S':'
asbag68
(g89
g70
NtRp1623
(dp1624
g73
(dp1625
sg82
g1610
sg75
(lp1626
g68
(g69
g70
NtRp1627
(dp1628
g73
(dp1629
g81
I4
ssg82
g1623
sg75
(lp1630
S'es-ES,es;q=0.8'
p1631
asbasbasbag68
(g84
g70
NtRp1632
(dp1633
g73
(dp1634
sg82
g1388
sg75
(lp1635
g68
(g89
g70
NtRp1636
(dp1637
g73
(dp1638
g93
g94
ssg82
g1632
sg75
(lp1639
S'http_cache_control'
p1640
asbag68
(g89
g70
NtRp1641
(dp1642
g73
(dp1643
g100
g101
ssg82
g1632
sg75
(lp1644
S':'
asbag68
(g89
g70
NtRp1645
(dp1646
g73
(dp1647
sg82
g1632
sg75
(lp1648
g68
(g69
g70
NtRp1649
(dp1650
g73
(dp1651
g81
I4
ssg82
g1645
sg75
(lp1652
S'max-age=0'
p1653
asbasbasbag68
(g84
g70
NtRp1654
(dp1655
g73
(dp1656
sg82
g1388
sg75
(lp1657
g68
(g89
g70
NtRp1658
(dp1659
g73
(dp1660
g93
g94
ssg82
g1654
sg75
(lp1661
S'http_connection'
p1662
asbag68
(g89
g70
NtRp1663
(dp1664
g73
(dp1665
g100
g101
ssg82
g1654
sg75
(lp1666
S':'
asbag68
(g89
g70
NtRp1667
(dp1668
g73
(dp1669
sg82
g1654
sg75
(lp1670
g68
(g69
g70
NtRp1671
(dp1672
g73
(dp1673
g81
I4
ssg82
g1667
sg75
(lp1674
S'keep-alive'
p1675
asbasbasbag68
(g84
g70
NtRp1676
(dp1677
g73
(dp1678
sg82
g1388
sg75
(lp1679
g68
(g89
g70
NtRp1680
(dp1681
g73
(dp1682
g93
g94
ssg82
g1676
sg75
(lp1683
S'http_cookie'
p1684
asbag68
(g89
g70
NtRp1685
(dp1686
g73
(dp1687
g100
g101
ssg82
g1676
sg75
(lp1688
S':'
asbag68
(g89
g70
NtRp1689
(dp1690
g73
(dp1691
sg82
g1676
sg75
(lp1692
g68
(g69
g70
NtRp1693
(dp1694
g73
(dp1695
g81
I4
ssg82
g1689
sg75
(lp1696
S'session_id_contador=127.0.0.1-2b69a554-5d73-450d-a1a3-2f7111772fbb; session_id_nombres=127.0.0.1-84743359-6fda-477d-8d9d-bdd73eec2878; session_id_randomwords=127.0.0.1-5b6c85d6-c0b7-4009-b803-334737663b75; session_id_welcome=127.0.0.1-26ca6cd3-84d7-4753-ad50-3b7ae1bcfc78; session_id_admin=127.0.0.1-eb1bfc92-b1d7-40f5-bac2-0727bba915fa; session_id_fayol=127.0.0.1-0854e35e-d8e5-4e6c-987e-d832e122be25'
p1697
asbasbasbag68
(g84
g70
NtRp1698
(dp1699
g73
(dp1700
sg82
g1388
sg75
(lp1701
g68
(g89
g70
NtRp1702
(dp1703
g73
(dp1704
g93
g94
ssg82
g1698
sg75
(lp1705
S'http_host'
p1706
asbag68
(g89
g70
NtRp1707
(dp1708
g73
(dp1709
g100
g101
ssg82
g1698
sg75
(lp1710
S':'
asbag68
(g89
g70
NtRp1711
(dp1712
g73
(dp1713
sg82
g1698
sg75
(lp1714
g68
(g69
g70
NtRp1715
(dp1716
g73
(dp1717
g81
I4
ssg82
g1711
sg75
(lp1718
S'web2py'
p1719
asbasbasbag68
(g84
g70
NtRp1720
(dp1721
g73
(dp1722
sg82
g1388
sg75
(lp1723
g68
(g89
g70
NtRp1724
(dp1725
g73
(dp1726
g93
g94
ssg82
g1720
sg75
(lp1727
S'http_user_agent'
p1728
asbag68
(g89
g70
NtRp1729
(dp1730
g73
(dp1731
g100
g101
ssg82
g1720
sg75
(lp1732
S':'
asbag68
(g89
g70
NtRp1733
(dp1734
g73
(dp1735
sg82
g1720
sg75
(lp1736
g68
(g69
g70
NtRp1737
(dp1738
g73
(dp1739
g81
I4
ssg82
g1733
sg75
(lp1740
S'Mozilla/5.0 (Macintosh; Intel Mac OS X 10_8_0) AppleWebKit/537.1 (KHTML, like Gecko) Chrome/21.0.1180.75 Safari/537.1'
p1741
asbasbasbag68
(g84
g70
NtRp1742
(dp1743
g73
(dp1744
sg82
g1388
sg75
(lp1745
g68
(g89
g70
NtRp1746
(dp1747
g73
(dp1748
g93
g94
ssg82
g1742
sg75
(lp1749
S'is_jython'
p1750
asbag68
(g89
g70
NtRp1751
(dp1752
g73
(dp1753
g100
g101
ssg82
g1742
sg75
(lp1754
S':'
asbag68
(g89
g70
NtRp1755
(dp1756
g73
(dp1757
sg82
g1742
sg75
(lp1758
g68
(g69
g70
NtRp1759
(dp1760
g73
(dp1761
g81
I4
ssg82
g1755
sg75
(lp1762
g111
asbasbasbag68
(g84
g70
NtRp1763
(dp1764
g73
(dp1765
sg82
g1388
sg75
(lp1766
g68
(g89
g70
NtRp1767
(dp1768
g73
(dp1769
g93
g94
ssg82
g1763
sg75
(lp1770
S'is_pypy'
p1771
asbag68
(g89
g70
NtRp1772
(dp1773
g73
(dp1774
g100
g101
ssg82
g1763
sg75
(lp1775
S':'
asbag68
(g89
g70
NtRp1776
(dp1777
g73
(dp1778
sg82
g1763
sg75
(lp1779
g68
(g69
g70
NtRp1780
(dp1781
g73
(dp1782
g81
I4
ssg82
g1776
sg75
(lp1783
g111
asbasbasbag68
(g84
g70
NtRp1784
(dp1785
g73
(dp1786
sg82
g1388
sg75
(lp1787
g68
(g89
g70
NtRp1788
(dp1789
g73
(dp1790
g93
g94
ssg82
g1784
sg75
(lp1791
S'mod_wsgi_application_group'
p1792
asbag68
(g89
g70
NtRp1793
(dp1794
g73
(dp1795
g100
g101
ssg82
g1784
sg75
(lp1796
S':'
asbag68
(g89
g70
NtRp1797
(dp1798
g73
(dp1799
sg82
g1784
sg75
(lp1800
g68
(g69
g70
NtRp1801
(dp1802
g73
(dp1803
g81
I4
ssg82
g1797
sg75
(lp1804
S'web2py|'
p1805
asbasbasbag68
(g84
g70
NtRp1806
(dp1807
g73
(dp1808
sg82
g1388
sg75
(lp1809
g68
(g89
g70
NtRp1810
(dp1811
g73
(dp1812
g93
g94
ssg82
g1806
sg75
(lp1813
S'mod_wsgi_callable_object'
p1814
asbag68
(g89
g70
NtRp1815
(dp1816
g73
(dp1817
g100
g101
ssg82
g1806
sg75
(lp1818
S':'
asbag68
(g89
g70
NtRp1819
(dp1820
g73
(dp1821
sg82
g1806
sg75
(lp1822
g68
(g69
g70
NtRp1823
(dp1824
g73
(dp1825
g81
I4
ssg82
g1819
sg75
(lp1826
S'application'
p1827
asbasbasbag68
(g84
g70
NtRp1828
(dp1829
g73
(dp1830
sg82
g1388
sg75
(lp1831
g68
(g89
g70
NtRp1832
(dp1833
g73
(dp1834
g93
g94
ssg82
g1828
sg75
(lp1835
S'mod_wsgi_handler_script'
p1836
asbag68
(g89
g70
NtRp1837
(dp1838
g73
(dp1839
g100
g101
ssg82
g1828
sg75
(lp1840
S':'
asbag68
(g89
g70
NtRp1841
(dp1842
g73
(dp1843
sg82
g1828
sg75
(lp1844
g68
(g69
g70
NtRp1845
(dp1846
g73
(dp1847
g81
I4
ssg82
g1841
sg75
(lp1848
S''
asbasbasbag68
(g84
g70
NtRp1849
(dp1850
g73
(dp1851
sg82
g1388
sg75
(lp1852
g68
(g89
g70
NtRp1853
(dp1854
g73
(dp1855
g93
g94
ssg82
g1849
sg75
(lp1856
S'mod_wsgi_input_chunked'
p1857
asbag68
(g89
g70
NtRp1858
(dp1859
g73
(dp1860
g100
g101
ssg82
g1849
sg75
(lp1861
S':'
asbag68
(g89
g70
NtRp1862
(dp1863
g73
(dp1864
sg82
g1849
sg75
(lp1865
g68
(g69
g70
NtRp1866
(dp1867
g73
(dp1868
g81
I4
ssg82
g1862
sg75
(lp1869
S'0'
asbasbasbag68
(g84
g70
NtRp1870
(dp1871
g73
(dp1872
sg82
g1388
sg75
(lp1873
g68
(g89
g70
NtRp1874
(dp1875
g73
(dp1876
g93
g94
ssg82
g1870
sg75
(lp1877
S'mod_wsgi_listener_host'
p1878
asbag68
(g89
g70
NtRp1879
(dp1880
g73
(dp1881
g100
g101
ssg82
g1870
sg75
(lp1882
S':'
asbag68
(g89
g70
NtRp1883
(dp1884
g73
(dp1885
sg82
g1870
sg75
(lp1886
g68
(g69
g70
NtRp1887
(dp1888
g73
(dp1889
g81
I4
ssg82
g1883
sg75
(lp1890
S''
asbasbasbag68
(g84
g70
NtRp1891
(dp1892
g73
(dp1893
sg82
g1388
sg75
(lp1894
g68
(g89
g70
NtRp1895
(dp1896
g73
(dp1897
g93
g94
ssg82
g1891
sg75
(lp1898
S'mod_wsgi_listener_port'
p1899
asbag68
(g89
g70
NtRp1900
(dp1901
g73
(dp1902
g100
g101
ssg82
g1891
sg75
(lp1903
S':'
asbag68
(g89
g70
NtRp1904
(dp1905
g73
(dp1906
sg82
g1891
sg75
(lp1907
g68
(g69
g70
NtRp1908
(dp1909
g73
(dp1910
g81
I4
ssg82
g1904
sg75
(lp1911
S'80'
p1912
asbasbasbag68
(g84
g70
NtRp1913
(dp1914
g73
(dp1915
sg82
g1388
sg75
(lp1916
g68
(g89
g70
NtRp1917
(dp1918
g73
(dp1919
g93
g94
ssg82
g1913
sg75
(lp1920
S'mod_wsgi_process_group'
p1921
asbag68
(g89
g70
NtRp1922
(dp1923
g73
(dp1924
g100
g101
ssg82
g1913
sg75
(lp1925
S':'
asbag68
(g89
g70
NtRp1926
(dp1927
g73
(dp1928
sg82
g1913
sg75
(lp1929
g68
(g69
g70
NtRp1930
(dp1931
g73
(dp1932
g81
I4
ssg82
g1926
sg75
(lp1933
S''
asbasbasbag68
(g84
g70
NtRp1934
(dp1935
g73
(dp1936
sg82
g1388
sg75
(lp1937
g68
(g89
g70
NtRp1938
(dp1939
g73
(dp1940
g93
g94
ssg82
g1934
sg75
(lp1941
S'mod_wsgi_request_handler'
p1942
asbag68
(g89
g70
NtRp1943
(dp1944
g73
(dp1945
g100
g101
ssg82
g1934
sg75
(lp1946
S':'
asbag68
(g89
g70
NtRp1947
(dp1948
g73
(dp1949
sg82
g1934
sg75
(lp1950
g68
(g69
g70
NtRp1951
(dp1952
g73
(dp1953
g81
I4
ssg82
g1947
sg75
(lp1954
S'wsgi-script'
p1955
asbasbasbag68
(g84
g70
NtRp1956
(dp1957
g73
(dp1958
sg82
g1388
sg75
(lp1959
g68
(g89
g70
NtRp1960
(dp1961
g73
(dp1962
g93
g94
ssg82
g1956
sg75
(lp1963
S'mod_wsgi_script_reloading'
p1964
asbag68
(g89
g70
NtRp1965
(dp1966
g73
(dp1967
g100
g101
ssg82
g1956
sg75
(lp1968
S':'
asbag68
(g89
g70
NtRp1969
(dp1970
g73
(dp1971
sg82
g1956
sg75
(lp1972
g68
(g69
g70
NtRp1973
(dp1974
g73
(dp1975
g81
I4
ssg82
g1969
sg75
(lp1976
S'1'
asbasbasbag68
(g84
g70
NtRp1977
(dp1978
g73
(dp1979
sg82
g1388
sg75
(lp1980
g68
(g89
g70
NtRp1981
(dp1982
g73
(dp1983
g93
g94
ssg82
g1977
sg75
(lp1984
S'mod_wsgi_version'
p1985
asbag68
(g89
g70
NtRp1986
(dp1987
g73
(dp1988
g100
g101
ssg82
g1977
sg75
(lp1989
S':'
asbag68
(g89
g70
NtRp1990
(dp1991
g73
(dp1992
sg82
g1977
sg75
(lp1993
g68
(g69
g70
NtRp1994
(dp1995
g73
(dp1996
g81
I4
ssg82
g1990
sg75
(lp1997
g68
(g77
g70
NtRp1998
(dp1999
g73
(dp2000
g81
I3
ssg82
Nsg75
(lp2001
g68
(g84
g70
NtRp2002
(dp2003
g73
(dp2004
sg82
g1998
sg75
(lp2005
g68
(g89
g70
NtRp2006
(dp2007
g73
(dp2008
sg82
g2002
sg75
(lp2009
g68
(g69
g70
NtRp2010
(dp2011
g73
(dp2012
g81
I3
ssg82
g2006
sg75
(lp2013
S'3'
asbasbasbag68
(g84
g70
NtRp2014
(dp2015
g73
(dp2016
sg82
g1998
sg75
(lp2017
g68
(g89
g70
NtRp2018
(dp2019
g73
(dp2020
sg82
g2014
sg75
(lp2021
g68
(g69
g70
NtRp2022
(dp2023
g73
(dp2024
g81
I3
ssg82
g2018
sg75
(lp2025
S'3'
asbasbasbasbasbasbasbag68
(g84
g70
NtRp2026
(dp2027
g73
(dp2028
sg82
g1388
sg75
(lp2029
g68
(g89
g70
NtRp2030
(dp2031
g73
(dp2032
g93
g94
ssg82
g2026
sg75
(lp2033
S'path_info'
p2034
asbag68
(g89
g70
NtRp2035
(dp2036
g73
(dp2037
g100
g101
ssg82
g2026
sg75
(lp2038
S':'
asbag68
(g89
g70
NtRp2039
(dp2040
g73
(dp2041
sg82
g2026
sg75
(lp2042
g68
(g69
g70
NtRp2043
(dp2044
g73
(dp2045
g81
I4
ssg82
g2039
sg75
(lp2046
S'/fayol'
p2047
asbasbasbag68
(g84
g70
NtRp2048
(dp2049
g73
(dp2050
sg82
g1388
sg75
(lp2051
g68
(g89
g70
NtRp2052
(dp2053
g73
(dp2054
g93
g94
ssg82
g2048
sg75
(lp2055
S'path_translated'
p2056
asbag68
(g89
g70
NtRp2057
(dp2058
g73
(dp2059
g100
g101
ssg82
g2048
sg75
(lp2060
S':'
asbag68
(g89
g70
NtRp2061
(dp2062
g73
(dp2063
sg82
g2048
sg75
(lp2064
g68
(g69
g70
NtRp2065
(dp2066
g73
(dp2067
g81
I4
ssg82
g2061
sg75
(lp2068
S'/Users/emir/Documents/beardcode/web2py/wsgihandler.py/fayol'
p2069
asbasbasbag68
(g84
g70
NtRp2070
(dp2071
g73
(dp2072
sg82
g1388
sg75
(lp2073
g68
(g89
g70
NtRp2074
(dp2075
g73
(dp2076
g93
g94
ssg82
g2070
sg75
(lp2077
S'query_string'
p2078
asbag68
(g89
g70
NtRp2079
(dp2080
g73
(dp2081
g100
g101
ssg82
g2070
sg75
(lp2082
S':'
asbag68
(g89
g70
NtRp2083
(dp2084
g73
(dp2085
sg82
g2070
sg75
(lp2086
g68
(g69
g70
NtRp2087
(dp2088
g73
(dp2089
g81
I4
ssg82
g2083
sg75
(lp2090
S''
asbasbasbag68
(g84
g70
NtRp2091
(dp2092
g73
(dp2093
sg82
g1388
sg75
(lp2094
g68
(g89
g70
NtRp2095
(dp2096
g73
(dp2097
g93
g94
ssg82
g2091
sg75
(lp2098
S'remote_addr'
p2099
asbag68
(g89
g70
NtRp2100
(dp2101
g73
(dp2102
g100
g101
ssg82
g2091
sg75
(lp2103
S':'
asbag68
(g89
g70
NtRp2104
(dp2105
g73
(dp2106
sg82
g2091
sg75
(lp2107
g68
(g69
g70
NtRp2108
(dp2109
g73
(dp2110
g81
I4
ssg82
g2104
sg75
(lp2111
g201
asbasbasbag68
(g84
g70
NtRp2112
(dp2113
g73
(dp2114
sg82
g1388
sg75
(lp2115
g68
(g89
g70
NtRp2116
(dp2117
g73
(dp2118
g93
g94
ssg82
g2112
sg75
(lp2119
S'remote_port'
p2120
asbag68
(g89
g70
NtRp2121
(dp2122
g73
(dp2123
g100
g101
ssg82
g2112
sg75
(lp2124
S':'
asbag68
(g89
g70
NtRp2125
(dp2126
g73
(dp2127
sg82
g2112
sg75
(lp2128
g68
(g69
g70
NtRp2129
(dp2130
g73
(dp2131
g81
I4
ssg82
g2125
sg75
(lp2132
S'62972'
p2133
asbasbasbag68
(g84
g70
NtRp2134
(dp2135
g73
(dp2136
sg82
g1388
sg75
(lp2137
g68
(g89
g70
NtRp2138
(dp2139
g73
(dp2140
g93
g94
ssg82
g2134
sg75
(lp2141
S'request_method'
p2142
asbag68
(g89
g70
NtRp2143
(dp2144
g73
(dp2145
g100
g101
ssg82
g2134
sg75
(lp2146
S':'
asbag68
(g89
g70
NtRp2147
(dp2148
g73
(dp2149
sg82
g2134
sg75
(lp2150
g68
(g69
g70
NtRp2151
(dp2152
g73
(dp2153
g81
I4
ssg82
g2147
sg75
(lp2154
S'GET'
p2155
asbasbasbag68
(g84
g70
NtRp2156
(dp2157
g73
(dp2158
sg82
g1388
sg75
(lp2159
g68
(g89
g70
NtRp2160
(dp2161
g73
(dp2162
g93
g94
ssg82
g2156
sg75
(lp2163
S'request_uri'
p2164
asbag68
(g89
g70
NtRp2165
(dp2166
g73
(dp2167
g100
g101
ssg82
g2156
sg75
(lp2168
S':'
asbag68
(g89
g70
NtRp2169
(dp2170
g73
(dp2171
sg82
g2156
sg75
(lp2172
g68
(g69
g70
NtRp2173
(dp2174
g73
(dp2175
g81
I4
ssg82
g2169
sg75
(lp2176
S'/fayol'
p2177
asbasbasbag68
(g84
g70
NtRp2178
(dp2179
g73
(dp2180
sg82
g1388
sg75
(lp2181
g68
(g89
g70
NtRp2182
(dp2183
g73
(dp2184
g93
g94
ssg82
g2178
sg75
(lp2185
S'script_filename'
p2186
asbag68
(g89
g70
NtRp2187
(dp2188
g73
(dp2189
g100
g101
ssg82
g2178
sg75
(lp2190
S':'
asbag68
(g89
g70
NtRp2191
(dp2192
g73
(dp2193
sg82
g2178
sg75
(lp2194
g68
(g69
g70
NtRp2195
(dp2196
g73
(dp2197
g81
I4
ssg82
g2191
sg75
(lp2198
S'/Users/emir/Documents/beardcode/web2py/wsgihandler.py'
p2199
asbasbasbag68
(g84
g70
NtRp2200
(dp2201
g73
(dp2202
sg82
g1388
sg75
(lp2203
g68
(g89
g70
NtRp2204
(dp2205
g73
(dp2206
g93
g94
ssg82
g2200
sg75
(lp2207
S'script_name'
p2208
asbag68
(g89
g70
NtRp2209
(dp2210
g73
(dp2211
g100
g101
ssg82
g2200
sg75
(lp2212
S':'
asbag68
(g89
g70
NtRp2213
(dp2214
g73
(dp2215
sg82
g2200
sg75
(lp2216
g68
(g69
g70
NtRp2217
(dp2218
g73
(dp2219
g81
I4
ssg82
g2213
sg75
(lp2220
S''
asbasbasbag68
(g84
g70
NtRp2221
(dp2222
g73
(dp2223
sg82
g1388
sg75
(lp2224
g68
(g89
g70
NtRp2225
(dp2226
g73
(dp2227
g93
g94
ssg82
g2221
sg75
(lp2228
S'server_addr'
p2229
asbag68
(g89
g70
NtRp2230
(dp2231
g73
(dp2232
g100
g101
ssg82
g2221
sg75
(lp2233
S':'
asbag68
(g89
g70
NtRp2234
(dp2235
g73
(dp2236
sg82
g2221
sg75
(lp2237
g68
(g69
g70
NtRp2238
(dp2239
g73
(dp2240
g81
I4
ssg82
g2234
sg75
(lp2241
S'127.0.0.1'
p2242
asbasbasbag68
(g84
g70
NtRp2243
(dp2244
g73
(dp2245
sg82
g1388
sg75
(lp2246
g68
(g89
g70
NtRp2247
(dp2248
g73
(dp2249
g93
g94
ssg82
g2243
sg75
(lp2250
S'server_admin'
p2251
asbag68
(g89
g70
NtRp2252
(dp2253
g73
(dp2254
g100
g101
ssg82
g2243
sg75
(lp2255
S':'
asbag68
(g89
g70
NtRp2256
(dp2257
g73
(dp2258
sg82
g2243
sg75
(lp2259
g68
(g69
g70
NtRp2260
(dp2261
g73
(dp2262
g81
I4
ssg82
g2256
sg75
(lp2263
S'you@example.com'
p2264
asbasbasbag68
(g84
g70
NtRp2265
(dp2266
g73
(dp2267
sg82
g1388
sg75
(lp2268
g68
(g89
g70
NtRp2269
(dp2270
g73
(dp2271
g93
g94
ssg82
g2265
sg75
(lp2272
S'server_name'
p2273
asbag68
(g89
g70
NtRp2274
(dp2275
g73
(dp2276
g100
g101
ssg82
g2265
sg75
(lp2277
S':'
asbag68
(g89
g70
NtRp2278
(dp2279
g73
(dp2280
sg82
g2265
sg75
(lp2281
g68
(g69
g70
NtRp2282
(dp2283
g73
(dp2284
g81
I4
ssg82
g2278
sg75
(lp2285
S'web2py'
p2286
asbasbasbag68
(g84
g70
NtRp2287
(dp2288
g73
(dp2289
sg82
g1388
sg75
(lp2290
g68
(g89
g70
NtRp2291
(dp2292
g73
(dp2293
g93
g94
ssg82
g2287
sg75
(lp2294
S'server_port'
p2295
asbag68
(g89
g70
NtRp2296
(dp2297
g73
(dp2298
g100
g101
ssg82
g2287
sg75
(lp2299
S':'
asbag68
(g89
g70
NtRp2300
(dp2301
g73
(dp2302
sg82
g2287
sg75
(lp2303
g68
(g69
g70
NtRp2304
(dp2305
g73
(dp2306
g81
I4
ssg82
g2300
sg75
(lp2307
S'80'
p2308
asbasbasbag68
(g84
g70
NtRp2309
(dp2310
g73
(dp2311
sg82
g1388
sg75
(lp2312
g68
(g89
g70
NtRp2313
(dp2314
g73
(dp2315
g93
g94
ssg82
g2309
sg75
(lp2316
S'server_protocol'
p2317
asbag68
(g89
g70
NtRp2318
(dp2319
g73
(dp2320
g100
g101
ssg82
g2309
sg75
(lp2321
S':'
asbag68
(g89
g70
NtRp2322
(dp2323
g73
(dp2324
sg82
g2309
sg75
(lp2325
g68
(g69
g70
NtRp2326
(dp2327
g73
(dp2328
g81
I4
ssg82
g2322
sg75
(lp2329
S'HTTP/1.1'
p2330
asbasbasbag68
(g84
g70
NtRp2331
(dp2332
g73
(dp2333
sg82
g1388
sg75
(lp2334
g68
(g89
g70
NtRp2335
(dp2336
g73
(dp2337
g93
g94
ssg82
g2331
sg75
(lp2338
S'server_signature'
p2339
asbag68
(g89
g70
NtRp2340
(dp2341
g73
(dp2342
g100
g101
ssg82
g2331
sg75
(lp2343
S':'
asbag68
(g89
g70
NtRp2344
(dp2345
g73
(dp2346
sg82
g2331
sg75
(lp2347
g68
(g69
g70
NtRp2348
(dp2349
g73
(dp2350
g81
I4
ssg82
g2344
sg75
(lp2351
S''
asbasbasbag68
(g84
g70
NtRp2352
(dp2353
g73
(dp2354
sg82
g1388
sg75
(lp2355
g68
(g89
g70
NtRp2356
(dp2357
g73
(dp2358
g93
g94
ssg82
g2352
sg75
(lp2359
S'server_software'
p2360
asbag68
(g89
g70
NtRp2361
(dp2362
g73
(dp2363
g100
g101
ssg82
g2352
sg75
(lp2364
S':'
asbag68
(g89
g70
NtRp2365
(dp2366
g73
(dp2367
sg82
g2352
sg75
(lp2368
g68
(g69
g70
NtRp2369
(dp2370
g73
(dp2371
g81
I4
ssg82
g2365
sg75
(lp2372
S'Apache/2.2.22 (Unix) DAV/2 mod_wsgi/3.3 Python/2.6.7 PHP/5.3.13 with Suhosin-Patch mod_ssl/2.2.22 OpenSSL/0.9.8r'
p2373
asbasbasbag68
(g84
g70
NtRp2374
(dp2375
g73
(dp2376
sg82
g1388
sg75
(lp2377
g68
(g89
g70
NtRp2378
(dp2379
g73
(dp2380
g93
g94
ssg82
g2374
sg75
(lp2381
S'web2py_path'
p2382
asbag68
(g89
g70
NtRp2383
(dp2384
g73
(dp2385
g100
g101
ssg82
g2374
sg75
(lp2386
S':'
asbag68
(g89
g70
NtRp2387
(dp2388
g73
(dp2389
sg82
g2374
sg75
(lp2390
g68
(g69
g70
NtRp2391
(dp2392
g73
(dp2393
g81
I4
ssg82
g2387
sg75
(lp2394
g1435
asbasbasbag68
(g84
g70
NtRp2395
(dp2396
g73
(dp2397
sg82
g1388
sg75
(lp2398
g68
(g89
g70
NtRp2399
(dp2400
g73
(dp2401
g93
g94
ssg82
g2395
sg75
(lp2402
S'web2py_version'
p2403
asbag68
(g89
g70
NtRp2404
(dp2405
g73
(dp2406
g100
g101
ssg82
g2395
sg75
(lp2407
S':'
asbag68
(g89
g70
NtRp2408
(dp2409
g73
(dp2410
sg82
g2395
sg75
(lp2411
g68
(g69
g70
NtRp2412
(dp2413
g73
(dp2414
g81
I4
ssg82
g2408
sg75
(lp2415
g68
(g77
g70
NtRp2416
(dp2417
g73
(dp2418
g81
I3
ssg82
Nsg75
(lp2419
g68
(g84
g70
NtRp2420
(dp2421
g73
(dp2422
sg82
g2416
sg75
(lp2423
g68
(g89
g70
NtRp2424
(dp2425
g73
(dp2426
sg82
g2420
sg75
(lp2427
g68
(g69
g70
NtRp2428
(dp2429
g73
(dp2430
g81
I3
ssg82
g2424
sg75
(lp2431
S'1'
asbasbasbag68
(g84
g70
NtRp2432
(dp2433
g73
(dp2434
sg82
g2416
sg75
(lp2435
g68
(g89
g70
NtRp2436
(dp2437
g73
(dp2438
sg82
g2432
sg75
(lp2439
g68
(g69
g70
NtRp2440
(dp2441
g73
(dp2442
g81
I3
ssg82
g2436
sg75
(lp2443
S'99'
p2444
asbasbasbag68
(g84
g70
NtRp2445
(dp2446
g73
(dp2447
sg82
g2416
sg75
(lp2448
g68
(g89
g70
NtRp2449
(dp2450
g73
(dp2451
sg82
g2445
sg75
(lp2452
g68
(g69
g70
NtRp2453
(dp2454
g73
(dp2455
g81
I3
ssg82
g2449
sg75
(lp2456
S'7'
asbasbasbag68
(g84
g70
NtRp2457
(dp2458
g73
(dp2459
sg82
g2416
sg75
(lp2460
g68
(g89
g70
NtRp2461
(dp2462
g73
(dp2463
sg82
g2457
sg75
(lp2464
g68
(g69
g70
NtRp2465
(dp2466
g73
(dp2467
g81
I3
ssg82
g2461
sg75
(lp2468
S'datetime.datetime(2012, 3, 4, 22, 12, 8)'
p2469
asbasbasbag68
(g84
g70
NtRp2470
(dp2471
g73
(dp2472
sg82
g2416
sg75
(lp2473
g68
(g89
g70
NtRp2474
(dp2475
g73
(dp2476
sg82
g2470
sg75
(lp2477
g68
(g69
g70
NtRp2478
(dp2479
g73
(dp2480
g81
I3
ssg82
g2474
sg75
(lp2481
S'stable'
p2482
asbasbasbasbasbasbasbag68
(g84
g70
NtRp2483
(dp2484
g73
(dp2485
sg82
g1388
sg75
(lp2486
g68
(g89
g70
NtRp2487
(dp2488
g73
(dp2489
g93
g94
ssg82
g2483
sg75
(lp2490
S'wsgi_errors'
p2491
asbag68
(g89
g70
NtRp2492
(dp2493
g73
(dp2494
g100
g101
ssg82
g2483
sg75
(lp2495
S':'
asbag68
(g89
g70
NtRp2496
(dp2497
g73
(dp2498
sg82
g2483
sg75
(lp2499
g68
(g69
g70
NtRp2500
(dp2501
g73
(dp2502
g81
I4
ssg82
g2496
sg75
(lp2503
S'<mod_wsgi.Log object at 0x1044f1070>'
p2504
asbasbasbag68
(g84
g70
NtRp2505
(dp2506
g73
(dp2507
sg82
g1388
sg75
(lp2508
g68
(g89
g70
NtRp2509
(dp2510
g73
(dp2511
g93
g94
ssg82
g2505
sg75
(lp2512
S'wsgi_file_wrapper'
p2513
asbag68
(g89
g70
NtRp2514
(dp2515
g73
(dp2516
g100
g101
ssg82
g2505
sg75
(lp2517
S':'
asbag68
(g89
g70
NtRp2518
(dp2519
g73
(dp2520
sg82
g2505
sg75
(lp2521
g68
(g69
g70
NtRp2522
(dp2523
g73
(dp2524
g81
I4
ssg82
g2518
sg75
(lp2525
S'<built-in method file_wrapper of mod_wsgi.Adapter object at 0x104966d50>'
p2526
asbasbasbag68
(g84
g70
NtRp2527
(dp2528
g73
(dp2529
sg82
g1388
sg75
(lp2530
g68
(g89
g70
NtRp2531
(dp2532
g73
(dp2533
g93
g94
ssg82
g2527
sg75
(lp2534
S'wsgi_input'
p2535
asbag68
(g89
g70
NtRp2536
(dp2537
g73
(dp2538
g100
g101
ssg82
g2527
sg75
(lp2539
S':'
asbag68
(g89
g70
NtRp2540
(dp2541
g73
(dp2542
sg82
g2527
sg75
(lp2543
g68
(g69
g70
NtRp2544
(dp2545
g73
(dp2546
g81
I4
ssg82
g2540
sg75
(lp2547
S'<mod_wsgi.Input object at 0x1044f10f0>'
p2548
asbasbasbag68
(g84
g70
NtRp2549
(dp2550
g73
(dp2551
sg82
g1388
sg75
(lp2552
g68
(g89
g70
NtRp2553
(dp2554
g73
(dp2555
g93
g94
ssg82
g2549
sg75
(lp2556
S'wsgi_multiprocess'
p2557
asbag68
(g89
g70
NtRp2558
(dp2559
g73
(dp2560
g100
g101
ssg82
g2549
sg75
(lp2561
S':'
asbag68
(g89
g70
NtRp2562
(dp2563
g73
(dp2564
sg82
g2549
sg75
(lp2565
g68
(g69
g70
NtRp2566
(dp2567
g73
(dp2568
g81
I4
ssg82
g2562
sg75
(lp2569
S'True'
p2570
asbasbasbag68
(g84
g70
NtRp2571
(dp2572
g73
(dp2573
sg82
g1388
sg75
(lp2574
g68
(g89
g70
NtRp2575
(dp2576
g73
(dp2577
g93
g94
ssg82
g2571
sg75
(lp2578
S'wsgi_multithread'
p2579
asbag68
(g89
g70
NtRp2580
(dp2581
g73
(dp2582
g100
g101
ssg82
g2571
sg75
(lp2583
S':'
asbag68
(g89
g70
NtRp2584
(dp2585
g73
(dp2586
sg82
g2571
sg75
(lp2587
g68
(g69
g70
NtRp2588
(dp2589
g73
(dp2590
g81
I4
ssg82
g2584
sg75
(lp2591
g111
asbasbasbag68
(g84
g70
NtRp2592
(dp2593
g73
(dp2594
sg82
g1388
sg75
(lp2595
g68
(g89
g70
NtRp2596
(dp2597
g73
(dp2598
g93
g94
ssg82
g2592
sg75
(lp2599
S'wsgi_run_once'
p2600
asbag68
(g89
g70
NtRp2601
(dp2602
g73
(dp2603
g100
g101
ssg82
g2592
sg75
(lp2604
S':'
asbag68
(g89
g70
NtRp2605
(dp2606
g73
(dp2607
sg82
g2592
sg75
(lp2608
g68
(g69
g70
NtRp2609
(dp2610
g73
(dp2611
g81
I4
ssg82
g2605
sg75
(lp2612
g111
asbasbasbag68
(g84
g70
NtRp2613
(dp2614
g73
(dp2615
sg82
g1388
sg75
(lp2616
g68
(g89
g70
NtRp2617
(dp2618
g73
(dp2619
g93
g94
ssg82
g2613
sg75
(lp2620
S'wsgi_url_scheme'
p2621
asbag68
(g89
g70
NtRp2622
(dp2623
g73
(dp2624
g100
g101
ssg82
g2613
sg75
(lp2625
S':'
asbag68
(g89
g70
NtRp2626
(dp2627
g73
(dp2628
sg82
g2613
sg75
(lp2629
g68
(g69
g70
NtRp2630
(dp2631
g73
(dp2632
g81
I4
ssg82
g2626
sg75
(lp2633
S'http'
p2634
asbasbasbag68
(g84
g70
NtRp2635
(dp2636
g73
(dp2637
sg82
g1388
sg75
(lp2638
g68
(g89
g70
NtRp2639
(dp2640
g73
(dp2641
g93
g94
ssg82
g2635
sg75
(lp2642
S'wsgi_version'
p2643
asbag68
(g89
g70
NtRp2644
(dp2645
g73
(dp2646
g100
g101
ssg82
g2635
sg75
(lp2647
S':'
asbag68
(g89
g70
NtRp2648
(dp2649
g73
(dp2650
sg82
g2635
sg75
(lp2651
g68
(g69
g70
NtRp2652
(dp2653
g73
(dp2654
g81
I4
ssg82
g2648
sg75
(lp2655
g68
(g77
g70
NtRp2656
(dp2657
g73
(dp2658
g81
I3
ssg82
Nsg75
(lp2659
g68
(g84
g70
NtRp2660
(dp2661
g73
(dp2662
sg82
g2656
sg75
(lp2663
g68
(g89
g70
NtRp2664
(dp2665
g73
(dp2666
sg82
g2660
sg75
(lp2667
g68
(g69
g70
NtRp2668
(dp2669
g73
(dp2670
g81
I3
ssg82
g2664
sg75
(lp2671
S'1'
asbasbasbag68
(g84
g70
NtRp2672
(dp2673
g73
(dp2674
sg82
g2656
sg75
(lp2675
g68
(g89
g70
NtRp2676
(dp2677
g73
(dp2678
sg82
g2672
sg75
(lp2679
g68
(g69
g70
NtRp2680
(dp2681
g73
(dp2682
g81
I3
ssg82
g2676
sg75
(lp2683
S'1'
asbasbasbasbasbasbasbasbasbasbasbag68
(g84
g70
NtRp2684
(dp2685
g73
(dp2686
sg82
g78
sg75
(lp2687
g68
(g89
g70
NtRp2688
(dp2689
g73
(dp2690
g93
g94
ssg82
g2684
sg75
(lp2691
S'extension'
p2692
asbag68
(g89
g70
NtRp2693
(dp2694
g73
(dp2695
g100
g101
ssg82
g2684
sg75
(lp2696
S':'
asbag68
(g89
g70
NtRp2697
(dp2698
g73
(dp2699
sg82
g2684
sg75
(lp2700
g68
(g69
g70
NtRp2701
(dp2702
g73
(dp2703
g81
I5
ssg82
g2697
sg75
(lp2704
S'html'
p2705
asbasbasbag68
(g84
g70
NtRp2706
(dp2707
g73
(dp2708
sg82
g78
sg75
(lp2709
g68
(g89
g70
NtRp2710
(dp2711
g73
(dp2712
g93
g94
ssg82
g2706
sg75
(lp2713
S'folder'
p2714
asbag68
(g89
g70
NtRp2715
(dp2716
g73
(dp2717
g100
g101
ssg82
g2706
sg75
(lp2718
S':'
asbag68
(g89
g70
NtRp2719
(dp2720
g73
(dp2721
sg82
g2706
sg75
(lp2722
g68
(g69
g70
NtRp2723
(dp2724
g73
(dp2725
g81
I5
ssg82
g2719
sg75
(lp2726
S'/Users/emir/Documents/beardcode/web2py/applications/fayol/'
p2727
asbasbasbag68
(g84
g70
NtRp2728
(dp2729
g73
(dp2730
sg82
g78
sg75
(lp2731
g68
(g89
g70
NtRp2732
(dp2733
g73
(dp2734
g93
g94
ssg82
g2728
sg75
(lp2735
S'function'
p2736
asbag68
(g89
g70
NtRp2737
(dp2738
g73
(dp2739
g100
g101
ssg82
g2728
sg75
(lp2740
S':'
asbag68
(g89
g70
NtRp2741
(dp2742
g73
(dp2743
sg82
g2728
sg75
(lp2744
g68
(g69
g70
NtRp2745
(dp2746
g73
(dp2747
g81
I5
ssg82
g2741
sg75
(lp2748
S'index'
p2749
asbasbasbag68
(g84
g70
NtRp2750
(dp2751
g73
(dp2752
sg82
g78
sg75
(lp2753
g68
(g89
g70
NtRp2754
(dp2755
g73
(dp2756
g93
g94
ssg82
g2750
sg75
(lp2757
S'get_vars'
p2758
asbag68
(g89
g70
NtRp2759
(dp2760
g73
(dp2761
g100
g101
ssg82
g2750
sg75
(lp2762
S':'
asbag68
(g89
g70
NtRp2763
(dp2764
g73
(dp2765
sg82
g2750
sg75
(lp2766
g68
(g69
g70
NtRp2767
(dp2768
g73
(dp2769
g81
I5
ssg82
g2763
sg75
(lp2770
g68
(g77
g70
NtRp2771
(dp2772
g73
(dp2773
g81
I4
ssg82
Nsg75
(lp2774
sbasbasbasbag68
(g84
g70
NtRp2775
(dp2776
g73
(dp2777
sg82
g78
sg75
(lp2778
g68
(g89
g70
NtRp2779
(dp2780
g73
(dp2781
g93
g94
ssg82
g2775
sg75
(lp2782
S'global_settings'
p2783
asbag68
(g89
g70
NtRp2784
(dp2785
g73
(dp2786
g100
g101
ssg82
g2775
sg75
(lp2787
S':'
asbag68
(g89
g70
NtRp2788
(dp2789
g73
(dp2790
sg82
g2775
sg75
(lp2791
g68
(g69
g70
NtRp2792
(dp2793
g73
(dp2794
g81
I5
ssg82
g2788
sg75
(lp2795
g68
(g77
g70
NtRp2796
(dp2797
g73
(dp2798
g81
I4
ssg82
Nsg75
(lp2799
g68
(g84
g70
NtRp2800
(dp2801
g73
(dp2802
sg82
g2796
sg75
(lp2803
g68
(g89
g70
NtRp2804
(dp2805
g73
(dp2806
g93
g94
ssg82
g2800
sg75
(lp2807
g1400
asbag68
(g89
g70
NtRp2808
(dp2809
g73
(dp2810
g100
g101
ssg82
g2800
sg75
(lp2811
S':'
asbag68
(g89
g70
NtRp2812
(dp2813
g73
(dp2814
sg82
g2800
sg75
(lp2815
g68
(g69
g70
NtRp2816
(dp2817
g73
(dp2818
g81
I4
ssg82
g2812
sg75
(lp2819
S"set(['/Users/emir/Documents/beardcode/web2py/applications/randomwords/', '/Users/emir/Documents/beardcode/web2py/applications/admin/', '/Users/emir/Documents/beardcode/web2py/applications/fayol/'])"
p2820
asbasbasbag68
(g84
g70
NtRp2821
(dp2822
g73
(dp2823
sg82
g2796
sg75
(lp2824
g68
(g89
g70
NtRp2825
(dp2826
g73
(dp2827
g93
g94
ssg82
g2821
sg75
(lp2828
g1422
asbag68
(g89
g70
NtRp2829
(dp2830
g73
(dp2831
g100
g101
ssg82
g2821
sg75
(lp2832
S':'
asbag68
(g89
g70
NtRp2833
(dp2834
g73
(dp2835
sg82
g2821
sg75
(lp2836
g68
(g69
g70
NtRp2837
(dp2838
g73
(dp2839
g81
I4
ssg82
g2833
sg75
(lp2840
g1435
asbasbasbag68
(g84
g70
NtRp2841
(dp2842
g73
(dp2843
sg82
g2796
sg75
(lp2844
g68
(g89
g70
NtRp2845
(dp2846
g73
(dp2847
g93
g94
ssg82
g2841
sg75
(lp2848
g1444
asbag68
(g89
g70
NtRp2849
(dp2850
g73
(dp2851
g100
g101
ssg82
g2841
sg75
(lp2852
S':'
asbag68
(g89
g70
NtRp2853
(dp2854
g73
(dp2855
sg82
g2841
sg75
(lp2856
g68
(g69
g70
NtRp2857
(dp2858
g73
(dp2859
g81
I4
ssg82
g2853
sg75
(lp2860
S'set([])'
p2861
asbasbasbag68
(g84
g70
NtRp2862
(dp2863
g73
(dp2864
sg82
g2796
sg75
(lp2865
g68
(g89
g70
NtRp2866
(dp2867
g73
(dp2868
g93
g94
ssg82
g2862
sg75
(lp2869
g1466
asbag68
(g89
g70
NtRp2870
(dp2871
g73
(dp2872
g100
g101
ssg82
g2862
sg75
(lp2873
S':'
asbag68
(g89
g70
NtRp2874
(dp2875
g73
(dp2876
sg82
g2862
sg75
(lp2877
g68
(g69
g70
NtRp2878
(dp2879
g73
(dp2880
g81
I4
ssg82
g2874
sg75
(lp2881
g111
asbasbasbag68
(g84
g70
NtRp2882
(dp2883
g73
(dp2884
sg82
g2796
sg75
(lp2885
g68
(g89
g70
NtRp2886
(dp2887
g73
(dp2888
g93
g94
ssg82
g2882
sg75
(lp2889
g1531
asbag68
(g89
g70
NtRp2890
(dp2891
g73
(dp2892
g100
g101
ssg82
g2882
sg75
(lp2893
S':'
asbag68
(g89
g70
NtRp2894
(dp2895
g73
(dp2896
sg82
g2882
sg75
(lp2897
g68
(g69
g70
NtRp2898
(dp2899
g73
(dp2900
g81
I4
ssg82
g2894
sg75
(lp2901
g1435
asbasbasbag68
(g84
g70
NtRp2902
(dp2903
g73
(dp2904
sg82
g2796
sg75
(lp2905
g68
(g89
g70
NtRp2906
(dp2907
g73
(dp2908
g93
g94
ssg82
g2902
sg75
(lp2909
g1750
asbag68
(g89
g70
NtRp2910
(dp2911
g73
(dp2912
g100
g101
ssg82
g2902
sg75
(lp2913
S':'
asbag68
(g89
g70
NtRp2914
(dp2915
g73
(dp2916
sg82
g2902
sg75
(lp2917
g68
(g69
g70
NtRp2918
(dp2919
g73
(dp2920
g81
I4
ssg82
g2914
sg75
(lp2921
g111
asbasbasbag68
(g84
g70
NtRp2922
(dp2923
g73
(dp2924
sg82
g2796
sg75
(lp2925
g68
(g89
g70
NtRp2926
(dp2927
g73
(dp2928
g93
g94
ssg82
g2922
sg75
(lp2929
g1771
asbag68
(g89
g70
NtRp2930
(dp2931
g73
(dp2932
g100
g101
ssg82
g2922
sg75
(lp2933
S':'
asbag68
(g89
g70
NtRp2934
(dp2935
g73
(dp2936
sg82
g2922
sg75
(lp2937
g68
(g69
g70
NtRp2938
(dp2939
g73
(dp2940
g81
I4
ssg82
g2934
sg75
(lp2941
g111
asbasbasbag68
(g84
g70
NtRp2942
(dp2943
g73
(dp2944
sg82
g2796
sg75
(lp2945
g68
(g89
g70
NtRp2946
(dp2947
g73
(dp2948
g93
g94
ssg82
g2942
sg75
(lp2949
g2403
asbag68
(g89
g70
NtRp2950
(dp2951
g73
(dp2952
g100
g101
ssg82
g2942
sg75
(lp2953
S':'
asbag68
(g89
g70
NtRp2954
(dp2955
g73
(dp2956
sg82
g2942
sg75
(lp2957
g68
(g69
g70
NtRp2958
(dp2959
g73
(dp2960
g81
I4
ssg82
g2954
sg75
(lp2961
g68
(g77
g70
NtRp2962
(dp2963
g73
(dp2964
g81
I3
ssg82
Nsg75
(lp2965
g68
(g84
g70
NtRp2966
(dp2967
g73
(dp2968
sg82
g2962
sg75
(lp2969
g68
(g89
g70
NtRp2970
(dp2971
g73
(dp2972
sg82
g2966
sg75
(lp2973
g68
(g69
g70
NtRp2974
(dp2975
g73
(dp2976
g81
I3
ssg82
g2970
sg75
(lp2977
S'1'
asbasbasbag68
(g84
g70
NtRp2978
(dp2979
g73
(dp2980
sg82
g2962
sg75
(lp2981
g68
(g89
g70
NtRp2982
(dp2983
g73
(dp2984
sg82
g2978
sg75
(lp2985
g68
(g69
g70
NtRp2986
(dp2987
g73
(dp2988
g81
I3
ssg82
g2982
sg75
(lp2989
S'99'
p2990
asbasbasbag68
(g84
g70
NtRp2991
(dp2992
g73
(dp2993
sg82
g2962
sg75
(lp2994
g68
(g89
g70
NtRp2995
(dp2996
g73
(dp2997
sg82
g2991
sg75
(lp2998
g68
(g69
g70
NtRp2999
(dp3000
g73
(dp3001
g81
I3
ssg82
g2995
sg75
(lp3002
S'7'
asbasbasbag68
(g84
g70
NtRp3003
(dp3004
g73
(dp3005
sg82
g2962
sg75
(lp3006
g68
(g89
g70
NtRp3007
(dp3008
g73
(dp3009
sg82
g3003
sg75
(lp3010
g68
(g69
g70
NtRp3011
(dp3012
g73
(dp3013
g81
I3
ssg82
g3007
sg75
(lp3014
S'datetime.datetime(2012, 3, 4, 22, 12, 8)'
p3015
asbasbasbag68
(g84
g70
NtRp3016
(dp3017
g73
(dp3018
sg82
g2962
sg75
(lp3019
g68
(g89
g70
NtRp3020
(dp3021
g73
(dp3022
sg82
g3016
sg75
(lp3023
g68
(g69
g70
NtRp3024
(dp3025
g73
(dp3026
g81
I3
ssg82
g3020
sg75
(lp3027
g2482
asbasbasbasbasbasbasbasbasbasbasbag68
(g84
g70
NtRp3028
(dp3029
g73
(dp3030
sg82
g78
sg75
(lp3031
g68
(g89
g70
NtRp3032
(dp3033
g73
(dp3034
g93
g94
ssg82
g3028
sg75
(lp3035
S'is_https'
p3036
asbag68
(g89
g70
NtRp3037
(dp3038
g73
(dp3039
g100
g101
ssg82
g3028
sg75
(lp3040
S':'
asbag68
(g89
g70
NtRp3041
(dp3042
g73
(dp3043
sg82
g3028
sg75
(lp3044
g68
(g69
g70
NtRp3045
(dp3046
g73
(dp3047
g81
I5
ssg82
g3041
sg75
(lp3048
g111
asbasbasbag68
(g84
g70
NtRp3049
(dp3050
g73
(dp3051
sg82
g78
sg75
(lp3052
g68
(g89
g70
NtRp3053
(dp3054
g73
(dp3055
g93
g94
ssg82
g3049
sg75
(lp3056
S'is_local'
p3057
asbag68
(g89
g70
NtRp3058
(dp3059
g73
(dp3060
g100
g101
ssg82
g3049
sg75
(lp3061
S':'
asbag68
(g89
g70
NtRp3062
(dp3063
g73
(dp3064
sg82
g3049
sg75
(lp3065
g68
(g69
g70
NtRp3066
(dp3067
g73
(dp3068
g81
I5
ssg82
g3062
sg75
(lp3069
g2570
asbasbasbag68
(g84
g70
NtRp3070
(dp3071
g73
(dp3072
sg82
g78
sg75
(lp3073
g68
(g89
g70
NtRp3074
(dp3075
g73
(dp3076
g93
g94
ssg82
g3070
sg75
(lp3077
S'is_restful'
p3078
asbag68
(g89
g70
NtRp3079
(dp3080
g73
(dp3081
g100
g101
ssg82
g3070
sg75
(lp3082
S':'
asbag68
(g89
g70
NtRp3083
(dp3084
g73
(dp3085
sg82
g3070
sg75
(lp3086
g68
(g69
g70
NtRp3087
(dp3088
g73
(dp3089
g81
I5
ssg82
g3083
sg75
(lp3090
g111
asbasbasbag68
(g84
g70
NtRp3091
(dp3092
g73
(dp3093
sg82
g78
sg75
(lp3094
g68
(g89
g70
NtRp3095
(dp3096
g73
(dp3097
g93
g94
ssg82
g3091
sg75
(lp3098
S'now'
p3099
asbag68
(g89
g70
NtRp3100
(dp3101
g73
(dp3102
g100
g101
ssg82
g3091
sg75
(lp3103
S':'
asbag68
(g89
g70
NtRp3104
(dp3105
g73
(dp3106
sg82
g3091
sg75
(lp3107
g68
(g69
g70
NtRp3108
(dp3109
g73
(dp3110
g81
I5
ssg82
g3104
sg75
(lp3111
S'datetime.datetime(2012, 8, 13, 16, 50, 52, 415409)'
p3112
asbasbasbag68
(g84
g70
NtRp3113
(dp3114
g73
(dp3115
sg82
g78
sg75
(lp3116
g68
(g89
g70
NtRp3117
(dp3118
g73
(dp3119
g93
g94
ssg82
g3113
sg75
(lp3120
S'post_vars'
p3121
asbag68
(g89
g70
NtRp3122
(dp3123
g73
(dp3124
g100
g101
ssg82
g3113
sg75
(lp3125
S':'
asbag68
(g89
g70
NtRp3126
(dp3127
g73
(dp3128
sg82
g3113
sg75
(lp3129
g68
(g69
g70
NtRp3130
(dp3131
g73
(dp3132
g81
I5
ssg82
g3126
sg75
(lp3133
g68
(g77
g70
NtRp3134
(dp3135
g73
(dp3136
g81
I4
ssg82
Nsg75
(lp3137
sbasbasbasbag68
(g84
g70
NtRp3138
(dp3139
g73
(dp3140
sg82
g78
sg75
(lp3141
g68
(g89
g70
NtRp3142
(dp3143
g73
(dp3144
g93
g94
ssg82
g3138
sg75
(lp3145
S'url'
p3146
asbag68
(g89
g70
NtRp3147
(dp3148
g73
(dp3149
g100
g101
ssg82
g3138
sg75
(lp3150
S':'
asbag68
(g89
g70
NtRp3151
(dp3152
g73
(dp3153
sg82
g3138
sg75
(lp3154
g68
(g69
g70
NtRp3155
(dp3156
g73
(dp3157
g81
I5
ssg82
g3151
sg75
(lp3158
S'/fayol/default/index'
p3159
asbasbasbag68
(g84
g70
NtRp3160
(dp3161
g73
(dp3162
sg82
g78
sg75
(lp3163
g68
(g89
g70
NtRp3164
(dp3165
g73
(dp3166
g93
g94
ssg82
g3160
sg75
(lp3167
S'utcnow'
p3168
asbag68
(g89
g70
NtRp3169
(dp3170
g73
(dp3171
g100
g101
ssg82
g3160
sg75
(lp3172
S':'
asbag68
(g89
g70
NtRp3173
(dp3174
g73
(dp3175
sg82
g3160
sg75
(lp3176
g68
(g69
g70
NtRp3177
(dp3178
g73
(dp3179
g81
I5
ssg82
g3173
sg75
(lp3180
S'datetime.datetime(2012, 8, 13, 21, 50, 52, 415511)'
p3181
asbasbasbag68
(g84
g70
NtRp3182
(dp3183
g73
(dp3184
sg82
g78
sg75
(lp3185
g68
(g89
g70
NtRp3186
(dp3187
g73
(dp3188
g93
g94
ssg82
g3182
sg75
(lp3189
S'uuid'
p3190
asbag68
(g89
g70
NtRp3191
(dp3192
g73
(dp3193
g100
g101
ssg82
g3182
sg75
(lp3194
S':'
asbag68
(g89
g70
NtRp3195
(dp3196
g73
(dp3197
sg82
g3182
sg75
(lp3198
g68
(g69
g70
NtRp3199
(dp3200
g73
(dp3201
g81
I5
ssg82
g3195
sg75
(lp3202
S'fayol/127.0.0.1.2012-08-13.16-50-52.474aa24d-f369-415a-a9ee-4e1f658f5039'
p3203
asbasbasbag68
(g84
g70
NtRp3204
(dp3205
g73
(dp3206
sg82
g78
sg75
(lp3207
g68
(g89
g70
NtRp3208
(dp3209
g73
(dp3210
g93
g94
ssg82
g3204
sg75
(lp3211
S'vars'
p3212
asbag68
(g89
g70
NtRp3213
(dp3214
g73
(dp3215
g100
g101
ssg82
g3204
sg75
(lp3216
S':'
asbag68
(g89
g70
NtRp3217
(dp3218
g73
(dp3219
sg82
g3204
sg75
(lp3220
g68
(g69
g70
NtRp3221
(dp3222
g73
(dp3223
g81
I5
ssg82
g3217
sg75
(lp3224
g68
(g77
g70
NtRp3225
(dp3226
g73
(dp3227
g81
I4
ssg82
Nsg75
(lp3228
sbasbasbasbag68
(g84
g70
NtRp3229
(dp3230
g73
(dp3231
sg82
g78
sg75
(lp3232
g68
(g89
g70
NtRp3233
(dp3234
g73
(dp3235
g93
g94
ssg82
g3229
sg75
(lp3236
S'wsgi'
p3237
asbag68
(g89
g70
NtRp3238
(dp3239
g73
(dp3240
g100
g101
ssg82
g3229
sg75
(lp3241
S':'
asbag68
(g89
g70
NtRp3242
(dp3243
g73
(dp3244
sg82
g3229
sg75
(lp3245
g68
(g69
g70
NtRp3246
(dp3247
g73
(dp3248
g81
I5
ssg82
g3242
sg75
(lp3249
g68
(g77
g70
NtRp3250
(dp3251
g73
(dp3252
g81
I4
ssg82
Nsg75
(lp3253
g68
(g84
g70
NtRp3254
(dp3255
g73
(dp3256
sg82
g3250
sg75
(lp3257
g68
(g89
g70
NtRp3258
(dp3259
g73
(dp3260
g93
g94
ssg82
g3254
sg75
(lp3261
S'environ'
p3262
asbag68
(g89
g70
NtRp3263
(dp3264
g73
(dp3265
g100
g101
ssg82
g3254
sg75
(lp3266
S':'
asbag68
(g89
g70
NtRp3267
(dp3268
g73
(dp3269
sg82
g3254
sg75
(lp3270
g68
(g69
g70
NtRp3271
(dp3272
g73
(dp3273
g81
I4
ssg82
g3267
sg75
(lp3274
g68
(g77
g70
NtRp3275
(dp3276
g73
(dp3277
g81
I3
ssg82
Nsg75
(lp3278
g68
(g84
g70
NtRp3279
(dp3280
g73
(dp3281
sg82
g3275
sg75
(lp3282
g68
(g89
g70
NtRp3283
(dp3284
g73
(dp3285
g93
g94
ssg82
g3279
sg75
(lp3286
S'DOCUMENT_ROOT'
p3287
asbag68
(g89
g70
NtRp3288
(dp3289
g73
(dp3290
g100
g101
ssg82
g3279
sg75
(lp3291
S':'
asbag68
(g89
g70
NtRp3292
(dp3293
g73
(dp3294
sg82
g3279
sg75
(lp3295
g68
(g69
g70
NtRp3296
(dp3297
g73
(dp3298
g81
I3
ssg82
g3292
sg75
(lp3299
g1500
asbasbasbag68
(g84
g70
NtRp3300
(dp3301
g73
(dp3302
sg82
g3275
sg75
(lp3303
g68
(g89
g70
NtRp3304
(dp3305
g73
(dp3306
g93
g94
ssg82
g3300
sg75
(lp3307
S'GATEWAY_INTERFACE'
p3308
asbag68
(g89
g70
NtRp3309
(dp3310
g73
(dp3311
g100
g101
ssg82
g3300
sg75
(lp3312
S':'
asbag68
(g89
g70
NtRp3313
(dp3314
g73
(dp3315
sg82
g3300
sg75
(lp3316
g68
(g69
g70
NtRp3317
(dp3318
g73
(dp3319
g81
I3
ssg82
g3313
sg75
(lp3320
g1522
asbasbasbag68
(g84
g70
NtRp3321
(dp3322
g73
(dp3323
sg82
g3275
sg75
(lp3324
g68
(g89
g70
NtRp3325
(dp3326
g73
(dp3327
g93
g94
ssg82
g3321
sg75
(lp3328
S'HTTP_ACCEPT'
p3329
asbag68
(g89
g70
NtRp3330
(dp3331
g73
(dp3332
g100
g101
ssg82
g3321
sg75
(lp3333
S':'
asbag68
(g89
g70
NtRp3334
(dp3335
g73
(dp3336
sg82
g3321
sg75
(lp3337
g68
(g69
g70
NtRp3338
(dp3339
g73
(dp3340
g81
I3
ssg82
g3334
sg75
(lp3341
g1565
asbasbasbag68
(g84
g70
NtRp3342
(dp3343
g73
(dp3344
sg82
g3275
sg75
(lp3345
g68
(g89
g70
NtRp3346
(dp3347
g73
(dp3348
g93
g94
ssg82
g3342
sg75
(lp3349
S'HTTP_ACCEPT_CHARSET'
p3350
asbag68
(g89
g70
NtRp3351
(dp3352
g73
(dp3353
g100
g101
ssg82
g3342
sg75
(lp3354
S':'
asbag68
(g89
g70
NtRp3355
(dp3356
g73
(dp3357
sg82
g3342
sg75
(lp3358
g68
(g69
g70
NtRp3359
(dp3360
g73
(dp3361
g81
I3
ssg82
g3355
sg75
(lp3362
g1587
asbasbasbag68
(g84
g70
NtRp3363
(dp3364
g73
(dp3365
sg82
g3275
sg75
(lp3366
g68
(g89
g70
NtRp3367
(dp3368
g73
(dp3369
g93
g94
ssg82
g3363
sg75
(lp3370
S'HTTP_ACCEPT_ENCODING'
p3371
asbag68
(g89
g70
NtRp3372
(dp3373
g73
(dp3374
g100
g101
ssg82
g3363
sg75
(lp3375
S':'
asbag68
(g89
g70
NtRp3376
(dp3377
g73
(dp3378
sg82
g3363
sg75
(lp3379
g68
(g69
g70
NtRp3380
(dp3381
g73
(dp3382
g81
I3
ssg82
g3376
sg75
(lp3383
g1609
asbasbasbag68
(g84
g70
NtRp3384
(dp3385
g73
(dp3386
sg82
g3275
sg75
(lp3387
g68
(g89
g70
NtRp3388
(dp3389
g73
(dp3390
g93
g94
ssg82
g3384
sg75
(lp3391
S'HTTP_ACCEPT_LANGUAGE'
p3392
asbag68
(g89
g70
NtRp3393
(dp3394
g73
(dp3395
g100
g101
ssg82
g3384
sg75
(lp3396
S':'
asbag68
(g89
g70
NtRp3397
(dp3398
g73
(dp3399
sg82
g3384
sg75
(lp3400
g68
(g69
g70
NtRp3401
(dp3402
g73
(dp3403
g81
I3
ssg82
g3397
sg75
(lp3404
g1631
asbasbasbag68
(g84
g70
NtRp3405
(dp3406
g73
(dp3407
sg82
g3275
sg75
(lp3408
g68
(g89
g70
NtRp3409
(dp3410
g73
(dp3411
g93
g94
ssg82
g3405
sg75
(lp3412
S'HTTP_CACHE_CONTROL'
p3413
asbag68
(g89
g70
NtRp3414
(dp3415
g73
(dp3416
g100
g101
ssg82
g3405
sg75
(lp3417
S':'
asbag68
(g89
g70
NtRp3418
(dp3419
g73
(dp3420
sg82
g3405
sg75
(lp3421
g68
(g69
g70
NtRp3422
(dp3423
g73
(dp3424
g81
I3
ssg82
g3418
sg75
(lp3425
g1653
asbasbasbag68
(g84
g70
NtRp3426
(dp3427
g73
(dp3428
sg82
g3275
sg75
(lp3429
g68
(g89
g70
NtRp3430
(dp3431
g73
(dp3432
g93
g94
ssg82
g3426
sg75
(lp3433
S'HTTP_CONNECTION'
p3434
asbag68
(g89
g70
NtRp3435
(dp3436
g73
(dp3437
g100
g101
ssg82
g3426
sg75
(lp3438
S':'
asbag68
(g89
g70
NtRp3439
(dp3440
g73
(dp3441
sg82
g3426
sg75
(lp3442
g68
(g69
g70
NtRp3443
(dp3444
g73
(dp3445
g81
I3
ssg82
g3439
sg75
(lp3446
g1675
asbasbasbag68
(g84
g70
NtRp3447
(dp3448
g73
(dp3449
sg82
g3275
sg75
(lp3450
g68
(g89
g70
NtRp3451
(dp3452
g73
(dp3453
g93
g94
ssg82
g3447
sg75
(lp3454
S'HTTP_COOKIE'
p3455
asbag68
(g89
g70
NtRp3456
(dp3457
g73
(dp3458
g100
g101
ssg82
g3447
sg75
(lp3459
S':'
asbag68
(g89
g70
NtRp3460
(dp3461
g73
(dp3462
sg82
g3447
sg75
(lp3463
g68
(g69
g70
NtRp3464
(dp3465
g73
(dp3466
g81
I3
ssg82
g3460
sg75
(lp3467
g1697
asbasbasbag68
(g84
g70
NtRp3468
(dp3469
g73
(dp3470
sg82
g3275
sg75
(lp3471
g68
(g89
g70
NtRp3472
(dp3473
g73
(dp3474
g93
g94
ssg82
g3468
sg75
(lp3475
S'HTTP_HOST'
p3476
asbag68
(g89
g70
NtRp3477
(dp3478
g73
(dp3479
g100
g101
ssg82
g3468
sg75
(lp3480
S':'
asbag68
(g89
g70
NtRp3481
(dp3482
g73
(dp3483
sg82
g3468
sg75
(lp3484
g68
(g69
g70
NtRp3485
(dp3486
g73
(dp3487
g81
I3
ssg82
g3481
sg75
(lp3488
g1719
asbasbasbag68
(g84
g70
NtRp3489
(dp3490
g73
(dp3491
sg82
g3275
sg75
(lp3492
g68
(g89
g70
NtRp3493
(dp3494
g73
(dp3495
g93
g94
ssg82
g3489
sg75
(lp3496
S'HTTP_USER_AGENT'
p3497
asbag68
(g89
g70
NtRp3498
(dp3499
g73
(dp3500
g100
g101
ssg82
g3489
sg75
(lp3501
S':'
asbag68
(g89
g70
NtRp3502
(dp3503
g73
(dp3504
sg82
g3489
sg75
(lp3505
g68
(g69
g70
NtRp3506
(dp3507
g73
(dp3508
g81
I3
ssg82
g3502
sg75
(lp3509
g1741
asbasbasbag68
(g84
g70
NtRp3510
(dp3511
g73
(dp3512
sg82
g3275
sg75
(lp3513
g68
(g89
g70
NtRp3514
(dp3515
g73
(dp3516
g93
g94
ssg82
g3510
sg75
(lp3517
S'PATH_INFO'
p3518
asbag68
(g89
g70
NtRp3519
(dp3520
g73
(dp3521
g100
g101
ssg82
g3510
sg75
(lp3522
S':'
asbag68
(g89
g70
NtRp3523
(dp3524
g73
(dp3525
sg82
g3510
sg75
(lp3526
g68
(g69
g70
NtRp3527
(dp3528
g73
(dp3529
g81
I3
ssg82
g3523
sg75
(lp3530
g2047
asbasbasbag68
(g84
g70
NtRp3531
(dp3532
g73
(dp3533
sg82
g3275
sg75
(lp3534
g68
(g89
g70
NtRp3535
(dp3536
g73
(dp3537
g93
g94
ssg82
g3531
sg75
(lp3538
S'PATH_TRANSLATED'
p3539
asbag68
(g89
g70
NtRp3540
(dp3541
g73
(dp3542
g100
g101
ssg82
g3531
sg75
(lp3543
S':'
asbag68
(g89
g70
NtRp3544
(dp3545
g73
(dp3546
sg82
g3531
sg75
(lp3547
g68
(g69
g70
NtRp3548
(dp3549
g73
(dp3550
g81
I3
ssg82
g3544
sg75
(lp3551
g2069
asbasbasbag68
(g84
g70
NtRp3552
(dp3553
g73
(dp3554
sg82
g3275
sg75
(lp3555
g68
(g89
g70
NtRp3556
(dp3557
g73
(dp3558
g93
g94
ssg82
g3552
sg75
(lp3559
S'QUERY_STRING'
p3560
asbag68
(g89
g70
NtRp3561
(dp3562
g73
(dp3563
g100
g101
ssg82
g3552
sg75
(lp3564
S':'
asbag68
(g89
g70
NtRp3565
(dp3566
g73
(dp3567
sg82
g3552
sg75
(lp3568
g68
(g69
g70
NtRp3569
(dp3570
g73
(dp3571
g81
I3
ssg82
g3565
sg75
(lp3572
S''
asbasbasbag68
(g84
g70
NtRp3573
(dp3574
g73
(dp3575
sg82
g3275
sg75
(lp3576
g68
(g89
g70
NtRp3577
(dp3578
g73
(dp3579
g93
g94
ssg82
g3573
sg75
(lp3580
S'REMOTE_ADDR'
p3581
asbag68
(g89
g70
NtRp3582
(dp3583
g73
(dp3584
g100
g101
ssg82
g3573
sg75
(lp3585
S':'
asbag68
(g89
g70
NtRp3586
(dp3587
g73
(dp3588
sg82
g3573
sg75
(lp3589
g68
(g69
g70
NtRp3590
(dp3591
g73
(dp3592
g81
I3
ssg82
g3586
sg75
(lp3593
g201
asbasbasbag68
(g84
g70
NtRp3594
(dp3595
g73
(dp3596
sg82
g3275
sg75
(lp3597
g68
(g89
g70
NtRp3598
(dp3599
g73
(dp3600
g93
g94
ssg82
g3594
sg75
(lp3601
S'REMOTE_PORT'
p3602
asbag68
(g89
g70
NtRp3603
(dp3604
g73
(dp3605
g100
g101
ssg82
g3594
sg75
(lp3606
S':'
asbag68
(g89
g70
NtRp3607
(dp3608
g73
(dp3609
sg82
g3594
sg75
(lp3610
g68
(g69
g70
NtRp3611
(dp3612
g73
(dp3613
g81
I3
ssg82
g3607
sg75
(lp3614
g2133
asbasbasbag68
(g84
g70
NtRp3615
(dp3616
g73
(dp3617
sg82
g3275
sg75
(lp3618
g68
(g89
g70
NtRp3619
(dp3620
g73
(dp3621
g93
g94
ssg82
g3615
sg75
(lp3622
S'REQUEST_METHOD'
p3623
asbag68
(g89
g70
NtRp3624
(dp3625
g73
(dp3626
g100
g101
ssg82
g3615
sg75
(lp3627
S':'
asbag68
(g89
g70
NtRp3628
(dp3629
g73
(dp3630
sg82
g3615
sg75
(lp3631
g68
(g69
g70
NtRp3632
(dp3633
g73
(dp3634
g81
I3
ssg82
g3628
sg75
(lp3635
g2155
asbasbasbag68
(g84
g70
NtRp3636
(dp3637
g73
(dp3638
sg82
g3275
sg75
(lp3639
g68
(g89
g70
NtRp3640
(dp3641
g73
(dp3642
g93
g94
ssg82
g3636
sg75
(lp3643
S'REQUEST_URI'
p3644
asbag68
(g89
g70
NtRp3645
(dp3646
g73
(dp3647
g100
g101
ssg82
g3636
sg75
(lp3648
S':'
asbag68
(g89
g70
NtRp3649
(dp3650
g73
(dp3651
sg82
g3636
sg75
(lp3652
g68
(g69
g70
NtRp3653
(dp3654
g73
(dp3655
g81
I3
ssg82
g3649
sg75
(lp3656
g2177
asbasbasbag68
(g84
g70
NtRp3657
(dp3658
g73
(dp3659
sg82
g3275
sg75
(lp3660
g68
(g89
g70
NtRp3661
(dp3662
g73
(dp3663
g93
g94
ssg82
g3657
sg75
(lp3664
S'SCRIPT_FILENAME'
p3665
asbag68
(g89
g70
NtRp3666
(dp3667
g73
(dp3668
g100
g101
ssg82
g3657
sg75
(lp3669
S':'
asbag68
(g89
g70
NtRp3670
(dp3671
g73
(dp3672
sg82
g3657
sg75
(lp3673
g68
(g69
g70
NtRp3674
(dp3675
g73
(dp3676
g81
I3
ssg82
g3670
sg75
(lp3677
g2199
asbasbasbag68
(g84
g70
NtRp3678
(dp3679
g73
(dp3680
sg82
g3275
sg75
(lp3681
g68
(g89
g70
NtRp3682
(dp3683
g73
(dp3684
g93
g94
ssg82
g3678
sg75
(lp3685
S'SCRIPT_NAME'
p3686
asbag68
(g89
g70
NtRp3687
(dp3688
g73
(dp3689
g100
g101
ssg82
g3678
sg75
(lp3690
S':'
asbag68
(g89
g70
NtRp3691
(dp3692
g73
(dp3693
sg82
g3678
sg75
(lp3694
g68
(g69
g70
NtRp3695
(dp3696
g73
(dp3697
g81
I3
ssg82
g3691
sg75
(lp3698
S''
asbasbasbag68
(g84
g70
NtRp3699
(dp3700
g73
(dp3701
sg82
g3275
sg75
(lp3702
g68
(g89
g70
NtRp3703
(dp3704
g73
(dp3705
g93
g94
ssg82
g3699
sg75
(lp3706
S'SERVER_ADDR'
p3707
asbag68
(g89
g70
NtRp3708
(dp3709
g73
(dp3710
g100
g101
ssg82
g3699
sg75
(lp3711
S':'
asbag68
(g89
g70
NtRp3712
(dp3713
g73
(dp3714
sg82
g3699
sg75
(lp3715
g68
(g69
g70
NtRp3716
(dp3717
g73
(dp3718
g81
I3
ssg82
g3712
sg75
(lp3719
g2242
asbasbasbag68
(g84
g70
NtRp3720
(dp3721
g73
(dp3722
sg82
g3275
sg75
(lp3723
g68
(g89
g70
NtRp3724
(dp3725
g73
(dp3726
g93
g94
ssg82
g3720
sg75
(lp3727
S'SERVER_ADMIN'
p3728
asbag68
(g89
g70
NtRp3729
(dp3730
g73
(dp3731
g100
g101
ssg82
g3720
sg75
(lp3732
S':'
asbag68
(g89
g70
NtRp3733
(dp3734
g73
(dp3735
sg82
g3720
sg75
(lp3736
g68
(g69
g70
NtRp3737
(dp3738
g73
(dp3739
g81
I3
ssg82
g3733
sg75
(lp3740
g2264
asbasbasbag68
(g84
g70
NtRp3741
(dp3742
g73
(dp3743
sg82
g3275
sg75
(lp3744
g68
(g89
g70
NtRp3745
(dp3746
g73
(dp3747
g93
g94
ssg82
g3741
sg75
(lp3748
S'SERVER_NAME'
p3749
asbag68
(g89
g70
NtRp3750
(dp3751
g73
(dp3752
g100
g101
ssg82
g3741
sg75
(lp3753
S':'
asbag68
(g89
g70
NtRp3754
(dp3755
g73
(dp3756
sg82
g3741
sg75
(lp3757
g68
(g69
g70
NtRp3758
(dp3759
g73
(dp3760
g81
I3
ssg82
g3754
sg75
(lp3761
g2286
asbasbasbag68
(g84
g70
NtRp3762
(dp3763
g73
(dp3764
sg82
g3275
sg75
(lp3765
g68
(g89
g70
NtRp3766
(dp3767
g73
(dp3768
g93
g94
ssg82
g3762
sg75
(lp3769
S'SERVER_PORT'
p3770
asbag68
(g89
g70
NtRp3771
(dp3772
g73
(dp3773
g100
g101
ssg82
g3762
sg75
(lp3774
S':'
asbag68
(g89
g70
NtRp3775
(dp3776
g73
(dp3777
sg82
g3762
sg75
(lp3778
g68
(g69
g70
NtRp3779
(dp3780
g73
(dp3781
g81
I3
ssg82
g3775
sg75
(lp3782
g2308
asbasbasbag68
(g84
g70
NtRp3783
(dp3784
g73
(dp3785
sg82
g3275
sg75
(lp3786
g68
(g89
g70
NtRp3787
(dp3788
g73
(dp3789
g93
g94
ssg82
g3783
sg75
(lp3790
S'SERVER_PROTOCOL'
p3791
asbag68
(g89
g70
NtRp3792
(dp3793
g73
(dp3794
g100
g101
ssg82
g3783
sg75
(lp3795
S':'
asbag68
(g89
g70
NtRp3796
(dp3797
g73
(dp3798
sg82
g3783
sg75
(lp3799
g68
(g69
g70
NtRp3800
(dp3801
g73
(dp3802
g81
I3
ssg82
g3796
sg75
(lp3803
g2330
asbasbasbag68
(g84
g70
NtRp3804
(dp3805
g73
(dp3806
sg82
g3275
sg75
(lp3807
g68
(g89
g70
NtRp3808
(dp3809
g73
(dp3810
g93
g94
ssg82
g3804
sg75
(lp3811
S'SERVER_SIGNATURE'
p3812
asbag68
(g89
g70
NtRp3813
(dp3814
g73
(dp3815
g100
g101
ssg82
g3804
sg75
(lp3816
S':'
asbag68
(g89
g70
NtRp3817
(dp3818
g73
(dp3819
sg82
g3804
sg75
(lp3820
g68
(g69
g70
NtRp3821
(dp3822
g73
(dp3823
g81
I3
ssg82
g3817
sg75
(lp3824
S''
asbasbasbag68
(g84
g70
NtRp3825
(dp3826
g73
(dp3827
sg82
g3275
sg75
(lp3828
g68
(g89
g70
NtRp3829
(dp3830
g73
(dp3831
g93
g94
ssg82
g3825
sg75
(lp3832
S'SERVER_SOFTWARE'
p3833
asbag68
(g89
g70
NtRp3834
(dp3835
g73
(dp3836
g100
g101
ssg82
g3825
sg75
(lp3837
S':'
asbag68
(g89
g70
NtRp3838
(dp3839
g73
(dp3840
sg82
g3825
sg75
(lp3841
g68
(g69
g70
NtRp3842
(dp3843
g73
(dp3844
g81
I3
ssg82
g3838
sg75
(lp3845
g2373
asbasbasbag68
(g84
g70
NtRp3846
(dp3847
g73
(dp3848
sg82
g3275
sg75
(lp3849
g68
(g89
g70
NtRp3850
(dp3851
g73
(dp3852
g93
g94
ssg82
g3846
sg75
(lp3853
S'mod_wsgi.application_group'
p3854
asbag68
(g89
g70
NtRp3855
(dp3856
g73
(dp3857
g100
g101
ssg82
g3846
sg75
(lp3858
S':'
asbag68
(g89
g70
NtRp3859
(dp3860
g73
(dp3861
sg82
g3846
sg75
(lp3862
g68
(g69
g70
NtRp3863
(dp3864
g73
(dp3865
g81
I3
ssg82
g3859
sg75
(lp3866
g1805
asbasbasbag68
(g84
g70
NtRp3867
(dp3868
g73
(dp3869
sg82
g3275
sg75
(lp3870
g68
(g89
g70
NtRp3871
(dp3872
g73
(dp3873
g93
g94
ssg82
g3867
sg75
(lp3874
S'mod_wsgi.callable_object'
p3875
asbag68
(g89
g70
NtRp3876
(dp3877
g73
(dp3878
g100
g101
ssg82
g3867
sg75
(lp3879
S':'
asbag68
(g89
g70
NtRp3880
(dp3881
g73
(dp3882
sg82
g3867
sg75
(lp3883
g68
(g69
g70
NtRp3884
(dp3885
g73
(dp3886
g81
I3
ssg82
g3880
sg75
(lp3887
g1827
asbasbasbag68
(g84
g70
NtRp3888
(dp3889
g73
(dp3890
sg82
g3275
sg75
(lp3891
g68
(g89
g70
NtRp3892
(dp3893
g73
(dp3894
g93
g94
ssg82
g3888
sg75
(lp3895
S'mod_wsgi.handler_script'
p3896
asbag68
(g89
g70
NtRp3897
(dp3898
g73
(dp3899
g100
g101
ssg82
g3888
sg75
(lp3900
S':'
asbag68
(g89
g70
NtRp3901
(dp3902
g73
(dp3903
sg82
g3888
sg75
(lp3904
g68
(g69
g70
NtRp3905
(dp3906
g73
(dp3907
g81
I3
ssg82
g3901
sg75
(lp3908
S''
asbasbasbag68
(g84
g70
NtRp3909
(dp3910
g73
(dp3911
sg82
g3275
sg75
(lp3912
g68
(g89
g70
NtRp3913
(dp3914
g73
(dp3915
g93
g94
ssg82
g3909
sg75
(lp3916
S'mod_wsgi.input_chunked'
p3917
asbag68
(g89
g70
NtRp3918
(dp3919
g73
(dp3920
g100
g101
ssg82
g3909
sg75
(lp3921
S':'
asbag68
(g89
g70
NtRp3922
(dp3923
g73
(dp3924
sg82
g3909
sg75
(lp3925
g68
(g69
g70
NtRp3926
(dp3927
g73
(dp3928
g81
I3
ssg82
g3922
sg75
(lp3929
S'0'
asbasbasbag68
(g84
g70
NtRp3930
(dp3931
g73
(dp3932
sg82
g3275
sg75
(lp3933
g68
(g89
g70
NtRp3934
(dp3935
g73
(dp3936
g93
g94
ssg82
g3930
sg75
(lp3937
S'mod_wsgi.listener_host'
p3938
asbag68
(g89
g70
NtRp3939
(dp3940
g73
(dp3941
g100
g101
ssg82
g3930
sg75
(lp3942
S':'
asbag68
(g89
g70
NtRp3943
(dp3944
g73
(dp3945
sg82
g3930
sg75
(lp3946
g68
(g69
g70
NtRp3947
(dp3948
g73
(dp3949
g81
I3
ssg82
g3943
sg75
(lp3950
S''
asbasbasbag68
(g84
g70
NtRp3951
(dp3952
g73
(dp3953
sg82
g3275
sg75
(lp3954
g68
(g89
g70
NtRp3955
(dp3956
g73
(dp3957
g93
g94
ssg82
g3951
sg75
(lp3958
S'mod_wsgi.listener_port'
p3959
asbag68
(g89
g70
NtRp3960
(dp3961
g73
(dp3962
g100
g101
ssg82
g3951
sg75
(lp3963
S':'
asbag68
(g89
g70
NtRp3964
(dp3965
g73
(dp3966
sg82
g3951
sg75
(lp3967
g68
(g69
g70
NtRp3968
(dp3969
g73
(dp3970
g81
I3
ssg82
g3964
sg75
(lp3971
g1912
asbasbasbag68
(g84
g70
NtRp3972
(dp3973
g73
(dp3974
sg82
g3275
sg75
(lp3975
g68
(g89
g70
NtRp3976
(dp3977
g73
(dp3978
g93
g94
ssg82
g3972
sg75
(lp3979
S'mod_wsgi.process_group'
p3980
asbag68
(g89
g70
NtRp3981
(dp3982
g73
(dp3983
g100
g101
ssg82
g3972
sg75
(lp3984
S':'
asbag68
(g89
g70
NtRp3985
(dp3986
g73
(dp3987
sg82
g3972
sg75
(lp3988
g68
(g69
g70
NtRp3989
(dp3990
g73
(dp3991
g81
I3
ssg82
g3985
sg75
(lp3992
S''
asbasbasbag68
(g84
g70
NtRp3993
(dp3994
g73
(dp3995
sg82
g3275
sg75
(lp3996
g68
(g89
g70
NtRp3997
(dp3998
g73
(dp3999
g93
g94
ssg82
g3993
sg75
(lp4000
S'mod_wsgi.request_handler'
p4001
asbag68
(g89
g70
NtRp4002
(dp4003
g73
(dp4004
g100
g101
ssg82
g3993
sg75
(lp4005
S':'
asbag68
(g89
g70
NtRp4006
(dp4007
g73
(dp4008
sg82
g3993
sg75
(lp4009
g68
(g69
g70
NtRp4010
(dp4011
g73
(dp4012
g81
I3
ssg82
g4006
sg75
(lp4013
g1955
asbasbasbag68
(g84
g70
NtRp4014
(dp4015
g73
(dp4016
sg82
g3275
sg75
(lp4017
g68
(g89
g70
NtRp4018
(dp4019
g73
(dp4020
g93
g94
ssg82
g4014
sg75
(lp4021
S'mod_wsgi.script_reloading'
p4022
asbag68
(g89
g70
NtRp4023
(dp4024
g73
(dp4025
g100
g101
ssg82
g4014
sg75
(lp4026
S':'
asbag68
(g89
g70
NtRp4027
(dp4028
g73
(dp4029
sg82
g4014
sg75
(lp4030
g68
(g69
g70
NtRp4031
(dp4032
g73
(dp4033
g81
I3
ssg82
g4027
sg75
(lp4034
S'1'
asbasbasbag68
(g84
g70
NtRp4035
(dp4036
g73
(dp4037
sg82
g3275
sg75
(lp4038
g68
(g89
g70
NtRp4039
(dp4040
g73
(dp4041
g93
g94
ssg82
g4035
sg75
(lp4042
S'mod_wsgi.version'
p4043
asbag68
(g89
g70
NtRp4044
(dp4045
g73
(dp4046
g100
g101
ssg82
g4035
sg75
(lp4047
S':'
asbag68
(g89
g70
NtRp4048
(dp4049
g73
(dp4050
sg82
g4035
sg75
(lp4051
g68
(g69
g70
NtRp4052
(dp4053
g73
(dp4054
g81
I3
ssg82
g4048
sg75
(lp4055
g68
(g77
g70
NtRp4056
(dp4057
g73
(dp4058
g81
I2
ssg82
Nsg75
(lp4059
g68
(g84
g70
NtRp4060
(dp4061
g73
(dp4062
sg82
g4056
sg75
(lp4063
g68
(g89
g70
NtRp4064
(dp4065
g73
(dp4066
sg82
g4060
sg75
(lp4067
g68
(g69
g70
NtRp4068
(dp4069
g73
(dp4070
g81
I2
ssg82
g4064
sg75
(lp4071
S'3'
asbasbasbag68
(g84
g70
NtRp4072
(dp4073
g73
(dp4074
sg82
g4056
sg75
(lp4075
g68
(g89
g70
NtRp4076
(dp4077
g73
(dp4078
sg82
g4072
sg75
(lp4079
g68
(g69
g70
NtRp4080
(dp4081
g73
(dp4082
g81
I2
ssg82
g4076
sg75
(lp4083
S'3'
asbasbasbasbasbasbasbag68
(g84
g70
NtRp4084
(dp4085
g73
(dp4086
sg82
g3275
sg75
(lp4087
g68
(g89
g70
NtRp4088
(dp4089
g73
(dp4090
g93
g94
ssg82
g4084
sg75
(lp4091
S'wsgi.errors'
p4092
asbag68
(g89
g70
NtRp4093
(dp4094
g73
(dp4095
g100
g101
ssg82
g4084
sg75
(lp4096
S':'
asbag68
(g89
g70
NtRp4097
(dp4098
g73
(dp4099
sg82
g4084
sg75
(lp4100
g68
(g69
g70
NtRp4101
(dp4102
g73
(dp4103
g81
I3
ssg82
g4097
sg75
(lp4104
S'<mod_wsgi.Log object at 0x1044f1070>'
p4105
asbasbasbag68
(g84
g70
NtRp4106
(dp4107
g73
(dp4108
sg82
g3275
sg75
(lp4109
g68
(g89
g70
NtRp4110
(dp4111
g73
(dp4112
g93
g94
ssg82
g4106
sg75
(lp4113
S'wsgi.file_wrapper'
p4114
asbag68
(g89
g70
NtRp4115
(dp4116
g73
(dp4117
g100
g101
ssg82
g4106
sg75
(lp4118
S':'
asbag68
(g89
g70
NtRp4119
(dp4120
g73
(dp4121
sg82
g4106
sg75
(lp4122
g68
(g69
g70
NtRp4123
(dp4124
g73
(dp4125
g81
I3
ssg82
g4119
sg75
(lp4126
S'<built-in method file_wrapper of mod_wsgi.Adapter object at 0x104966d50>'
p4127
asbasbasbag68
(g84
g70
NtRp4128
(dp4129
g73
(dp4130
sg82
g3275
sg75
(lp4131
g68
(g89
g70
NtRp4132
(dp4133
g73
(dp4134
g93
g94
ssg82
g4128
sg75
(lp4135
S'wsgi.input'
p4136
asbag68
(g89
g70
NtRp4137
(dp4138
g73
(dp4139
g100
g101
ssg82
g4128
sg75
(lp4140
S':'
asbag68
(g89
g70
NtRp4141
(dp4142
g73
(dp4143
sg82
g4128
sg75
(lp4144
g68
(g69
g70
NtRp4145
(dp4146
g73
(dp4147
g81
I3
ssg82
g4141
sg75
(lp4148
S'<cStringIO.StringO object at 0x1047d5c38>'
p4149
asbasbasbag68
(g84
g70
NtRp4150
(dp4151
g73
(dp4152
sg82
g3275
sg75
(lp4153
g68
(g89
g70
NtRp4154
(dp4155
g73
(dp4156
g93
g94
ssg82
g4150
sg75
(lp4157
S'wsgi.multiprocess'
p4158
asbag68
(g89
g70
NtRp4159
(dp4160
g73
(dp4161
g100
g101
ssg82
g4150
sg75
(lp4162
S':'
asbag68
(g89
g70
NtRp4163
(dp4164
g73
(dp4165
sg82
g4150
sg75
(lp4166
g68
(g69
g70
NtRp4167
(dp4168
g73
(dp4169
g81
I3
ssg82
g4163
sg75
(lp4170
g2570
asbasbasbag68
(g84
g70
NtRp4171
(dp4172
g73
(dp4173
sg82
g3275
sg75
(lp4174
g68
(g89
g70
NtRp4175
(dp4176
g73
(dp4177
g93
g94
ssg82
g4171
sg75
(lp4178
S'wsgi.multithread'
p4179
asbag68
(g89
g70
NtRp4180
(dp4181
g73
(dp4182
g100
g101
ssg82
g4171
sg75
(lp4183
S':'
asbag68
(g89
g70
NtRp4184
(dp4185
g73
(dp4186
sg82
g4171
sg75
(lp4187
g68
(g69
g70
NtRp4188
(dp4189
g73
(dp4190
g81
I3
ssg82
g4184
sg75
(lp4191
g111
asbasbasbag68
(g84
g70
NtRp4192
(dp4193
g73
(dp4194
sg82
g3275
sg75
(lp4195
g68
(g89
g70
NtRp4196
(dp4197
g73
(dp4198
g93
g94
ssg82
g4192
sg75
(lp4199
S'wsgi.run_once'
p4200
asbag68
(g89
g70
NtRp4201
(dp4202
g73
(dp4203
g100
g101
ssg82
g4192
sg75
(lp4204
S':'
asbag68
(g89
g70
NtRp4205
(dp4206
g73
(dp4207
sg82
g4192
sg75
(lp4208
g68
(g69
g70
NtRp4209
(dp4210
g73
(dp4211
g81
I3
ssg82
g4205
sg75
(lp4212
g111
asbasbasbag68
(g84
g70
NtRp4213
(dp4214
g73
(dp4215
sg82
g3275
sg75
(lp4216
g68
(g89
g70
NtRp4217
(dp4218
g73
(dp4219
g93
g94
ssg82
g4213
sg75
(lp4220
S'wsgi.url_scheme'
p4221
asbag68
(g89
g70
NtRp4222
(dp4223
g73
(dp4224
g100
g101
ssg82
g4213
sg75
(lp4225
S':'
asbag68
(g89
g70
NtRp4226
(dp4227
g73
(dp4228
sg82
g4213
sg75
(lp4229
g68
(g69
g70
NtRp4230
(dp4231
g73
(dp4232
g81
I3
ssg82
g4226
sg75
(lp4233
g2634
asbasbasbag68
(g84
g70
NtRp4234
(dp4235
g73
(dp4236
sg82
g3275
sg75
(lp4237
g68
(g89
g70
NtRp4238
(dp4239
g73
(dp4240
g93
g94
ssg82
g4234
sg75
(lp4241
S'wsgi.version'
p4242
asbag68
(g89
g70
NtRp4243
(dp4244
g73
(dp4245
g100
g101
ssg82
g4234
sg75
(lp4246
S':'
asbag68
(g89
g70
NtRp4247
(dp4248
g73
(dp4249
sg82
g4234
sg75
(lp4250
g68
(g69
g70
NtRp4251
(dp4252
g73
(dp4253
g81
I3
ssg82
g4247
sg75
(lp4254
S'1'
asbasbasbasbasbasbasbasbasbasbasbasbasbsS'frames'
p4255
(lp4256
(dp4257
S'file'
p4258
S'/Users/emir/Documents/beardcode/web2py/gluon/restricted.py'
p4259
sS'dump'
p4260
(dp4261
S'code'
p4262
S"'# -*- coding: utf-8 -*-\\n\\n\\ndef index():\\n\\tform=FOR...=form)\\n\\n\\n\\nresponse._vars=response._caller(index)\\n'"
p4263
sS'layer'
p4264
S"'/Users/emir/Documents/beardcode/web2py/applications/fayol/controllers/default.py'"
p4265
sS'global compile2'
p4266
S'<function compile2>'
p4267
sS'ccode'
p4268
S'undefined'
p4269
ssS'lnum'
p4270
I204
sS'lines'
p4271
(dp4272
I199
S"    environment['__name__'] = '__restricted__'"
p4273
sI200
S'    try:'
p4274
sI201
S'        if type(code) == types.CodeType:'
p4275
sI202
S'            ccode = code'
p4276
sI203
S'        else:'
p4277
sI204
S'            ccode = compile2(code,layer)'
p4278
sI205
S'        exec ccode in environment'
p4279
sI206
S'    except HTTP:'
p4280
sI207
S'        raise'
p4281
sI208
S'    except RestrictedError:'
p4282
ssS'call'
p4283
S"(code='# -*- coding: utf-8 -*-\\n\\n\\ndef index():\\n\\tform=FOR...=form)\\n\\n\\n\\nresponse._vars=response._caller(index)\\n', environment={'A': <class 'gluon.html.A'>, 'B': <class 'gluon.html.B'>, 'BEAUTIFY': <class 'gluon.html.BEAUTIFY'>, 'BODY': <class 'gluon.html.BODY'>, 'BR': <class 'gluon.html.BR'>, 'BUTTON': <class 'gluon.html.BUTTON'>, 'CAT': <class 'gluon.html.CAT'>, 'CENTER': <class 'gluon.html.CENTER'>, 'CLEANUP': <class 'gluon.validators.CLEANUP'>, 'CODE': <class 'gluon.html.CODE'>, ...}, layer='/Users/emir/Documents/beardcode/web2py/applications/fayol/controllers/default.py')"
p4284
sS'func'
p4285
S'restricted'
p4286
sa(dp4287
g4258
S'/Users/emir/Documents/beardcode/web2py/gluon/restricted.py'
p4288
sg4260
(dp4289
S'builtincompile'
p4290
S'<built-in function compile>'
p4291
sS'code'
p4292
S"'# -*- coding: utf-8 -*-\\n\\n\\ndef index():\\n\\tform=FOR...=form)\\n\\n\\n\\nresponse._vars=response._caller(index)\\n'"
p4293
sS'code.rstrip'
p4294
S'<built-in method rstrip of str object>'
p4295
sS').replace'
p4296
g4269
sS'layer'
p4297
S"'/Users/emir/Documents/beardcode/web2py/applications/fayol/controllers/default.py'"
p4298
ssg4270
I189
sg4271
(dp4299
I192
S'    """'
p4300
sI193
S'    runs code in environment and returns the output. if an exception occurs'
p4301
sI184
S''
sI185
S'def compile2(code,layer):'
p4302
sI186
S'    """'
p4303
sI187
S"    The +'\\n' is necessary else compile fails when code ends in a comment."
p4304
sI188
S'    """'
p4305
sI189
S"    return compile(code.rstrip().replace('\\r\\n','\\n')+'\\n', layer, 'exec')"
p4306
sI190
S''
sI191
S"def restricted(code, environment=None, layer='Unknown'):"
p4307
ssg4283
S"(code='# -*- coding: utf-8 -*-\\n\\n\\ndef index():\\n\\tform=FOR...=form)\\n\\n\\n\\nresponse._vars=response._caller(index)\\n', layer='/Users/emir/Documents/beardcode/web2py/applications/fayol/controllers/default.py')"
p4308
sg4285
S'compile2'
p4309
sasS'pyver'
p4310
S'Python 2.6.7: /usr/bin/python'
p4311
sS'session'
p4312
g68
(g69
g70
NtRp4313
(dp4314
g73
(dp4315
sg75
(lp4316
g68
(g77
g70
NtRp4317
(dp4318
g73
(dp4319
g81
I5
ssg82
Nsg75
(lp4320
sbasbsS'etype'
p4321
S"<type 'exceptions.IndentationError'>"
p4322
sS'date'
p4323
S'Mon Aug 13 16:50:52 2012'
p4324
sS'response'
p4325
g68
(g69
g70
NtRp4326
(dp4327
g73
(dp4328
sg75
(lp4329
g68
(g77
g70
NtRp4330
(dp4331
g73
(dp4332
g81
I5
ssg82
Nsg75
(lp4333
g68
(g84
g70
NtRp4334
(dp4335
g73
(dp4336
sg82
g4330
sg75
(lp4337
g68
(g89
g70
NtRp4338
(dp4339
g73
(dp4340
g93
g94
ssg82
g4334
sg75
(lp4341
g166
asbag68
(g89
g70
NtRp4342
(dp4343
g73
(dp4344
g100
g101
ssg82
g4334
sg75
(lp4345
S':'
asbag68
(g89
g70
NtRp4346
(dp4347
g73
(dp4348
sg82
g4334
sg75
(lp4349
g68
(g69
g70
NtRp4350
(dp4351
g73
(dp4352
g81
I5
ssg82
g4346
sg75
(lp4353
S'<cStringIO.StringO object at 0x1045c5f80>'
p4354
asbasbasbag68
(g84
g70
NtRp4355
(dp4356
g73
(dp4357
sg82
g4330
sg75
(lp4358
g68
(g89
g70
NtRp4359
(dp4360
g73
(dp4361
g93
g94
ssg82
g4355
sg75
(lp4362
g232
asbag68
(g89
g70
NtRp4363
(dp4364
g73
(dp4365
g100
g101
ssg82
g4355
sg75
(lp4366
S':'
asbag68
(g89
g70
NtRp4367
(dp4368
g73
(dp4369
sg82
g4355
sg75
(lp4370
g68
(g69
g70
NtRp4371
(dp4372
g73
(dp4373
g81
I5
ssg82
g4367
sg75
(lp4374
g68
(g77
g70
NtRp4375
(dp4376
g73
(dp4377
g81
I4
ssg82
Nsg75
(lp4378
g68
(g84
g70
NtRp4379
(dp4380
g73
(dp4381
sg82
g4375
sg75
(lp4382
g68
(g89
g70
NtRp4383
(dp4384
g73
(dp4385
g93
g94
ssg82
g4379
sg75
(lp4386
S'session_id_fayol'
p4387
asbag68
(g89
g70
NtRp4388
(dp4389
g73
(dp4390
g100
g101
ssg82
g4379
sg75
(lp4391
S':'
asbag68
(g89
g70
NtRp4392
(dp4393
g73
(dp4394
sg82
g4379
sg75
(lp4395
g68
(g69
g70
NtRp4396
(dp4397
g73
(dp4398
g81
I4
ssg82
g4392
sg75
(lp4399
g68
(g77
g70
NtRp4400
(dp4401
g73
(dp4402
g81
I3
ssg82
Nsg75
(lp4403
g68
(g84
g70
NtRp4404
(dp4405
g73
(dp4406
sg82
g4400
sg75
(lp4407
g68
(g89
g70
NtRp4408
(dp4409
g73
(dp4410
g93
g94
ssg82
g4404
sg75
(lp4411
g282
asbag68
(g89
g70
NtRp4412
(dp4413
g73
(dp4414
g100
g101
ssg82
g4404
sg75
(lp4415
S':'
asbag68
(g89
g70
NtRp4416
(dp4417
g73
(dp4418
sg82
g4404
sg75
(lp4419
g68
(g69
g70
NtRp4420
(dp4421
g73
(dp4422
g81
I3
ssg82
g4416
sg75
(lp4423
S''
asbasbasbag68
(g84
g70
NtRp4424
(dp4425
g73
(dp4426
sg82
g4400
sg75
(lp4427
g68
(g89
g70
NtRp4428
(dp4429
g73
(dp4430
g93
g94
ssg82
g4424
sg75
(lp4431
g303
asbag68
(g89
g70
NtRp4432
(dp4433
g73
(dp4434
g100
g101
ssg82
g4424
sg75
(lp4435
S':'
asbag68
(g89
g70
NtRp4436
(dp4437
g73
(dp4438
sg82
g4424
sg75
(lp4439
g68
(g69
g70
NtRp4440
(dp4441
g73
(dp4442
g81
I3
ssg82
g4436
sg75
(lp4443
S''
asbasbasbag68
(g84
g70
NtRp4444
(dp4445
g73
(dp4446
sg82
g4400
sg75
(lp4447
g68
(g89
g70
NtRp4448
(dp4449
g73
(dp4450
g93
g94
ssg82
g4444
sg75
(lp4451
g324
asbag68
(g89
g70
NtRp4452
(dp4453
g73
(dp4454
g100
g101
ssg82
g4444
sg75
(lp4455
S':'
asbag68
(g89
g70
NtRp4456
(dp4457
g73
(dp4458
sg82
g4444
sg75
(lp4459
g68
(g69
g70
NtRp4460
(dp4461
g73
(dp4462
g81
I3
ssg82
g4456
sg75
(lp4463
S''
asbasbasbag68
(g84
g70
NtRp4464
(dp4465
g73
(dp4466
sg82
g4400
sg75
(lp4467
g68
(g89
g70
NtRp4468
(dp4469
g73
(dp4470
g93
g94
ssg82
g4464
sg75
(lp4471
g345
asbag68
(g89
g70
NtRp4472
(dp4473
g73
(dp4474
g100
g101
ssg82
g4464
sg75
(lp4475
S':'
asbag68
(g89
g70
NtRp4476
(dp4477
g73
(dp4478
sg82
g4464
sg75
(lp4479
g68
(g69
g70
NtRp4480
(dp4481
g73
(dp4482
g81
I3
ssg82
g4476
sg75
(lp4483
S''
asbasbasbag68
(g84
g70
NtRp4484
(dp4485
g73
(dp4486
sg82
g4400
sg75
(lp4487
g68
(g89
g70
NtRp4488
(dp4489
g73
(dp4490
g93
g94
ssg82
g4484
sg75
(lp4491
g366
asbag68
(g89
g70
NtRp4492
(dp4493
g73
(dp4494
g100
g101
ssg82
g4484
sg75
(lp4495
S':'
asbag68
(g89
g70
NtRp4496
(dp4497
g73
(dp4498
sg82
g4484
sg75
(lp4499
g68
(g69
g70
NtRp4500
(dp4501
g73
(dp4502
g81
I3
ssg82
g4496
sg75
(lp4503
S''
asbasbasbag68
(g84
g70
NtRp4504
(dp4505
g73
(dp4506
sg82
g4400
sg75
(lp4507
g68
(g89
g70
NtRp4508
(dp4509
g73
(dp4510
g93
g94
ssg82
g4504
sg75
(lp4511
g387
asbag68
(g89
g70
NtRp4512
(dp4513
g73
(dp4514
g100
g101
ssg82
g4504
sg75
(lp4515
S':'
asbag68
(g89
g70
NtRp4516
(dp4517
g73
(dp4518
sg82
g4504
sg75
(lp4519
g68
(g69
g70
NtRp4520
(dp4521
g73
(dp4522
g81
I3
ssg82
g4516
sg75
(lp4523
S'/'
asbasbasbag68
(g84
g70
NtRp4524
(dp4525
g73
(dp4526
sg82
g4400
sg75
(lp4527
g68
(g89
g70
NtRp4528
(dp4529
g73
(dp4530
g93
g94
ssg82
g4524
sg75
(lp4531
g408
asbag68
(g89
g70
NtRp4532
(dp4533
g73
(dp4534
g100
g101
ssg82
g4524
sg75
(lp4535
S':'
asbag68
(g89
g70
NtRp4536
(dp4537
g73
(dp4538
sg82
g4524
sg75
(lp4539
g68
(g69
g70
NtRp4540
(dp4541
g73
(dp4542
g81
I3
ssg82
g4536
sg75
(lp4543
S''
asbasbasbag68
(g84
g70
NtRp4544
(dp4545
g73
(dp4546
sg82
g4400
sg75
(lp4547
g68
(g89
g70
NtRp4548
(dp4549
g73
(dp4550
g93
g94
ssg82
g4544
sg75
(lp4551
g429
asbag68
(g89
g70
NtRp4552
(dp4553
g73
(dp4554
g100
g101
ssg82
g4544
sg75
(lp4555
S':'
asbag68
(g89
g70
NtRp4556
(dp4557
g73
(dp4558
sg82
g4544
sg75
(lp4559
g68
(g69
g70
NtRp4560
(dp4561
g73
(dp4562
g81
I3
ssg82
g4556
sg75
(lp4563
S''
asbasbasbasbasbasbasbasbasbasbasbag68
(g84
g70
NtRp4564
(dp4565
g73
(dp4566
sg82
g4330
sg75
(lp4567
g68
(g89
g70
NtRp4568
(dp4569
g73
(dp4570
g93
g94
ssg82
g4564
sg75
(lp4571
S'delimiters'
p4572
asbag68
(g89
g70
NtRp4573
(dp4574
g73
(dp4575
g100
g101
ssg82
g4564
sg75
(lp4576
S':'
asbag68
(g89
g70
NtRp4577
(dp4578
g73
(dp4579
sg82
g4564
sg75
(lp4580
g68
(g69
g70
NtRp4581
(dp4582
g73
(dp4583
g81
I5
ssg82
g4577
sg75
(lp4584
g68
(g77
g70
NtRp4585
(dp4586
g73
(dp4587
g81
I4
ssg82
Nsg75
(lp4588
g68
(g84
g70
NtRp4589
(dp4590
g73
(dp4591
sg82
g4585
sg75
(lp4592
g68
(g89
g70
NtRp4593
(dp4594
g73
(dp4595
sg82
g4589
sg75
(lp4596
g68
(g69
g70
NtRp4597
(dp4598
g73
(dp4599
g81
I4
ssg82
g4593
sg75
(lp4600
S'{{'
p4601
asbasbasbag68
(g84
g70
NtRp4602
(dp4603
g73
(dp4604
sg82
g4585
sg75
(lp4605
g68
(g89
g70
NtRp4606
(dp4607
g73
(dp4608
sg82
g4602
sg75
(lp4609
g68
(g69
g70
NtRp4610
(dp4611
g73
(dp4612
g81
I4
ssg82
g4606
sg75
(lp4613
S'}}'
p4614
asbasbasbasbasbasbasbag68
(g84
g70
NtRp4615
(dp4616
g73
(dp4617
sg82
g4330
sg75
(lp4618
g68
(g89
g70
NtRp4619
(dp4620
g73
(dp4621
g93
g94
ssg82
g4615
sg75
(lp4622
S'files'
p4623
asbag68
(g89
g70
NtRp4624
(dp4625
g73
(dp4626
g100
g101
ssg82
g4615
sg75
(lp4627
S':'
asbag68
(g89
g70
NtRp4628
(dp4629
g73
(dp4630
sg82
g4615
sg75
(lp4631
g68
(g69
g70
NtRp4632
(dp4633
g73
(dp4634
g81
I5
ssg82
g4628
sg75
(lp4635
g68
(g77
g70
NtRp4636
(dp4637
g73
(dp4638
g81
I4
ssg82
Nsg75
(lp4639
sbasbasbasbag68
(g84
g70
NtRp4640
(dp4641
g73
(dp4642
sg82
g4330
sg75
(lp4643
g68
(g89
g70
NtRp4644
(dp4645
g73
(dp4646
g93
g94
ssg82
g4640
sg75
(lp4647
S'flash'
p4648
asbag68
(g89
g70
NtRp4649
(dp4650
g73
(dp4651
g100
g101
ssg82
g4640
sg75
(lp4652
S':'
asbag68
(g89
g70
NtRp4653
(dp4654
g73
(dp4655
sg82
g4640
sg75
(lp4656
g68
(g69
g70
NtRp4657
(dp4658
g73
(dp4659
g81
I5
ssg82
g4653
sg75
(lp4660
S''
asbasbasbag68
(g84
g70
NtRp4661
(dp4662
g73
(dp4663
sg82
g4330
sg75
(lp4664
g68
(g89
g70
NtRp4665
(dp4666
g73
(dp4667
g93
g94
ssg82
g4661
sg75
(lp4668
S'generic_patterns'
p4669
asbag68
(g89
g70
NtRp4670
(dp4671
g73
(dp4672
g100
g101
ssg82
g4661
sg75
(lp4673
S':'
asbag68
(g89
g70
NtRp4674
(dp4675
g73
(dp4676
sg82
g4661
sg75
(lp4677
g68
(g69
g70
NtRp4678
(dp4679
g73
(dp4680
g81
I5
ssg82
g4674
sg75
(lp4681
g68
(g77
g70
NtRp4682
(dp4683
g73
(dp4684
g81
I4
ssg82
Nsg75
(lp4685
sbasbasbasbag68
(g84
g70
NtRp4686
(dp4687
g73
(dp4688
sg82
g4330
sg75
(lp4689
g68
(g89
g70
NtRp4690
(dp4691
g73
(dp4692
g93
g94
ssg82
g4686
sg75
(lp4693
S'headers'
p4694
asbag68
(g89
g70
NtRp4695
(dp4696
g73
(dp4697
g100
g101
ssg82
g4686
sg75
(lp4698
S':'
asbag68
(g89
g70
NtRp4699
(dp4700
g73
(dp4701
sg82
g4686
sg75
(lp4702
g68
(g69
g70
NtRp4703
(dp4704
g73
(dp4705
g81
I5
ssg82
g4699
sg75
(lp4706
g68
(g77
g70
NtRp4707
(dp4708
g73
(dp4709
g81
I4
ssg82
Nsg75
(lp4710
g68
(g84
g70
NtRp4711
(dp4712
g73
(dp4713
sg82
g4707
sg75
(lp4714
g68
(g89
g70
NtRp4715
(dp4716
g73
(dp4717
g93
g94
ssg82
g4711
sg75
(lp4718
S'Cache-Control'
p4719
asbag68
(g89
g70
NtRp4720
(dp4721
g73
(dp4722
g100
g101
ssg82
g4711
sg75
(lp4723
S':'
asbag68
(g89
g70
NtRp4724
(dp4725
g73
(dp4726
sg82
g4711
sg75
(lp4727
g68
(g69
g70
NtRp4728
(dp4729
g73
(dp4730
g81
I4
ssg82
g4724
sg75
(lp4731
S'no-store, no-cache, must-revalidate, post-check=0, pre-check=0'
p4732
asbasbasbag68
(g84
g70
NtRp4733
(dp4734
g73
(dp4735
sg82
g4707
sg75
(lp4736
g68
(g89
g70
NtRp4737
(dp4738
g73
(dp4739
g93
g94
ssg82
g4733
sg75
(lp4740
S'Content-Type'
p4741
asbag68
(g89
g70
NtRp4742
(dp4743
g73
(dp4744
g100
g101
ssg82
g4733
sg75
(lp4745
S':'
asbag68
(g89
g70
NtRp4746
(dp4747
g73
(dp4748
sg82
g4733
sg75
(lp4749
g68
(g69
g70
NtRp4750
(dp4751
g73
(dp4752
g81
I4
ssg82
g4746
sg75
(lp4753
S'text/html; charset=utf-8'
p4754
asbasbasbag68
(g84
g70
NtRp4755
(dp4756
g73
(dp4757
sg82
g4707
sg75
(lp4758
g68
(g89
g70
NtRp4759
(dp4760
g73
(dp4761
g93
g94
ssg82
g4755
sg75
(lp4762
S'Expires'
p4763
asbag68
(g89
g70
NtRp4764
(dp4765
g73
(dp4766
g100
g101
ssg82
g4755
sg75
(lp4767
S':'
asbag68
(g89
g70
NtRp4768
(dp4769
g73
(dp4770
sg82
g4755
sg75
(lp4771
g68
(g69
g70
NtRp4772
(dp4773
g73
(dp4774
g81
I4
ssg82
g4768
sg75
(lp4775
S'Mon, 13 Aug 2012 21:50:52 GMT'
p4776
asbasbasbag68
(g84
g70
NtRp4777
(dp4778
g73
(dp4779
sg82
g4707
sg75
(lp4780
g68
(g89
g70
NtRp4781
(dp4782
g73
(dp4783
g93
g94
ssg82
g4777
sg75
(lp4784
S'Pragma'
p4785
asbag68
(g89
g70
NtRp4786
(dp4787
g73
(dp4788
g100
g101
ssg82
g4777
sg75
(lp4789
S':'
asbag68
(g89
g70
NtRp4790
(dp4791
g73
(dp4792
sg82
g4777
sg75
(lp4793
g68
(g69
g70
NtRp4794
(dp4795
g73
(dp4796
g81
I4
ssg82
g4790
sg75
(lp4797
S'no-cache'
p4798
asbasbasbag68
(g84
g70
NtRp4799
(dp4800
g73
(dp4801
sg82
g4707
sg75
(lp4802
g68
(g89
g70
NtRp4803
(dp4804
g73
(dp4805
g93
g94
ssg82
g4799
sg75
(lp4806
S'X-Powered-By'
p4807
asbag68
(g89
g70
NtRp4808
(dp4809
g73
(dp4810
g100
g101
ssg82
g4799
sg75
(lp4811
S':'
asbag68
(g89
g70
NtRp4812
(dp4813
g73
(dp4814
sg82
g4799
sg75
(lp4815
g68
(g69
g70
NtRp4816
(dp4817
g73
(dp4818
g81
I4
ssg82
g4812
sg75
(lp4819
S'web2py'
p4820
asbasbasbasbasbasbasbag68
(g84
g70
NtRp4821
(dp4822
g73
(dp4823
sg82
g4330
sg75
(lp4824
g68
(g89
g70
NtRp4825
(dp4826
g73
(dp4827
g93
g94
ssg82
g4821
sg75
(lp4828
S'menu'
p4829
asbag68
(g89
g70
NtRp4830
(dp4831
g73
(dp4832
g100
g101
ssg82
g4821
sg75
(lp4833
S':'
asbag68
(g89
g70
NtRp4834
(dp4835
g73
(dp4836
sg82
g4821
sg75
(lp4837
g68
(g69
g70
NtRp4838
(dp4839
g73
(dp4840
g81
I5
ssg82
g4834
sg75
(lp4841
g68
(g77
g70
NtRp4842
(dp4843
g73
(dp4844
g81
I4
ssg82
Nsg75
(lp4845
sbasbasbasbag68
(g84
g70
NtRp4846
(dp4847
g73
(dp4848
sg82
g4330
sg75
(lp4849
g68
(g89
g70
NtRp4850
(dp4851
g73
(dp4852
g93
g94
ssg82
g4846
sg75
(lp4853
S'meta'
p4854
asbag68
(g89
g70
NtRp4855
(dp4856
g73
(dp4857
g100
g101
ssg82
g4846
sg75
(lp4858
S':'
asbag68
(g89
g70
NtRp4859
(dp4860
g73
(dp4861
sg82
g4846
sg75
(lp4862
g68
(g69
g70
NtRp4863
(dp4864
g73
(dp4865
g81
I5
ssg82
g4859
sg75
(lp4866
g68
(g77
g70
NtRp4867
(dp4868
g73
(dp4869
g81
I4
ssg82
Nsg75
(lp4870
sbasbasbasbag68
(g84
g70
NtRp4871
(dp4872
g73
(dp4873
sg82
g4330
sg75
(lp4874
g68
(g89
g70
NtRp4875
(dp4876
g73
(dp4877
g93
g94
ssg82
g4871
sg75
(lp4878
S'postprocessing'
p4879
asbag68
(g89
g70
NtRp4880
(dp4881
g73
(dp4882
g100
g101
ssg82
g4871
sg75
(lp4883
S':'
asbag68
(g89
g70
NtRp4884
(dp4885
g73
(dp4886
sg82
g4871
sg75
(lp4887
g68
(g69
g70
NtRp4888
(dp4889
g73
(dp4890
g81
I5
ssg82
g4884
sg75
(lp4891
g68
(g77
g70
NtRp4892
(dp4893
g73
(dp4894
g81
I4
ssg82
Nsg75
(lp4895
sbasbasbasbag68
(g84
g70
NtRp4896
(dp4897
g73
(dp4898
sg82
g4330
sg75
(lp4899
g68
(g89
g70
NtRp4900
(dp4901
g73
(dp4902
g93
g94
ssg82
g4896
sg75
(lp4903
S'session_filename'
p4904
asbag68
(g89
g70
NtRp4905
(dp4906
g73
(dp4907
g100
g101
ssg82
g4896
sg75
(lp4908
S':'
asbag68
(g89
g70
NtRp4909
(dp4910
g73
(dp4911
sg82
g4896
sg75
(lp4912
g68
(g69
g70
NtRp4913
(dp4914
g73
(dp4915
g81
I5
ssg82
g4909
sg75
(lp4916
S'/Users/emir/Documents/beardcode/web2py/applications/fayol/sessions/127.0.0.1-6399403d-3c8c-4d29-aac6-558796b4772f'
p4917
asbasbasbag68
(g84
g70
NtRp4918
(dp4919
g73
(dp4920
sg82
g4330
sg75
(lp4921
g68
(g89
g70
NtRp4922
(dp4923
g73
(dp4924
g93
g94
ssg82
g4918
sg75
(lp4925
S'session_id'
p4926
asbag68
(g89
g70
NtRp4927
(dp4928
g73
(dp4929
g100
g101
ssg82
g4918
sg75
(lp4930
S':'
asbag68
(g89
g70
NtRp4931
(dp4932
g73
(dp4933
sg82
g4918
sg75
(lp4934
g68
(g69
g70
NtRp4935
(dp4936
g73
(dp4937
g81
I5
ssg82
g4931
sg75
(lp4938
S'127.0.0.1-6399403d-3c8c-4d29-aac6-558796b4772f'
p4939
asbasbasbag68
(g84
g70
NtRp4940
(dp4941
g73
(dp4942
sg82
g4330
sg75
(lp4943
g68
(g89
g70
NtRp4944
(dp4945
g73
(dp4946
g93
g94
ssg82
g4940
sg75
(lp4947
S'session_id_name'
p4948
asbag68
(g89
g70
NtRp4949
(dp4950
g73
(dp4951
g100
g101
ssg82
g4940
sg75
(lp4952
S':'
asbag68
(g89
g70
NtRp4953
(dp4954
g73
(dp4955
sg82
g4940
sg75
(lp4956
g68
(g69
g70
NtRp4957
(dp4958
g73
(dp4959
g81
I5
ssg82
g4953
sg75
(lp4960
g4387
asbasbasbag68
(g84
g70
NtRp4961
(dp4962
g73
(dp4963
sg82
g4330
sg75
(lp4964
g68
(g89
g70
NtRp4965
(dp4966
g73
(dp4967
g93
g94
ssg82
g4961
sg75
(lp4968
S'session_new'
p4969
asbag68
(g89
g70
NtRp4970
(dp4971
g73
(dp4972
g100
g101
ssg82
g4961
sg75
(lp4973
S':'
asbag68
(g89
g70
NtRp4974
(dp4975
g73
(dp4976
sg82
g4961
sg75
(lp4977
g68
(g69
g70
NtRp4978
(dp4979
g73
(dp4980
g81
I5
ssg82
g4974
sg75
(lp4981
g2570
asbasbasbag68
(g84
g70
NtRp4982
(dp4983
g73
(dp4984
sg82
g4330
sg75
(lp4985
g68
(g89
g70
NtRp4986
(dp4987
g73
(dp4988
g93
g94
ssg82
g4982
sg75
(lp4989
S'status'
p4990
asbag68
(g89
g70
NtRp4991
(dp4992
g73
(dp4993
g100
g101
ssg82
g4982
sg75
(lp4994
S':'
asbag68
(g89
g70
NtRp4995
(dp4996
g73
(dp4997
sg82
g4982
sg75
(lp4998
g68
(g69
g70
NtRp4999
(dp5000
g73
(dp5001
g81
I5
ssg82
g4995
sg75
(lp5002
S'200'
p5003
asbasbasbag68
(g84
g70
NtRp5004
(dp5005
g73
(dp5006
sg82
g4330
sg75
(lp5007
g68
(g89
g70
NtRp5008
(dp5009
g73
(dp5010
g93
g94
ssg82
g5004
sg75
(lp5011
g3190
asbag68
(g89
g70
NtRp5012
(dp5013
g73
(dp5014
g100
g101
ssg82
g5004
sg75
(lp5015
S':'
asbag68
(g89
g70
NtRp5016
(dp5017
g73
(dp5018
sg82
g5004
sg75
(lp5019
g68
(g69
g70
NtRp5020
(dp5021
g73
(dp5022
g81
I5
ssg82
g5016
sg75
(lp5023
g3203
asbasbasbag68
(g84
g70
NtRp5024
(dp5025
g73
(dp5026
sg82
g4330
sg75
(lp5027
g68
(g89
g70
NtRp5028
(dp5029
g73
(dp5030
g93
g94
ssg82
g5024
sg75
(lp5031
S'view'
p5032
asbag68
(g89
g70
NtRp5033
(dp5034
g73
(dp5035
g100
g101
ssg82
g5024
sg75
(lp5036
S':'
asbag68
(g89
g70
NtRp5037
(dp5038
g73
(dp5039
sg82
g5024
sg75
(lp5040
g68
(g69
g70
NtRp5041
(dp5042
g73
(dp5043
g81
I5
ssg82
g5037
sg75
(lp5044
S'default/index.html'
p5045
asbasbasbasbasbsS'locals'
p5046
(dp5047
g4
S"'/Users/emir/Documents/beardcode/web2py/applications/fayol/controllers/default.py'"
p5048
sg6
S"'# -*- coding: utf-8 -*-\\n\\n\\ndef index():\\n\\tform=FOR...=form)\\n\\n\\n\\nresponse._vars=response._caller(index)\\n'"
p5049
sssS'traceback'
p5050
S'Traceback (most recent call last):\n  File "/Users/emir/Documents/beardcode/web2py/gluon/restricted.py", line 204, in restricted\n    ccode = compile2(code,layer)\n  File "/Users/emir/Documents/beardcode/web2py/gluon/restricted.py", line 189, in compile2\n    return compile(code.rstrip().replace(\'\\r\\n\',\'\\n\')+\'\\n\', layer, \'exec\')\n  File "/Users/emir/Documents/beardcode/web2py/applications/fayol/controllers/default.py", line 8\n    if form.accepts(request,session):\n                                    ^\nIndentationError: unindent does not match any outer indentation level\n'
p5051
s.